Archive member included because of file (symbol)

c:/Espressif/ESP8266_RTOS_SDK/lib\libmain.a(xtensa_vectors.o)
                              (call_user_start)
c:/Espressif/ESP8266_RTOS_SDK/lib\libmain.a(app_main.o)
                              c:/Espressif/ESP8266_RTOS_SDK/lib\libmain.a(xtensa_vectors.o) (user_fatal_exception_handler)
c:/Espressif/ESP8266_RTOS_SDK/lib\libmain.a(ets_timer.o)
                              c:/Espressif/ESP8266_RTOS_SDK/lib\libmain.a(app_main.o) (ets_timer_init)
c:/Espressif/ESP8266_RTOS_SDK/lib\libmain.a(misc.o)
                              c:/Espressif/ESP8266_RTOS_SDK/lib\libmain.a(app_main.o) (_putc1)
c:/Espressif/ESP8266_RTOS_SDK/lib\libmain.a(printf-stdarg.o)
                              c:/Espressif/ESP8266_RTOS_SDK/lib\libmain.a(app_main.o) (printf)
c:/Espressif/ESP8266_RTOS_SDK/lib\libmain.a(spi_flash.o)
                              c:/Espressif/ESP8266_RTOS_SDK/lib\libmain.a(app_main.o) (flashchip)
c:/Espressif/ESP8266_RTOS_SDK/lib\libmain.a(uart.o)
                              c:/Espressif/ESP8266_RTOS_SDK/lib\libmain.a(app_main.o) (uart_div_modify)
c:/Espressif/ESP8266_RTOS_SDK/lib\libmain.a(user_interface.o)
                              c:/Espressif/ESP8266_RTOS_SDK/lib\libmain.a(app_main.o) (rst_if)
c:/Espressif/ESP8266_RTOS_SDK/lib\libmain.a(os_cpu_a.o)
                              c:/Espressif/ESP8266_RTOS_SDK/lib\libmain.a(xtensa_vectors.o) (_xt_int_enter)
c:/Espressif/ESP8266_RTOS_SDK/lib\libmain.a(xtensa_context.o)
                              c:/Espressif/ESP8266_RTOS_SDK/lib\libmain.a(os_cpu_a.o) (_xt_context_save)
c:/Espressif/ESP8266_RTOS_SDK/lib\libfreertos.a(heap_4.o)
                              c:/Espressif/ESP8266_RTOS_SDK/lib\libmain.a(printf-stdarg.o) (xPortWantedSizeAlign)
c:/Espressif/ESP8266_RTOS_SDK/lib\libfreertos.a(port.o)
                              c:/Espressif/ESP8266_RTOS_SDK/lib\libmain.a(ets_timer.o) (PendSV)
c:/Espressif/ESP8266_RTOS_SDK/lib\libfreertos.a(queue.o)
                              c:/Espressif/ESP8266_RTOS_SDK/lib\libmain.a(ets_timer.o) (xQueueGenericCreate)
c:/Espressif/ESP8266_RTOS_SDK/lib\libfreertos.a(tasks.o)
                              c:/Espressif/ESP8266_RTOS_SDK/lib\libmain.a(os_cpu_a.o) (pxCurrentTCB)
c:/Espressif/ESP8266_RTOS_SDK/lib\libfreertos.a(timers.o)
                              c:/Espressif/ESP8266_RTOS_SDK/lib\libfreertos.a(tasks.o) (xTimerCreateTimerTask)
c:/Espressif/ESP8266_RTOS_SDK/lib\libfreertos.a(list.o)
                              c:/Espressif/ESP8266_RTOS_SDK/lib\libfreertos.a(queue.o) (vListInitialise)
c:/Espressif/ESP8266_RTOS_SDK/lib\liblwip.a(dhcp.o)
                              c:/Espressif/ESP8266_RTOS_SDK/lib\libmain.a(user_interface.o) (dhcp_cleanup)
c:/Espressif/ESP8266_RTOS_SDK/lib\liblwip.a(dhcpserver.o)
                              c:/Espressif/ESP8266_RTOS_SDK/lib\libmain.a(user_interface.o) (dhcps_start)
c:/Espressif/ESP8266_RTOS_SDK/lib\liblwip.a(dns.o)
                              c:/Espressif/ESP8266_RTOS_SDK/lib\liblwip.a(dhcp.o) (dns_setserver)
c:/Espressif/ESP8266_RTOS_SDK/lib\liblwip.a(etharp.o)
                              c:/Espressif/ESP8266_RTOS_SDK/lib\libmain.a(user_interface.o) (ethbroadcast)
c:/Espressif/ESP8266_RTOS_SDK/lib\liblwip.a(ip4_addr.o)
                              c:/Espressif/ESP8266_RTOS_SDK/lib\liblwip.a(dhcp.o) (ip_addr_any)
c:/Espressif/ESP8266_RTOS_SDK/lib\liblwip.a(ip4.o)
                              c:/Espressif/ESP8266_RTOS_SDK/lib\liblwip.a(etharp.o) (ip_input)
c:/Espressif/ESP8266_RTOS_SDK/lib\liblwip.a(ip6.o)
                              c:/Espressif/ESP8266_RTOS_SDK/lib\liblwip.a(etharp.o) (ip6_input)
c:/Espressif/ESP8266_RTOS_SDK/lib\liblwip.a(memp.o)
                              c:/Espressif/ESP8266_RTOS_SDK/lib\liblwip.a(etharp.o) (memp_sizes)
c:/Espressif/ESP8266_RTOS_SDK/lib\liblwip.a(mld6.o)
                              c:/Espressif/ESP8266_RTOS_SDK/lib\liblwip.a(ip6.o) (mld6_lookfor_group)
c:/Espressif/ESP8266_RTOS_SDK/lib\liblwip.a(nd6.o)
                              c:/Espressif/ESP8266_RTOS_SDK/lib\liblwip.a(ip6.o) (default_router_list)
c:/Espressif/ESP8266_RTOS_SDK/lib\liblwip.a(netif.o)
                              c:/Espressif/ESP8266_RTOS_SDK/lib\liblwip.a(dhcp.o) (netif_list)
c:/Espressif/ESP8266_RTOS_SDK/lib\liblwip.a(pbuf.o)
                              c:/Espressif/ESP8266_RTOS_SDK/lib\liblwip.a(dhcp.o) (pbuf_alloc)
c:/Espressif/ESP8266_RTOS_SDK/lib\liblwip.a(raw.o)
                              c:/Espressif/ESP8266_RTOS_SDK/lib\liblwip.a(ip4.o) (raw_input)
c:/Espressif/ESP8266_RTOS_SDK/lib\liblwip.a(sys_arch.o)
                              c:/Espressif/ESP8266_RTOS_SDK/lib\liblwip.a(pbuf.o) (sys_arch_protect)
c:/Espressif/ESP8266_RTOS_SDK/lib\liblwip.a(tcp_in.o)
                              c:/Espressif/ESP8266_RTOS_SDK/lib\liblwip.a(ip4.o) (tcp_input)
c:/Espressif/ESP8266_RTOS_SDK/lib\liblwip.a(tcpip.o)
                              c:/Espressif/ESP8266_RTOS_SDK/lib\libmain.a(app_main.o) (tcpip_init)
c:/Espressif/ESP8266_RTOS_SDK/lib\liblwip.a(tcp.o)
                              c:/Espressif/ESP8266_RTOS_SDK/lib\liblwip.a(netif.o) (tcp_active_pcbs)
c:/Espressif/ESP8266_RTOS_SDK/lib\liblwip.a(tcp_out.o)
                              c:/Espressif/ESP8266_RTOS_SDK/lib\liblwip.a(tcp.o) (tcp_send_fin)
c:/Espressif/ESP8266_RTOS_SDK/lib\liblwip.a(timers.o)
                              c:/Espressif/ESP8266_RTOS_SDK/lib\liblwip.a(tcpip.o) (sys_timeout)
c:/Espressif/ESP8266_RTOS_SDK/lib\liblwip.a(udp.o)
                              c:/Espressif/ESP8266_RTOS_SDK/lib\liblwip.a(ip4.o) (udp_input)
c:/Espressif/ESP8266_RTOS_SDK/lib\liblwip.a(api_msg.o)
                              c:/Espressif/ESP8266_RTOS_SDK/lib\liblwip.a(tcpip.o) (lwip_netconn_do_write)
c:/Espressif/ESP8266_RTOS_SDK/lib\liblwip.a(icmp6.o)
                              c:/Espressif/ESP8266_RTOS_SDK/lib\liblwip.a(ip6.o) (icmp6_input)
c:/Espressif/ESP8266_RTOS_SDK/lib\liblwip.a(icmp.o)
                              c:/Espressif/ESP8266_RTOS_SDK/lib\liblwip.a(ip4.o) (icmp_input)
c:/Espressif/ESP8266_RTOS_SDK/lib\liblwip.a(inet_chksum.o)
                              c:/Espressif/ESP8266_RTOS_SDK/lib\liblwip.a(tcp_in.o) (inet_chksum_pseudo)
c:/Espressif/ESP8266_RTOS_SDK/lib\liblwip.a(init.o)
                              c:/Espressif/ESP8266_RTOS_SDK/lib\liblwip.a(tcpip.o) (lwip_init)
c:/Espressif/ESP8266_RTOS_SDK/lib\liblwip.a(ip6_addr.o)
                              c:/Espressif/ESP8266_RTOS_SDK/lib\liblwip.a(ip6.o) (ip6_addr_any)
c:/Espressif/ESP8266_RTOS_SDK/lib\liblwip.a(ip6_frag.o)
                              c:/Espressif/ESP8266_RTOS_SDK/lib\liblwip.a(timers.o) (ip6_reass_tmr)
c:/Espressif/ESP8266_RTOS_SDK/lib\liblwip.a(netbuf.o)
                              c:/Espressif/ESP8266_RTOS_SDK/lib\liblwip.a(api_msg.o) (netbuf_delete)
c:/Espressif/ESP8266_RTOS_SDK/lib\liblwip.a(sockets.o)
                              c:/Espressif/ESP8266_RTOS_SDK/lib\liblwip.a(init.o) (lwip_socket_init)
c:/Espressif/ESP8266_RTOS_SDK/lib\liblwip.a(api_lib.o)
                              c:/Espressif/ESP8266_RTOS_SDK/lib\liblwip.a(sockets.o) (netconn_new_with_proto_and_callback)
c:/Espressif/ESP8266_RTOS_SDK/lib\libminic.a(minic.o)
                              c:/Espressif/ESP8266_RTOS_SDK/lib\libmain.a(user_interface.o) (sprintf)
build/app_app.a(user_main_sming.o)
                              c:/Espressif/ESP8266_RTOS_SDK/lib\libmain.a(app_main.o) (user_init)
build/app_app.a(Digital.o)    build/app_app.a(user_main_sming.o) (pinMode(unsigned short, unsigned char))
build/app_app.a(Temp_HardwareSerial.o)
                              build/app_app.a(user_main_sming.o) (Serial)
build/app_app.a(Timer.o)      build/app_app.a(user_main_sming.o) (Timer::start(bool))
build/app_app.a(WifiStation.o)
                              build/app_app.a(user_main_sming.o) (WifiStation::config(char*, char*))
build/app_app.a(CQueue.o)     build/app_app.a(user_main_sming.o) (CQueue::CQueue())
build/app_app.a(CTask.o)      build/app_app.a(user_main_sming.o) (CTask::CTask())
build/app_app.a(IPAddress.o)  build/app_app.a(user_main_sming.o) (IPAddress::IPAddress())
build/app_app.a(Print.o)      build/app_app.a(Temp_HardwareSerial.o) (Print::write(unsigned char const*, unsigned int))
build/app_app.a(WString.o)    build/app_app.a(user_main_sming.o) (String::equals(char const*) const)
build/app_app.a(HttpResponse.o)
                              build/app_app.a(user_main_sming.o) (HttpResponse::notFound())
build/app_app.a(HttpServer.o)
                              build/app_app.a(user_main_sming.o) (HttpServer::HttpServer())
build/app_app.a(HttpServerConnection.o)
                              build/app_app.a(HttpServer.o) (HttpServerConnection::HttpServerConnection(HttpServer*, tcp_pcb*))
build/app_app.a(TcpClient.o)  build/app_app.a(user_main_sming.o) (TcpClient::~TcpClient())
build/app_app.a(TcpConnection.o)
                              build/app_app.a(HttpServer.o) (TcpConnection::onError(signed char))
build/app_app.a(TcpServer.o)  build/app_app.a(HttpServer.o) (TcpServer::~TcpServer())
build/app_app.a(TelnetServer.o)
                              build/app_app.a(user_main_sming.o) (TelnetServer::~TelnetServer())
build/app_app.a(UdpConnection.o)
                              build/app_app.a(user_main_sming.o) (UdpConnection::~UdpConnection())
build/app_app.a(WebSocket.o)  build/app_app.a(HttpServer.o) (WebSocket::WebSocket(HttpServerConnection*))
build/app_app.a(CommandExecutor.o)
                              build/app_app.a(TelnetServer.o) (CommandExecutor::CommandExecutor(TcpClient*))
build/app_app.a(CommandHandler.o)
                              build/app_app.a(CommandExecutor.o) (commandHandler)
build/app_app.a(CommandOutput.o)
                              build/app_app.a(CommandExecutor.o) (CommandOutput::CommandOutput(TcpClient*))
build/app_app.a(base64.o)     build/app_app.a(WebSocket.o) (base64_encode)
build/app_app.a(websocket.o)  build/app_app.a(WebSocket.o) (wsMakeFrame(unsigned char const*, unsigned int, unsigned char*, unsigned int*, wsFrameType))
build/app_app.a(m_printf.o)   build/app_app.a(Print.o) (m_vsnprintf(char*, unsigned int, char const*, __va_list_tag))
build/app_app.a(uart.o)       build/app_app.a(Temp_HardwareSerial.o) (uart_tx_one_char)
build/app_app.a(DataSourceStream.o)
                              build/app_app.a(HttpResponse.o) (MemoryDataStream::MemoryDataStream())
build/app_app.a(FileSystem.o)
                              build/app_app.a(DataSourceStream.o) (fileClose(short))
build/app_app.a(SystemClock.o)
                              build/app_app.a(CommandHandler.o) (SystemClockClass::getSystemTimeString(TimeZone))
build/app_app.a(stringconversion.o)
                              build/app_app.a(m_printf.o) (ltoa_w)
build/app_app.a(SplitString.o)
                              build/app_app.a(CommandHandler.o) (splitString(String&, int, Vector<String>&))
build/app_app.a(RTC.o)        build/app_app.a(SystemClock.o) (RtcClass::getRtcSeconds())
build/app_app.a(HttpRequest.o)
                              build/app_app.a(HttpServerConnection.o) (HttpRequest::HttpRequest())
build/app_app.a(NetUtils.o)   build/app_app.a(HttpRequest.o) (NetUtils::pbufFindChar(pbuf*, char, int))
build/app_app.a(ArduinoJson.o)
                              build/app_app.a(DataSourceStream.o) (ArduinoJson::JsonObject::_invalid)
build/app_app.a(CommandDelegate.o)
                              build/app_app.a(CommandHandler.o) (CommandDelegate::CommandDelegate())
build/app_app.a(DateTime.o)   build/app_app.a(SystemClock.o) (DateTime::DateTime())
build/app_app.a(spiffs_hydrogen.o)
                              build/app_app.a(FileSystem.o) (SPIFFS_errno)
build/app_app.a(spiffs_nucleus.o)
                              build/app_app.a(spiffs_hydrogen.o) (spiffs_obj_lu_find_entry_visitor)
build/app_app.a(spiffs_sming.o)
                              build/app_app.a(FileSystem.o) (_filesystemStorageHandle)
build/app_app.a(escape.o)     build/app_app.a(HttpRequest.o) (uri_unescape)
build/app_app.a(flashmem.o)   build/app_app.a(spiffs_sming.o) (flashmem_erase_sector)
build/app_app.a(spiffs_cache.o)
                              build/app_app.a(spiffs_hydrogen.o) (spiffs_phys_rd)
build/app_app.a(spiffs_check.o)
                              build/app_app.a(spiffs_hydrogen.o) (spiffs_lookup_consistency_check)
build/app_app.a(spiffs_gc.o)  build/app_app.a(spiffs_hydrogen.o) (spiffs_gc_quick)
c:/Espressif/ESP8266_RTOS_SDK/lib\libmicroc.a(isprint.o)
                              build/app_app.a(CommandExecutor.o) (isprint)
c:/Espressif/ESP8266_RTOS_SDK/lib\libmicroc.a(isspace.o)
                              build/app_app.a(WString.o) (isspace)
c:/Espressif/ESP8266_RTOS_SDK/lib\libmicroc.a(tolower.o)
                              build/app_app.a(WString.o) (tolower)
c:/Espressif/ESP8266_RTOS_SDK/lib\libmicroc.a(toupper.o)
                              build/app_app.a(WString.o) (toupper)
c:/Espressif/ESP8266_RTOS_SDK/lib\libmicroc.a(isxdigit.o)
                              build/app_app.a(escape.o) (isxdigit)
c:/Espressif/ESP8266_RTOS_SDK/lib\libmicroc.a(atof.o)
                              build/app_app.a(WString.o) (atof)
c:/Espressif/ESP8266_RTOS_SDK/lib\libmicroc.a(strtod.o)
                              build/app_app.a(ArduinoJson.o) (strtod)
c:/Espressif/ESP8266_RTOS_SDK/lib\libmicroc.a(__fpclassify.o)
                              build/app_app.a(Print.o) (__fpclassifyd)
c:/Espressif/ESP8266_RTOS_SDK/lib\libmicroc.a(memchr.o)
                              build/app_app.a(DataSourceStream.o) (memchr)
c:/Espressif/ESP8266_RTOS_SDK/lib\libmicroc.a(__errno_location.o)
                              build/app_app.a(ArduinoJson.o) (__errno_location)
c:/Espressif/ESP8266_RTOS_SDK/lib\libmicroc.a(floatscan.o)
                              c:/Espressif/ESP8266_RTOS_SDK/lib\libmicroc.a(strtod.o) (__floatscan)
c:/Espressif/ESP8266_RTOS_SDK/lib\libmicroc.a(shgetc.o)
                              c:/Espressif/ESP8266_RTOS_SDK/lib\libmicroc.a(strtod.o) (__shlim)
c:/Espressif/ESP8266_RTOS_SDK/lib\libmicroc.a(__uflow.o)
                              c:/Espressif/ESP8266_RTOS_SDK/lib\libmicroc.a(shgetc.o) (__uflow)
c:/Espressif/ESP8266_RTOS_SDK/lib\libmicroc.a(__toread.o)
                              c:/Espressif/ESP8266_RTOS_SDK/lib\libmicroc.a(__uflow.o) (__toread)
c:/Espressif/ESP8266_RTOS_SDK/lib\libmicroc.a(__stdio_exit.o)
                              c:/Espressif/ESP8266_RTOS_SDK/lib\libmicroc.a(__toread.o) (__stdio_exit_needed)
c:/Espressif/ESP8266_RTOS_SDK/lib\libmicroc.a(fmodl.o)
                              c:/Espressif/ESP8266_RTOS_SDK/lib\libmicroc.a(floatscan.o) (fmodl)
c:/Espressif/ESP8266_RTOS_SDK/lib\libmicroc.a(scalbn.o)
                              c:/Espressif/ESP8266_RTOS_SDK/lib\libmicroc.a(floatscan.o) (scalbn)
c:/Espressif/ESP8266_RTOS_SDK/lib\libmicroc.a(scalbnl.o)
                              c:/Espressif/ESP8266_RTOS_SDK/lib\libmicroc.a(floatscan.o) (scalbnl)
c:/Espressif/ESP8266_RTOS_SDK/lib\libmicroc.a(fmod.o)
                              c:/Espressif/ESP8266_RTOS_SDK/lib\libmicroc.a(fmodl.o) (fmod)
c:/Espressif/ESP8266_RTOS_SDK/lib\libmicrogcc.a(_ashldi3.o)
                              c:/Espressif/ESP8266_RTOS_SDK/lib\libmicroc.a(fmod.o) (__ashldi3)
c:/Espressif/ESP8266_RTOS_SDK/lib\libmicrogcc.a(_cmpdf2.o)
                              c:/Espressif/ESP8266_RTOS_SDK/lib\libmicroc.a(floatscan.o) (__eqdf2)
c:/Espressif/ESP8266_RTOS_SDK/lib\libmicrogcc.a(_lshrdi3.o)
                              c:/Espressif/ESP8266_RTOS_SDK/lib\libmicroc.a(fmod.o) (__lshrdi3)
c:/Espressif/ESP8266_RTOS_SDK/lib\libmicrogcc.a(_modsi3.o)
                              c:/Espressif/ESP8266_RTOS_SDK/lib\liblwip.a(mld6.o) (__modsi3)
c:/Espressif/ESP8266_RTOS_SDK/lib\libgcc.a(_mulsf3.o)
                              c:/Espressif/ESP8266_RTOS_SDK/lib\libmicroc.a(floatscan.o) (__mulsf3)
c:/espressif/xtensa-lx106-elf/bin/../lib/gcc/xtensa-lx106-elf/5.1.0/../../../../xtensa-lx106-elf/lib\libhal.a(clock.o)
                              c:/Espressif/ESP8266_RTOS_SDK/lib\libmain.a(misc.o) (xthal_get_ccount)
c:/espressif/xtensa-lx106-elf/bin/../lib/gcc/xtensa-lx106-elf/5.1.0/../../../../xtensa-lx106-elf/lib\libhal.a(int_asm--set_intset.o)
                              c:/Espressif/ESP8266_RTOS_SDK/lib\libfreertos.a(port.o) (xthal_set_intset)
c:/Espressif/ESP8266_RTOS_SDK/lib\libphy.a(phy.o)
                              c:/Espressif/ESP8266_RTOS_SDK/lib\libmain.a(app_main.o) (phy_enable_agc)
c:/Espressif/ESP8266_RTOS_SDK/lib\libphy.a(phy_chip_v6_ana.o)
                              c:/Espressif/ESP8266_RTOS_SDK/lib\libmain.a(app_main.o) (chip_v6_set_chan_offset)
c:/Espressif/ESP8266_RTOS_SDK/lib\libphy.a(phy_chip_v6.o)
                              c:/Espressif/ESP8266_RTOS_SDK/lib\libphy.a(phy_chip_v6_ana.o) (chip6_sleep_params)
c:/Espressif/ESP8266_RTOS_SDK/lib\libphy.a(phy_chip_v6_cal.o)
                              c:/Espressif/ESP8266_RTOS_SDK/lib\libphy.a(phy_chip_v6.o) (loop_pwctrl_pwdet_error_accum_high_power)
c:/Espressif/ESP8266_RTOS_SDK/lib\libphy.a(phy_chip_v6_unused.o)
                              c:/Espressif/ESP8266_RTOS_SDK/lib\libphy.a(phy_chip_v6.o) (chip_v6_set_sense)
c:/Espressif/ESP8266_RTOS_SDK/lib\libphy.a(phy_sleep.o)
                              c:/Espressif/ESP8266_RTOS_SDK/lib\libphy.a(phy_chip_v6.o) (pm_set_sleep_cycles)
c:/Espressif/ESP8266_RTOS_SDK/lib\libphy.a(phy_chip_v5_romfunc.o)
                              c:/Espressif/ESP8266_RTOS_SDK/lib\libphy.a(phy_chip_v6.o) (rom_chip_v5_disable_cca)
c:/Espressif/ESP8266_RTOS_SDK/lib\libphy.a(phy_chip_v5_ana_romfunc.o)
                              c:/Espressif/ESP8266_RTOS_SDK/lib\libphy.a(phy_chip_v5_romfunc.o) (rom_set_channel_freq)
c:/Espressif/ESP8266_RTOS_SDK/lib\libphy.a(phy_chip_v5_cal_romfunc.o)
                              c:/Espressif/ESP8266_RTOS_SDK/lib\libphy.a(phy_chip_v5_romfunc.o) (rom_pbus_dco_( [2]) static)
c:/Espressif/ESP8266_RTOS_SDK/lib\libpp.a(if_hwctrl.o)
                              c:/Espressif/ESP8266_RTOS_SDK/lib\libmain.a(user_interface.o) (ic_set_vif)
c:/Espressif/ESP8266_RTOS_SDK/lib\libpp.a(lmac.o)
                              c:/Espressif/ESP8266_RTOS_SDK/lib\libmain.a(app_main.o) (lmacInit)
c:/Espressif/ESP8266_RTOS_SDK/lib\libpp.a(pm.o)
                              c:/Espressif/ESP8266_RTOS_SDK/lib\libmain.a(os_cpu_a.o) (CCOMPARE_AddVal)
c:/Espressif/ESP8266_RTOS_SDK/lib\libpp.a(pm_for_bcn_only_mode.o)
                              c:/Espressif/ESP8266_RTOS_SDK/lib\libpp.a(pm.o) (fpm_is_open)
c:/Espressif/ESP8266_RTOS_SDK/lib\libpp.a(pp.o)
                              c:/Espressif/ESP8266_RTOS_SDK/lib\libpp.a(pm.o) (pend_flag_noise_check)
c:/Espressif/ESP8266_RTOS_SDK/lib\libpp.a(rate_control.o)
                              c:/Espressif/ESP8266_RTOS_SDK/lib\libpp.a(lmac.o) (RC_SetBasicRate)
c:/Espressif/ESP8266_RTOS_SDK/lib\libpp.a(trc.o)
                              c:/Espressif/ESP8266_RTOS_SDK/lib\libmain.a(user_interface.o) (rc_set_rate_limit_id)
c:/Espressif/ESP8266_RTOS_SDK/lib\libpp.a(wdev.o)
                              c:/Espressif/ESP8266_RTOS_SDK/lib\libpp.a(pp.o) (wDevCtrl)
c:/Espressif/ESP8266_RTOS_SDK/lib\libpp.a(esf_buf.o)
                              c:/Espressif/ESP8266_RTOS_SDK/lib\libpp.a(wdev.o) (esf_rx_buf_alloc)
c:/Espressif/ESP8266_RTOS_SDK/lib\libnet80211.a(ieee80211.o)
                              c:/Espressif/ESP8266_RTOS_SDK/lib\libmain.a(app_main.o) (g_ic)
c:/Espressif/ESP8266_RTOS_SDK/lib\libnet80211.a(ieee80211_crypto.o)
                              c:/Espressif/ESP8266_RTOS_SDK/lib\libnet80211.a(ieee80211.o) (ieee80211_crypto_attach)
c:/Espressif/ESP8266_RTOS_SDK/lib\libnet80211.a(ieee80211_ets.o)
                              c:/Espressif/ESP8266_RTOS_SDK/lib\libpp.a(pm.o) (ieee80211_getmgtframe)
c:/Espressif/ESP8266_RTOS_SDK/lib\libnet80211.a(ieee80211_hostap.o)
                              c:/Espressif/ESP8266_RTOS_SDK/lib\libmain.a(user_interface.o) (BcnEb_update)
c:/Espressif/ESP8266_RTOS_SDK/lib\libnet80211.a(ieee80211_ht.o)
                              c:/Espressif/ESP8266_RTOS_SDK/lib\libmain.a(user_interface.o) (ieee80211_ht_attach)
c:/Espressif/ESP8266_RTOS_SDK/lib\libnet80211.a(ieee80211_input.o)
                              c:/Espressif/ESP8266_RTOS_SDK/lib\libnet80211.a(ieee80211_hostap.o) (ieee80211_decap)
c:/Espressif/ESP8266_RTOS_SDK/lib\libnet80211.a(ieee80211_mesh_quick.o)
                              c:/Espressif/ESP8266_RTOS_SDK/lib\libnet80211.a(ieee80211_hostap.o) (ieee80211_mesh_quick_get)
c:/Espressif/ESP8266_RTOS_SDK/lib\libnet80211.a(ieee80211_output.o)
                              c:/Espressif/ESP8266_RTOS_SDK/lib\libpp.a(pm.o) (ieee80211_send_setup)
c:/Espressif/ESP8266_RTOS_SDK/lib\libnet80211.a(ieee80211_phy.o)
                              c:/Espressif/ESP8266_RTOS_SDK/lib\libmain.a(app_main.o) (ieee80211_phy_init)
c:/Espressif/ESP8266_RTOS_SDK/lib\libnet80211.a(ieee80211_power.o)
                              c:/Espressif/ESP8266_RTOS_SDK/lib\libnet80211.a(ieee80211_hostap.o) (ieee80211_psq_init)
c:/Espressif/ESP8266_RTOS_SDK/lib\libnet80211.a(ieee80211_proto.o)
                              c:/Espressif/ESP8266_RTOS_SDK/lib\libnet80211.a(ieee80211.o) (ieee80211_proto_attach)
c:/Espressif/ESP8266_RTOS_SDK/lib\libnet80211.a(ieee80211_rfid.o)
                              c:/Espressif/ESP8266_RTOS_SDK/lib\libmain.a(user_interface.o) (ieee80211_rfid_locp_recv_open)
c:/Espressif/ESP8266_RTOS_SDK/lib\libnet80211.a(ieee80211_scan.o)
                              c:/Espressif/ESP8266_RTOS_SDK/lib\libpp.a(pp.o) (gScanStruct)
c:/Espressif/ESP8266_RTOS_SDK/lib\libnet80211.a(ieee80211_sta.o)
                              c:/Espressif/ESP8266_RTOS_SDK/lib\libmain.a(user_interface.o) (ieee80211_sta_new_state)
c:/Espressif/ESP8266_RTOS_SDK/lib\libnet80211.a(wl_chm.o)
                              c:/Espressif/ESP8266_RTOS_SDK/lib\libnet80211.a(ieee80211.o) (chm_init)
c:/Espressif/ESP8266_RTOS_SDK/lib\libnet80211.a(wl_cnx.o)
                              c:/Espressif/ESP8266_RTOS_SDK/lib\libmain.a(user_interface.o) (sta_con_timer)
c:/Espressif/ESP8266_RTOS_SDK/lib\libnet80211.a(ieee80211_action.o)
                              c:/Espressif/ESP8266_RTOS_SDK/lib\libnet80211.a(ieee80211_ht.o) (ieee80211_send_action_register)
c:/Espressif/ESP8266_RTOS_SDK/lib\libnet80211.a(ieee80211_action_vendor.o)
                              c:/Espressif/ESP8266_RTOS_SDK/lib\libnet80211.a(ieee80211.o) (ieee80211_action_vendor_spec_attach)
c:/Espressif/ESP8266_RTOS_SDK/lib\libnet80211.a(ieee80211_crypto_ccmp.o)
                              c:/Espressif/ESP8266_RTOS_SDK/lib\libnet80211.a(ieee80211_input.o) (ccmp)
c:/Espressif/ESP8266_RTOS_SDK/lib\libnet80211.a(ieee80211_ie_vendor.o)
                              c:/Espressif/ESP8266_RTOS_SDK/lib\libnet80211.a(ieee80211_mesh_quick.o) (ieee80211_add_ie_vendor_esp_mesh_assoc)
c:/Espressif/ESP8266_RTOS_SDK/lib\libwpa.a(ap_config.o)
                              c:/Espressif/ESP8266_RTOS_SDK/lib\libnet80211.a(ieee80211_hostap.o) (hostapd_setup_wpa_psk)
c:/Espressif/ESP8266_RTOS_SDK/lib\libwpa.a(common.o)
                              c:/Espressif/ESP8266_RTOS_SDK/lib\libmain.a(user_interface.o) (hexstr2bin)
c:/Espressif/ESP8266_RTOS_SDK/lib\libwpa.a(os_xtensa.o)
                              c:/Espressif/ESP8266_RTOS_SDK/lib\libwpa.a(common.o) (os_get_time)
c:/Espressif/ESP8266_RTOS_SDK/lib\libwpa.a(wpa_auth.o)
                              c:/Espressif/ESP8266_RTOS_SDK/lib\libnet80211.a(ieee80211_hostap.o) (wpa_init)
c:/Espressif/ESP8266_RTOS_SDK/lib\libwpa.a(wpa_auth_ie.o)
                              c:/Espressif/ESP8266_RTOS_SDK/lib\libwpa.a(wpa_auth.o) (wpa_auth_gen_wpa_ie)
c:/Espressif/ESP8266_RTOS_SDK/lib\libwpa.a(wpa.o)
                              c:/Espressif/ESP8266_RTOS_SDK/lib\libnet80211.a(ieee80211_sta.o) (wpa_sm_rx_eapol)
c:/Espressif/ESP8266_RTOS_SDK/lib\libwpa.a(wpa_common.o)
                              c:/Espressif/ESP8266_RTOS_SDK/lib\libwpa.a(wpa_auth_ie.o) (wpa_parse_wpa_ie_rsn)
c:/Espressif/ESP8266_RTOS_SDK/lib\libwpa.a(wpa_debug.o)
                              c:/Espressif/ESP8266_RTOS_SDK/lib\libwpa.a(wpa_auth.o) (eloop_cancel_timeout)
c:/Espressif/ESP8266_RTOS_SDK/lib\libwpa.a(wpa_ie.o)
                              c:/Espressif/ESP8266_RTOS_SDK/lib\libnet80211.a(ieee80211_scan.o) (wpa_parse_wpa_ie)
c:/Espressif/ESP8266_RTOS_SDK/lib\libwpa.a(wpa_main.o)
                              c:/Espressif/ESP8266_RTOS_SDK/lib\libnet80211.a(wl_cnx.o) (ppInstallKey)
c:/Espressif/ESP8266_RTOS_SDK/lib\libwpa.a(wpas_glue.o)
                              c:/Espressif/ESP8266_RTOS_SDK/lib\libwpa.a(wpa.o) (wpa_sm_alloc_eapol)
c:/Espressif/ESP8266_RTOS_SDK/lib\libcrypto.a(aes-unwrap.o)
                              c:/Espressif/ESP8266_RTOS_SDK/lib\libwpa.a(wpa.o) (aes_unwrap)
c:/Espressif/ESP8266_RTOS_SDK/lib\libcrypto.a(aes-wrap.o)
                              c:/Espressif/ESP8266_RTOS_SDK/lib\libwpa.a(wpa_auth.o) (aes_wrap)
c:/Espressif/ESP8266_RTOS_SDK/lib\libcrypto.a(md5.o)
                              c:/Espressif/ESP8266_RTOS_SDK/lib\libwpa.a(wpa_common.o) (hmac_md5)
c:/Espressif/ESP8266_RTOS_SDK/lib\libcrypto.a(md5-internal.o)
                              c:/Espressif/ESP8266_RTOS_SDK/lib\libcrypto.a(md5.o) (md5_vector)
c:/Espressif/ESP8266_RTOS_SDK/lib\libcrypto.a(rc4.o)
                              c:/Espressif/ESP8266_RTOS_SDK/lib\libwpa.a(wpa_auth.o) (rc4_skip)
c:/Espressif/ESP8266_RTOS_SDK/lib\libcrypto.a(sha1.o)
                              c:/Espressif/ESP8266_RTOS_SDK/lib\libwpa.a(wpa_common.o) (hmac_sha1_vector)
c:/Espressif/ESP8266_RTOS_SDK/lib\libcrypto.a(sha1-internal.o)
                              c:/Espressif/ESP8266_RTOS_SDK/lib\libcrypto.a(sha1.o) (sha1_vector)
c:/Espressif/ESP8266_RTOS_SDK/lib\libcrypto.a(sha1-pbkdf2.o)
                              c:/Espressif/ESP8266_RTOS_SDK/lib\libmain.a(user_interface.o) (pbkdf2_sha1)
c:/Espressif/ESP8266_RTOS_SDK/lib\libcrypto.a(aes-internal-dec.o)
                              c:/Espressif/ESP8266_RTOS_SDK/lib\libcrypto.a(aes-unwrap.o) (aes_decrypt_init)
c:/Espressif/ESP8266_RTOS_SDK/lib\libcrypto.a(aes-internal-enc.o)
                              c:/Espressif/ESP8266_RTOS_SDK/lib\libcrypto.a(aes-wrap.o) (aes_encrypt_init)
c:/Espressif/ESP8266_RTOS_SDK/lib\libcrypto.a(aes-internal.o)
                              c:/Espressif/ESP8266_RTOS_SDK/lib\libcrypto.a(aes-internal-dec.o) (Te0)
c:/Espressif/ESP8266_RTOS_SDK/lib\libmain.a(routines.o)
                              build/app_app.a(user_main_sming.o) (abort)
c:/Espressif/ESP8266_RTOS_SDK/lib\liblwip.a(ethernetif.o)
                              c:/Espressif/ESP8266_RTOS_SDK/lib\libnet80211.a(ieee80211_hostap.o) (ethernetif_input)
c:/Espressif/ESP8266_RTOS_SDK/lib\liblwip.a(ethip6.o)
                              c:/Espressif/ESP8266_RTOS_SDK/lib\liblwip.a(ethernetif.o) (ethip6_output)
c:/Espressif/ESP8266_RTOS_SDK/lib\libmicrogcc.a(_ashrdi3.o)
                              c:/Espressif/ESP8266_RTOS_SDK/lib\libphy.a(phy_chip_v6.o) (__ashrdi3)
c:/Espressif/ESP8266_RTOS_SDK/lib\libmicrogcc.a(_divsf3.o)
                              c:/Espressif/ESP8266_RTOS_SDK/lib\libphy.a(phy_chip_v6_ana.o) (__divsf3)
c:/Espressif/ESP8266_RTOS_SDK/lib\libmicrogcc.a(_fixsfsi.o)
                              c:/Espressif/ESP8266_RTOS_SDK/lib\libphy.a(phy_chip_v6.o) (__fixsfsi)
c:/Espressif/ESP8266_RTOS_SDK/lib\libnet80211.a(ieee80211_crypto_tkip.o)
                              c:/Espressif/ESP8266_RTOS_SDK/lib\libwpa.a(wpa_auth.o) (tkip)
c:/Espressif/ESP8266_RTOS_SDK/lib\libnet80211.a(ieee80211_crypto_wep.o)
                              c:/Espressif/ESP8266_RTOS_SDK/lib\libwpa.a(wpa_auth.o) (wep)

Allocating common symbols
Common symbol       size              file

xUartTaskHandle     0x4               build/app_app.a(uart.o)
_filesystemStorageHandle
                    0x70              build/app_app.a(spiffs_sming.o)
xQueueUart          0x4               build/app_app.a(uart.o)

Discarded input sections

 .group         0x00000000       0x1c build/app_app.a(user_main_sming.o)
 .group         0x00000000       0x1c build/app_app.a(user_main_sming.o)
 .group         0x00000000       0x1c build/app_app.a(user_main_sming.o)
 .group         0x00000000       0x1c build/app_app.a(user_main_sming.o)
 .group         0x00000000       0x1c build/app_app.a(user_main_sming.o)
 .group         0x00000000       0x1c build/app_app.a(user_main_sming.o)
 .group         0x00000000       0x10 build/app_app.a(user_main_sming.o)
 .group         0x00000000       0x10 build/app_app.a(user_main_sming.o)
 .group         0x00000000       0x10 build/app_app.a(user_main_sming.o)
 .group         0x00000000       0x10 build/app_app.a(user_main_sming.o)
 .group         0x00000000       0x10 build/app_app.a(user_main_sming.o)
 .group         0x00000000       0x10 build/app_app.a(user_main_sming.o)
 .group         0x00000000       0x10 build/app_app.a(user_main_sming.o)
 .group         0x00000000       0x20 build/app_app.a(user_main_sming.o)
 .group         0x00000000       0x14 build/app_app.a(user_main_sming.o)
 .group         0x00000000       0x14 build/app_app.a(user_main_sming.o)
 .group         0x00000000       0x14 build/app_app.a(user_main_sming.o)
 .group         0x00000000        0xc build/app_app.a(user_main_sming.o)
 .group         0x00000000        0xc build/app_app.a(user_main_sming.o)
 .group         0x00000000        0xc build/app_app.a(user_main_sming.o)
 .group         0x00000000        0xc build/app_app.a(user_main_sming.o)
 .group         0x00000000        0xc build/app_app.a(user_main_sming.o)
 .group         0x00000000        0xc build/app_app.a(user_main_sming.o)
 .group         0x00000000        0xc build/app_app.a(user_main_sming.o)
 .group         0x00000000        0xc build/app_app.a(Temp_HardwareSerial.o)
 .group         0x00000000       0x10 build/app_app.a(Timer.o)
 .group         0x00000000        0xc build/app_app.a(WifiStation.o)
 .group         0x00000000       0x10 build/app_app.a(CQueue.o)
 .group         0x00000000       0x10 build/app_app.a(CQueue.o)
 .group         0x00000000        0xc build/app_app.a(CQueue.o)
 .group         0x00000000       0x10 build/app_app.a(CTask.o)
 .group         0x00000000       0x10 build/app_app.a(CTask.o)
 .group         0x00000000        0xc build/app_app.a(CTask.o)
 .group         0x00000000       0x14 build/app_app.a(Print.o)
 .group         0x00000000        0xc build/app_app.a(Print.o)
 .group         0x00000000       0x14 build/app_app.a(HttpResponse.o)
 .group         0x00000000       0x14 build/app_app.a(HttpResponse.o)
 .group         0x00000000        0xc build/app_app.a(HttpResponse.o)
 .group         0x00000000       0x10 build/app_app.a(HttpServer.o)
 .group         0x00000000       0x10 build/app_app.a(HttpServer.o)
 .group         0x00000000       0x1c build/app_app.a(HttpServer.o)
 .group         0x00000000       0x10 build/app_app.a(HttpServer.o)
 .group         0x00000000       0x20 build/app_app.a(HttpServer.o)
 .group         0x00000000       0x14 build/app_app.a(HttpServer.o)
 .group         0x00000000       0x14 build/app_app.a(HttpServer.o)
 .group         0x00000000       0x14 build/app_app.a(HttpServer.o)
 .group         0x00000000       0x14 build/app_app.a(HttpServer.o)
 .group         0x00000000       0x20 build/app_app.a(HttpServer.o)
 .group         0x00000000       0x14 build/app_app.a(HttpServer.o)
 .group         0x00000000       0x14 build/app_app.a(HttpServer.o)
 .group         0x00000000       0x14 build/app_app.a(HttpServer.o)
 .group         0x00000000       0x10 build/app_app.a(HttpServer.o)
 .group         0x00000000       0x14 build/app_app.a(HttpServer.o)
 .group         0x00000000       0x10 build/app_app.a(HttpServer.o)
 .group         0x00000000        0xc build/app_app.a(HttpServer.o)
 .group         0x00000000        0xc build/app_app.a(HttpServer.o)
 .group         0x00000000        0xc build/app_app.a(HttpServer.o)
 .group         0x00000000        0xc build/app_app.a(HttpServer.o)
 .literal._ZNK6VectorI6StringE5countEv
                0x00000000        0x0 build/app_app.a(HttpServer.o)
 .literal._ZN6VectorI6StringED5Ev
                0x00000000        0x0 build/app_app.a(HttpServer.o)
 .literal._ZN6VectorI6StringEixEj
                0x00000000        0x0 build/app_app.a(HttpServer.o)
 .literal._ZNK6VectorI6StringEixEj
                0x00000000        0x0 build/app_app.a(HttpServer.o)
 .text._ZNK6VectorI6StringE5countEv
                0x00000000        0x4 build/app_app.a(HttpServer.o)
 .text._ZN6VectorI6StringED2Ev
                0x00000000       0x62 build/app_app.a(HttpServer.o)
 .text._ZN6VectorI6StringED0Ev
                0x00000000       0x29 build/app_app.a(HttpServer.o)
 .text._ZN6VectorI6StringEixEj
                0x00000000       0x26 build/app_app.a(HttpServer.o)
 .text._ZNK6VectorI6StringEixEj
                0x00000000       0x26 build/app_app.a(HttpServer.o)
 .rodata._ZTV6VectorI6StringE
                0x00000000       0x1c build/app_app.a(HttpServer.o)
 .xt.lit._ZN6VectorI6StringED2Ev
                0x00000000        0x8 build/app_app.a(HttpServer.o)
 .xt.lit._ZN6VectorI6StringED0Ev
                0x00000000        0x8 build/app_app.a(HttpServer.o)
 .xt.lit._ZN6VectorI6StringEixEj
                0x00000000        0x8 build/app_app.a(HttpServer.o)
 .xt.lit._ZNK6VectorI6StringEixEj
                0x00000000        0x8 build/app_app.a(HttpServer.o)
 .xt.prop._ZNK6VectorI6StringE5countEv
                0x00000000       0x24 build/app_app.a(HttpServer.o)
 .xt.prop._ZN6VectorI6StringED2Ev
                0x00000000       0x48 build/app_app.a(HttpServer.o)
 .xt.prop._ZN6VectorI6StringED0Ev
                0x00000000       0x24 build/app_app.a(HttpServer.o)
 .xt.prop._ZN6VectorI6StringEixEj
                0x00000000       0x3c build/app_app.a(HttpServer.o)
 .xt.prop._ZNK6VectorI6StringEixEj
                0x00000000       0x30 build/app_app.a(HttpServer.o)
 .xt.prop._ZTV6VectorI6StringE
                0x00000000        0xc build/app_app.a(HttpServer.o)
 .group         0x00000000       0x10 build/app_app.a(HttpServerConnection.o)
 .group         0x00000000        0xc build/app_app.a(HttpServerConnection.o)
 .group         0x00000000       0x10 build/app_app.a(TcpClient.o)
 .group         0x00000000       0x10 build/app_app.a(TcpClient.o)
 .group         0x00000000        0xc build/app_app.a(TcpClient.o)
 .group         0x00000000       0x10 build/app_app.a(TcpConnection.o)
 .group         0x00000000        0xc build/app_app.a(TcpConnection.o)
 .group         0x00000000       0x1c build/app_app.a(TcpServer.o)
 .group         0x00000000       0x1c build/app_app.a(TcpServer.o)
 .group         0x00000000       0x10 build/app_app.a(TcpServer.o)
 .group         0x00000000       0x10 build/app_app.a(TcpServer.o)
 .group         0x00000000       0x10 build/app_app.a(TcpServer.o)
 .group         0x00000000       0x10 build/app_app.a(TcpServer.o)
 .group         0x00000000        0xc build/app_app.a(TcpServer.o)
 .group         0x00000000        0xc build/app_app.a(TcpServer.o)
 .group         0x00000000        0xc build/app_app.a(TcpServer.o)
 .literal._ZN8DelegateIFbR9TcpClientPciEE4copyERKS4_
                0x00000000        0x0 build/app_app.a(TcpServer.o)
 .literal._ZN8DelegateIFvR9TcpClientbEE4copyERKS3_
                0x00000000        0x0 build/app_app.a(TcpServer.o)
 .text._ZN8DelegateIFbR9TcpClientPciEE4copyERKS4_
                0x00000000       0x3c build/app_app.a(TcpServer.o)
 .text._ZN8DelegateIFvR9TcpClientbEE4copyERKS3_
                0x00000000       0x3c build/app_app.a(TcpServer.o)
 .xt.prop._ZN8DelegateIFbR9TcpClientPciEE4copyERKS4_
                0x00000000       0x24 build/app_app.a(TcpServer.o)
 .xt.prop._ZN8DelegateIFvR9TcpClientbEE4copyERKS3_
                0x00000000       0x24 build/app_app.a(TcpServer.o)
 .group         0x00000000        0xc build/app_app.a(TelnetServer.o)
 .group         0x00000000        0xc build/app_app.a(UdpConnection.o)
 .group         0x00000000        0xc build/app_app.a(WebSocket.o)
 .group         0x00000000       0x1c build/app_app.a(CommandHandler.o)
 .group         0x00000000       0x10 build/app_app.a(CommandHandler.o)
 .group         0x00000000       0x14 build/app_app.a(CommandHandler.o)
 .group         0x00000000       0x20 build/app_app.a(CommandHandler.o)
 .group         0x00000000       0x14 build/app_app.a(CommandHandler.o)
 .group         0x00000000       0x14 build/app_app.a(CommandHandler.o)
 .group         0x00000000       0x14 build/app_app.a(CommandHandler.o)
 .group         0x00000000       0x10 build/app_app.a(CommandHandler.o)
 .group         0x00000000       0x14 build/app_app.a(CommandHandler.o)
 .group         0x00000000       0x14 build/app_app.a(CommandHandler.o)
 .group         0x00000000       0x14 build/app_app.a(CommandHandler.o)
 .group         0x00000000       0x14 build/app_app.a(CommandHandler.o)
 .group         0x00000000       0x14 build/app_app.a(CommandHandler.o)
 .group         0x00000000       0x14 build/app_app.a(CommandHandler.o)
 .group         0x00000000        0xc build/app_app.a(CommandHandler.o)
 .group         0x00000000        0xc build/app_app.a(CommandHandler.o)
 .literal._ZNK6VectorI6StringE5countEv
                0x00000000        0x0 build/app_app.a(CommandHandler.o)
 .literal._ZN6VectorI6StringED5Ev
                0x00000000        0x0 build/app_app.a(CommandHandler.o)
 .literal._ZN6VectorI6StringEixEj
                0x00000000        0x0 build/app_app.a(CommandHandler.o)
 .literal._ZNK6VectorI6StringEixEj
                0x00000000        0x0 build/app_app.a(CommandHandler.o)
 .text._ZNK6VectorI6StringE5countEv
                0x00000000        0x4 build/app_app.a(CommandHandler.o)
 .text._ZN6VectorI6StringED2Ev
                0x00000000       0x62 build/app_app.a(CommandHandler.o)
 .text._ZN6VectorI6StringED0Ev
                0x00000000       0x29 build/app_app.a(CommandHandler.o)
 .text._ZN6VectorI6StringEixEj
                0x00000000       0x26 build/app_app.a(CommandHandler.o)
 .text._ZNK6VectorI6StringEixEj
                0x00000000       0x26 build/app_app.a(CommandHandler.o)
 .rodata._ZTV6VectorI6StringE
                0x00000000       0x1c build/app_app.a(CommandHandler.o)
 .xt.lit._ZN6VectorI6StringED2Ev
                0x00000000        0x8 build/app_app.a(CommandHandler.o)
 .xt.lit._ZN6VectorI6StringED0Ev
                0x00000000        0x8 build/app_app.a(CommandHandler.o)
 .xt.lit._ZN6VectorI6StringEixEj
                0x00000000        0x8 build/app_app.a(CommandHandler.o)
 .xt.lit._ZNK6VectorI6StringEixEj
                0x00000000        0x8 build/app_app.a(CommandHandler.o)
 .xt.prop._ZNK6VectorI6StringE5countEv
                0x00000000       0x24 build/app_app.a(CommandHandler.o)
 .xt.prop._ZN6VectorI6StringED2Ev
                0x00000000       0x48 build/app_app.a(CommandHandler.o)
 .xt.prop._ZN6VectorI6StringED0Ev
                0x00000000       0x24 build/app_app.a(CommandHandler.o)
 .xt.prop._ZN6VectorI6StringEixEj
                0x00000000       0x3c build/app_app.a(CommandHandler.o)
 .xt.prop._ZNK6VectorI6StringEixEj
                0x00000000       0x30 build/app_app.a(CommandHandler.o)
 .xt.prop._ZTV6VectorI6StringE
                0x00000000        0xc build/app_app.a(CommandHandler.o)
 .group         0x00000000        0xc build/app_app.a(CommandOutput.o)
 .group         0x00000000       0x10 build/app_app.a(DataSourceStream.o)
 .group         0x00000000       0x10 build/app_app.a(DataSourceStream.o)
 .group         0x00000000       0x10 build/app_app.a(DataSourceStream.o)
 .group         0x00000000       0x10 build/app_app.a(DataSourceStream.o)
 .group         0x00000000       0x14 build/app_app.a(DataSourceStream.o)
 .group         0x00000000       0x14 build/app_app.a(DataSourceStream.o)
 .group         0x00000000       0x14 build/app_app.a(DataSourceStream.o)
 .group         0x00000000       0x14 build/app_app.a(DataSourceStream.o)
 .group         0x00000000       0x14 build/app_app.a(DataSourceStream.o)
 .group         0x00000000        0xc build/app_app.a(DataSourceStream.o)
 .group         0x00000000        0xc build/app_app.a(DataSourceStream.o)
 .group         0x00000000        0xc build/app_app.a(DataSourceStream.o)
 .group         0x00000000        0xc build/app_app.a(DataSourceStream.o)
 .group         0x00000000        0xc build/app_app.a(DataSourceStream.o)
 .literal._ZNK7HashMapI6StringS0_E8containsES0_
                0x00000000        0x0 build/app_app.a(DataSourceStream.o)
 .literal._ZN7HashMapI6StringS0_E8allocateEi
                0x00000000        0x0 build/app_app.a(DataSourceStream.o)
 .text._ZNK7HashMapI6StringS0_E8containsES0_
                0x00000000       0x9f build/app_app.a(DataSourceStream.o)
 .text._ZN7HashMapI6StringS0_E8allocateEi
                0x00000000      0x10f build/app_app.a(DataSourceStream.o)
 .xt.lit._ZNK7HashMapI6StringS0_E8containsES0_
                0x00000000        0x8 build/app_app.a(DataSourceStream.o)
 .xt.lit._ZN7HashMapI6StringS0_E8allocateEi
                0x00000000        0x8 build/app_app.a(DataSourceStream.o)
 .xt.prop._ZNK7HashMapI6StringS0_E8containsES0_
                0x00000000       0x78 build/app_app.a(DataSourceStream.o)
 .xt.prop._ZN7HashMapI6StringS0_E8allocateEi
                0x00000000       0x78 build/app_app.a(DataSourceStream.o)
 .group         0x00000000       0x10 build/app_app.a(FileSystem.o)
 .group         0x00000000       0x20 build/app_app.a(FileSystem.o)
 .group         0x00000000       0x14 build/app_app.a(FileSystem.o)
 .group         0x00000000       0x14 build/app_app.a(FileSystem.o)
 .group         0x00000000        0xc build/app_app.a(FileSystem.o)
 .literal._ZNK6VectorI6StringE5countEv
                0x00000000        0x0 build/app_app.a(FileSystem.o)
 .literal._ZN6VectorI6StringED5Ev
                0x00000000        0x0 build/app_app.a(FileSystem.o)
 .literal._ZN6VectorI6StringEixEj
                0x00000000        0x0 build/app_app.a(FileSystem.o)
 .literal._ZNK6VectorI6StringEixEj
                0x00000000        0x0 build/app_app.a(FileSystem.o)
 .text._ZNK6VectorI6StringE5countEv
                0x00000000        0x4 build/app_app.a(FileSystem.o)
 .text._ZN6VectorI6StringED2Ev
                0x00000000       0x62 build/app_app.a(FileSystem.o)
 .text._ZN6VectorI6StringED0Ev
                0x00000000       0x29 build/app_app.a(FileSystem.o)
 .text._ZN6VectorI6StringEixEj
                0x00000000       0x26 build/app_app.a(FileSystem.o)
 .text._ZNK6VectorI6StringEixEj
                0x00000000       0x26 build/app_app.a(FileSystem.o)
 .rodata._ZTV6VectorI6StringE
                0x00000000       0x1c build/app_app.a(FileSystem.o)
 .xt.lit._ZN6VectorI6StringED2Ev
                0x00000000        0x8 build/app_app.a(FileSystem.o)
 .xt.lit._ZN6VectorI6StringED0Ev
                0x00000000        0x8 build/app_app.a(FileSystem.o)
 .xt.lit._ZN6VectorI6StringEixEj
                0x00000000        0x8 build/app_app.a(FileSystem.o)
 .xt.lit._ZNK6VectorI6StringEixEj
                0x00000000        0x8 build/app_app.a(FileSystem.o)
 .xt.prop._ZNK6VectorI6StringE5countEv
                0x00000000       0x24 build/app_app.a(FileSystem.o)
 .xt.prop._ZN6VectorI6StringED2Ev
                0x00000000       0x48 build/app_app.a(FileSystem.o)
 .xt.prop._ZN6VectorI6StringED0Ev
                0x00000000       0x24 build/app_app.a(FileSystem.o)
 .xt.prop._ZN6VectorI6StringEixEj
                0x00000000       0x3c build/app_app.a(FileSystem.o)
 .xt.prop._ZNK6VectorI6StringEixEj
                0x00000000       0x30 build/app_app.a(FileSystem.o)
 .xt.prop._ZTV6VectorI6StringE
                0x00000000        0xc build/app_app.a(FileSystem.o)
 .group         0x00000000       0x14 build/app_app.a(SplitString.o)
 .group         0x00000000       0x14 build/app_app.a(SplitString.o)
 .group         0x00000000       0x14 build/app_app.a(SplitString.o)
 .group         0x00000000       0x14 build/app_app.a(HttpRequest.o)
 .group         0x00000000       0x14 build/app_app.a(HttpRequest.o)
 .group         0x00000000       0x14 build/app_app.a(HttpRequest.o)
 .group         0x00000000       0x14 build/app_app.a(HttpRequest.o)
 .group         0x00000000       0x14 build/app_app.a(HttpRequest.o)
 .group         0x00000000        0xc build/app_app.a(HttpRequest.o)
 .literal._ZNK7HashMapI6StringS0_E8containsES0_
                0x00000000        0x0 build/app_app.a(HttpRequest.o)
 .literal._ZN7HashMapI6StringS0_E8allocateEi
                0x00000000        0x0 build/app_app.a(HttpRequest.o)
 .literal._ZN7HashMapI6StringS0_EixES0_
                0x00000000        0x0 build/app_app.a(HttpRequest.o)
 .text._ZNK7HashMapI6StringS0_E8containsES0_
                0x00000000       0x9f build/app_app.a(HttpRequest.o)
 .text._ZN7HashMapI6StringS0_E8allocateEi
                0x00000000      0x10f build/app_app.a(HttpRequest.o)
 .text._ZN7HashMapI6StringS0_EixES0_
                0x00000000      0x163 build/app_app.a(HttpRequest.o)
 .xt.lit._ZNK7HashMapI6StringS0_E8containsES0_
                0x00000000        0x8 build/app_app.a(HttpRequest.o)
 .xt.lit._ZN7HashMapI6StringS0_E8allocateEi
                0x00000000        0x8 build/app_app.a(HttpRequest.o)
 .xt.lit._ZN7HashMapI6StringS0_EixES0_
                0x00000000        0x8 build/app_app.a(HttpRequest.o)
 .xt.prop._ZNK7HashMapI6StringS0_E8containsES0_
                0x00000000       0x78 build/app_app.a(HttpRequest.o)
 .xt.prop._ZN7HashMapI6StringS0_E8allocateEi
                0x00000000       0x78 build/app_app.a(HttpRequest.o)
 .xt.prop._ZN7HashMapI6StringS0_EixES0_
                0x00000000       0x84 build/app_app.a(HttpRequest.o)
 .group         0x00000000       0x14 build/app_app.a(ArduinoJson.o)
 .group         0x00000000       0x10 build/app_app.a(ArduinoJson.o)
 .group         0x00000000       0x14 build/app_app.a(ArduinoJson.o)
 .group         0x00000000       0x10 build/app_app.a(ArduinoJson.o)
 .group         0x00000000       0x10 build/app_app.a(ArduinoJson.o)
 .group         0x00000000       0x10 build/app_app.a(ArduinoJson.o)
 .group         0x00000000       0x10 build/app_app.a(ArduinoJson.o)
 .group         0x00000000       0x10 build/app_app.a(ArduinoJson.o)
 .group         0x00000000       0x10 build/app_app.a(ArduinoJson.o)
 .group         0x00000000       0x10 build/app_app.a(ArduinoJson.o)
 .group         0x00000000       0x10 build/app_app.a(ArduinoJson.o)
 .group         0x00000000       0x14 build/app_app.a(ArduinoJson.o)
 .group         0x00000000       0x10 build/app_app.a(ArduinoJson.o)
 .group         0x00000000       0x10 build/app_app.a(ArduinoJson.o)
 .group         0x00000000       0x10 build/app_app.a(ArduinoJson.o)
 .group         0x00000000       0x10 build/app_app.a(ArduinoJson.o)
 .group         0x00000000       0x10 build/app_app.a(ArduinoJson.o)
 .group         0x00000000       0x10 build/app_app.a(ArduinoJson.o)
 .group         0x00000000       0x10 build/app_app.a(ArduinoJson.o)
 .group         0x00000000       0x10 build/app_app.a(ArduinoJson.o)
 .group         0x00000000       0x14 build/app_app.a(ArduinoJson.o)
 .group         0x00000000       0x10 build/app_app.a(ArduinoJson.o)
 .group         0x00000000       0x14 build/app_app.a(ArduinoJson.o)
 .group         0x00000000       0x14 build/app_app.a(ArduinoJson.o)
 .group         0x00000000       0x14 build/app_app.a(ArduinoJson.o)
 .group         0x00000000       0x14 build/app_app.a(ArduinoJson.o)
 .group         0x00000000       0x14 build/app_app.a(ArduinoJson.o)
 .group         0x00000000       0x14 build/app_app.a(ArduinoJson.o)
 .group         0x00000000        0xc build/app_app.a(ArduinoJson.o)
 .group         0x00000000        0xc build/app_app.a(ArduinoJson.o)
 .group         0x00000000        0xc build/app_app.a(ArduinoJson.o)
 .group         0x00000000        0xc build/app_app.a(ArduinoJson.o)

Memory Configuration

Name             Origin             Length             Attributes
dport0_0_seg     0x3ff00000         0x00000010
dram0_0_seg      0x3ffe8000         0x00018000
iram1_0_seg      0x40100000         0x00008000
irom0_0_seg      0x40209000         0x00052000
*default*        0x00000000         0xffffffff

Linker script and memory map

START GROUP
LOAD c:/Espressif/ESP8266_RTOS_SDK/lib\libmicroc.a
LOAD c:/Espressif/ESP8266_RTOS_SDK/lib\libmicrogcc.a
LOAD c:/Espressif/ESP8266_RTOS_SDK/lib\libgcc.a
LOAD c:/espressif/xtensa-lx106-elf/bin/../lib/gcc/xtensa-lx106-elf/5.1.0/../../../../xtensa-lx106-elf/lib\libhal.a
LOAD c:/Espressif/ESP8266_RTOS_SDK/lib\libphy.a
LOAD c:/Espressif/ESP8266_RTOS_SDK/lib\libpp.a
LOAD c:/Espressif/ESP8266_RTOS_SDK/lib\libnet80211.a
LOAD c:/Espressif/ESP8266_RTOS_SDK/lib\libwpa.a
LOAD c:/Espressif/ESP8266_RTOS_SDK/lib\libcrypto.a
LOAD c:/Espressif/ESP8266_RTOS_SDK/lib\libmain.a
LOAD c:/Espressif/ESP8266_RTOS_SDK/lib\libfreertos.a
LOAD c:/Espressif/ESP8266_RTOS_SDK/lib\liblwip.a
LOAD c:/Espressif/ESP8266_RTOS_SDK/lib\libminic.a
LOAD build/app_app.a
END GROUP
                0x40000000                PROVIDE (_memmap_vecbase_reset, 0x40000000)
                0x00000110                _memmap_cacheattr_wb_base = 0x110
                0x00000110                _memmap_cacheattr_wt_base = 0x110
                0x00000220                _memmap_cacheattr_bp_base = 0x220
                0xfffff00f                _memmap_cacheattr_unused_mask = 0xfffff00f
                0x2222211f                _memmap_cacheattr_wb_trapnull = 0x2222211f
                0x2222211f                _memmap_cacheattr_wba_trapnull = 0x2222211f
                0x2222211f                _memmap_cacheattr_wbna_trapnull = 0x2222211f
                0x2222211f                _memmap_cacheattr_wt_trapnull = 0x2222211f
                0x2222222f                _memmap_cacheattr_bp_trapnull = 0x2222222f
                0xfffff11f                _memmap_cacheattr_wb_strict = 0xfffff11f
                0xfffff11f                _memmap_cacheattr_wt_strict = 0xfffff11f
                0xfffff22f                _memmap_cacheattr_bp_strict = 0xfffff22f
                0x22222112                _memmap_cacheattr_wb_allvalid = 0x22222112
                0x22222112                _memmap_cacheattr_wt_allvalid = 0x22222112
                0x22222222                _memmap_cacheattr_bp_allvalid = 0x22222222
                0x2222211f                PROVIDE (_memmap_cacheattr_reset, _memmap_cacheattr_wb_trapnull)

.dport0.rodata  0x3ff00000        0x0
                0x3ff00000                _dport0_rodata_start = ABSOLUTE (.)
 *(.dport0.rodata)
 *(.dport.rodata)
                0x3ff00000                _dport0_rodata_end = ABSOLUTE (.)

.dport0.literal
                0x3ff00000        0x0
                0x3ff00000                _dport0_literal_start = ABSOLUTE (.)
 *(.dport0.literal)
 *(.dport.literal)
                0x3ff00000                _dport0_literal_end = ABSOLUTE (.)

.dport0.data    0x3ff00000        0x0
                0x3ff00000                _dport0_data_start = ABSOLUTE (.)
 *(.dport0.data)
 *(.dport.data)
                0x3ff00000                _dport0_data_end = ABSOLUTE (.)

.data           0x3ffe8000      0x3a4
                0x3ffe8000                _data_start = ABSOLUTE (.)
 *(.data)
 .data          0x3ffe8000        0x8 c:/Espressif/ESP8266_RTOS_SDK/lib\libmain.a(xtensa_vectors.o)
                0x3ffe8000                _Pri_3_HandlerAddress
                0x3ffe8004                _Pri_3_NMICount
 .data          0x3ffe8008        0x2 c:/Espressif/ESP8266_RTOS_SDK/lib\libmain.a(app_main.o)
                0x3ffe8009                init_hw_wdt
 .data          0x3ffe800a        0x0 c:/Espressif/ESP8266_RTOS_SDK/lib\libmain.a(ets_timer.o)
 *fill*         0x3ffe800a        0x2 
 .data          0x3ffe800c        0x4 c:/Espressif/ESP8266_RTOS_SDK/lib\libmain.a(misc.o)
 .data          0x3ffe8010        0x0 c:/Espressif/ESP8266_RTOS_SDK/lib\libmain.a(printf-stdarg.o)
 .data          0x3ffe8010       0x18 c:/Espressif/ESP8266_RTOS_SDK/lib\libmain.a(spi_flash.o)
                0x3ffe8010                flashchip
 .data          0x3ffe8028        0x0 c:/Espressif/ESP8266_RTOS_SDK/lib\libmain.a(uart.o)
 .data          0x3ffe8028        0x3 c:/Espressif/ESP8266_RTOS_SDK/lib\libmain.a(user_interface.o)
                0x3ffe8028                dhcps_flag
                0x3ffe8029                dhcpc_flag
                0x3ffe802a                reconnect_internal
 .data          0x3ffe802b        0x0 c:/Espressif/ESP8266_RTOS_SDK/lib\libmain.a(os_cpu_a.o)
 .data          0x3ffe802b        0x0 c:/Espressif/ESP8266_RTOS_SDK/lib\libmain.a(xtensa_context.o)
 .data          0x3ffe802b        0x0 c:/Espressif/ESP8266_RTOS_SDK/lib\libfreertos.a(heap_4.o)
 .data          0x3ffe802b        0x0 c:/Espressif/ESP8266_RTOS_SDK/lib\libfreertos.a(port.o)
 .data          0x3ffe802b        0x0 c:/Espressif/ESP8266_RTOS_SDK/lib\libfreertos.a(queue.o)
 *fill*         0x3ffe802b        0x1 
 .data          0x3ffe802c        0x4 c:/Espressif/ESP8266_RTOS_SDK/lib\libfreertos.a(tasks.o)
 .data          0x3ffe8030        0x0 c:/Espressif/ESP8266_RTOS_SDK/lib\libfreertos.a(timers.o)
 .data          0x3ffe8030        0x0 c:/Espressif/ESP8266_RTOS_SDK/lib\libfreertos.a(list.o)
 .data          0x3ffe8030        0x0 c:/Espressif/ESP8266_RTOS_SDK/lib\liblwip.a(dhcp.o)
 .data          0x3ffe8030        0x5 c:/Espressif/ESP8266_RTOS_SDK/lib\liblwip.a(dhcpserver.o)
                0x3ffe8030                dhcps_lease_time
 .data          0x3ffe8035        0x0 c:/Espressif/ESP8266_RTOS_SDK/lib\liblwip.a(dns.o)
 .data          0x3ffe8035        0x0 c:/Espressif/ESP8266_RTOS_SDK/lib\liblwip.a(etharp.o)
 .data          0x3ffe8035        0x0 c:/Espressif/ESP8266_RTOS_SDK/lib\liblwip.a(ip4_addr.o)
 .data          0x3ffe8035        0x0 c:/Espressif/ESP8266_RTOS_SDK/lib\liblwip.a(ip4.o)
 .data          0x3ffe8035        0x0 c:/Espressif/ESP8266_RTOS_SDK/lib\liblwip.a(ip6.o)
 .data          0x3ffe8035        0x0 c:/Espressif/ESP8266_RTOS_SDK/lib\liblwip.a(memp.o)
 .data          0x3ffe8035        0x0 c:/Espressif/ESP8266_RTOS_SDK/lib\liblwip.a(mld6.o)
 *fill*         0x3ffe8035        0x3 
 .data          0x3ffe8038        0x8 c:/Espressif/ESP8266_RTOS_SDK/lib\liblwip.a(nd6.o)
                0x3ffe8038                reachable_time
                0x3ffe803c                retrans_timer
 .data          0x3ffe8040        0x0 c:/Espressif/ESP8266_RTOS_SDK/lib\liblwip.a(netif.o)
 .data          0x3ffe8040        0x0 c:/Espressif/ESP8266_RTOS_SDK/lib\liblwip.a(pbuf.o)
 .data          0x3ffe8040        0x0 c:/Espressif/ESP8266_RTOS_SDK/lib\liblwip.a(raw.o)
 .data          0x3ffe8040        0x0 c:/Espressif/ESP8266_RTOS_SDK/lib\liblwip.a(sys_arch.o)
 .data          0x3ffe8040        0x0 c:/Espressif/ESP8266_RTOS_SDK/lib\liblwip.a(tcp_in.o)
 .data          0x3ffe8040        0x0 c:/Espressif/ESP8266_RTOS_SDK/lib\liblwip.a(tcpip.o)
 .data          0x3ffe8040        0x8 c:/Espressif/ESP8266_RTOS_SDK/lib\liblwip.a(tcp.o)
 .data          0x3ffe8048        0x0 c:/Espressif/ESP8266_RTOS_SDK/lib\liblwip.a(tcp_out.o)
 .data          0x3ffe8048        0x0 c:/Espressif/ESP8266_RTOS_SDK/lib\liblwip.a(timers.o)
 .data          0x3ffe8048        0x2 c:/Espressif/ESP8266_RTOS_SDK/lib\liblwip.a(udp.o)
 .data          0x3ffe804a        0x0 c:/Espressif/ESP8266_RTOS_SDK/lib\liblwip.a(api_msg.o)
 .data          0x3ffe804a        0x0 c:/Espressif/ESP8266_RTOS_SDK/lib\liblwip.a(icmp6.o)
 .data          0x3ffe804a        0x0 c:/Espressif/ESP8266_RTOS_SDK/lib\liblwip.a(icmp.o)
 .data          0x3ffe804a        0x0 c:/Espressif/ESP8266_RTOS_SDK/lib\liblwip.a(inet_chksum.o)
 .data          0x3ffe804a        0x0 c:/Espressif/ESP8266_RTOS_SDK/lib\liblwip.a(init.o)
 .data          0x3ffe804a        0x0 c:/Espressif/ESP8266_RTOS_SDK/lib\liblwip.a(ip6_addr.o)
 .data          0x3ffe804a        0x0 c:/Espressif/ESP8266_RTOS_SDK/lib\liblwip.a(ip6_frag.o)
 .data          0x3ffe804a        0x0 c:/Espressif/ESP8266_RTOS_SDK/lib\liblwip.a(netbuf.o)
 .data          0x3ffe804a        0x0 c:/Espressif/ESP8266_RTOS_SDK/lib\liblwip.a(sockets.o)
 .data          0x3ffe804a        0x0 c:/Espressif/ESP8266_RTOS_SDK/lib\liblwip.a(api_lib.o)
 *fill*         0x3ffe804a        0x2 
 .data          0x3ffe804c        0x4 c:/Espressif/ESP8266_RTOS_SDK/lib\libminic.a(minic.o)
                0x3ffe804c                __ctype_ptr__
 .data          0x3ffe8050        0x0 build/app_app.a(user_main_sming.o)
 .data          0x3ffe8050        0x0 build/app_app.a(Digital.o)
 .data          0x3ffe8050        0x0 build/app_app.a(Temp_HardwareSerial.o)
 .data          0x3ffe8050        0x0 build/app_app.a(Timer.o)
 .data          0x3ffe8050        0x0 build/app_app.a(WifiStation.o)
 .data          0x3ffe8050        0x0 build/app_app.a(CQueue.o)
 .data          0x3ffe8050        0x0 build/app_app.a(CTask.o)
 .data          0x3ffe8050        0x0 build/app_app.a(IPAddress.o)
 .data          0x3ffe8050        0x0 build/app_app.a(Print.o)
 .data          0x3ffe8050        0x0 build/app_app.a(WString.o)
 .data          0x3ffe8050        0x0 build/app_app.a(HttpResponse.o)
 .data          0x3ffe8050        0x0 build/app_app.a(HttpServer.o)
 .data          0x3ffe8050        0x0 build/app_app.a(HttpServerConnection.o)
 .data          0x3ffe8050        0x0 build/app_app.a(TcpClient.o)
 .data          0x3ffe8050        0x0 build/app_app.a(TcpConnection.o)
 .data          0x3ffe8050        0x0 build/app_app.a(TcpServer.o)
 .data          0x3ffe8050        0x0 build/app_app.a(TelnetServer.o)
 .data          0x3ffe8050        0x0 build/app_app.a(UdpConnection.o)
 .data          0x3ffe8050        0x0 build/app_app.a(WebSocket.o)
 .data          0x3ffe8050        0x0 build/app_app.a(CommandExecutor.o)
 .data          0x3ffe8050        0x0 build/app_app.a(CommandHandler.o)
 .data          0x3ffe8050        0x0 build/app_app.a(CommandOutput.o)
 .data          0x3ffe8050        0x0 build/app_app.a(base64.o)
 .data          0x3ffe8050        0x0 build/app_app.a(websocket.o)
 .data          0x3ffe8050        0x0 build/app_app.a(m_printf.o)
 .data          0x3ffe8050        0x0 build/app_app.a(uart.o)
 .data          0x3ffe8050        0x0 build/app_app.a(DataSourceStream.o)
 .data          0x3ffe8050        0x0 build/app_app.a(FileSystem.o)
 .data          0x3ffe8050        0x0 build/app_app.a(SystemClock.o)
 .data          0x3ffe8050        0x0 build/app_app.a(stringconversion.o)
 .data          0x3ffe8050        0x0 build/app_app.a(SplitString.o)
 .data          0x3ffe8050        0x0 build/app_app.a(RTC.o)
 .data          0x3ffe8050        0x0 build/app_app.a(HttpRequest.o)
 .data          0x3ffe8050        0x0 build/app_app.a(NetUtils.o)
 .data          0x3ffe8050        0x0 build/app_app.a(ArduinoJson.o)
 .data          0x3ffe8050        0x0 build/app_app.a(CommandDelegate.o)
 .data          0x3ffe8050        0x0 build/app_app.a(DateTime.o)
 .data          0x3ffe8050        0x0 build/app_app.a(spiffs_hydrogen.o)
 .data          0x3ffe8050        0x0 build/app_app.a(spiffs_nucleus.o)
 .data          0x3ffe8050        0x0 build/app_app.a(spiffs_sming.o)
 .data          0x3ffe8050        0x0 build/app_app.a(escape.o)
 .data          0x3ffe8050        0x0 build/app_app.a(flashmem.o)
 .data          0x3ffe8050        0x0 build/app_app.a(spiffs_cache.o)
 .data          0x3ffe8050        0x0 build/app_app.a(spiffs_check.o)
 .data          0x3ffe8050        0x0 build/app_app.a(spiffs_gc.o)
 .data          0x3ffe8050        0x0 c:/Espressif/ESP8266_RTOS_SDK/lib\libmicroc.a(isprint.o)
 .data          0x3ffe8050        0x0 c:/Espressif/ESP8266_RTOS_SDK/lib\libmicroc.a(isspace.o)
 .data          0x3ffe8050        0x0 c:/Espressif/ESP8266_RTOS_SDK/lib\libmicroc.a(tolower.o)
 .data          0x3ffe8050        0x0 c:/Espressif/ESP8266_RTOS_SDK/lib\libmicroc.a(toupper.o)
 .data          0x3ffe8050        0x0 c:/Espressif/ESP8266_RTOS_SDK/lib\libmicroc.a(isxdigit.o)
 .data          0x3ffe8050        0x0 c:/Espressif/ESP8266_RTOS_SDK/lib\libmicroc.a(atof.o)
 .data          0x3ffe8050        0x0 c:/Espressif/ESP8266_RTOS_SDK/lib\libmicroc.a(strtod.o)
 .data          0x3ffe8050        0x0 c:/Espressif/ESP8266_RTOS_SDK/lib\libmicroc.a(__fpclassify.o)
 .data          0x3ffe8050        0x0 c:/Espressif/ESP8266_RTOS_SDK/lib\libmicroc.a(memchr.o)
 .data          0x3ffe8050        0x0 c:/Espressif/ESP8266_RTOS_SDK/lib\libmicroc.a(__errno_location.o)
 .data          0x3ffe8050        0x0 c:/Espressif/ESP8266_RTOS_SDK/lib\libmicroc.a(floatscan.o)
 .data          0x3ffe8050        0x0 c:/Espressif/ESP8266_RTOS_SDK/lib\libmicroc.a(shgetc.o)
 .data          0x3ffe8050        0x0 c:/Espressif/ESP8266_RTOS_SDK/lib\libmicroc.a(__uflow.o)
 .data          0x3ffe8050        0x0 c:/Espressif/ESP8266_RTOS_SDK/lib\libmicroc.a(__toread.o)
 .data          0x3ffe8050        0x0 c:/Espressif/ESP8266_RTOS_SDK/lib\libmicroc.a(__stdio_exit.o)
 .data          0x3ffe8050        0x0 c:/Espressif/ESP8266_RTOS_SDK/lib\libmicroc.a(fmodl.o)
 .data          0x3ffe8050        0x0 c:/Espressif/ESP8266_RTOS_SDK/lib\libmicroc.a(scalbn.o)
 .data          0x3ffe8050        0x0 c:/Espressif/ESP8266_RTOS_SDK/lib\libmicroc.a(scalbnl.o)
 .data          0x3ffe8050        0x0 c:/Espressif/ESP8266_RTOS_SDK/lib\libmicroc.a(fmod.o)
 .data          0x3ffe8050        0x0 c:/Espressif/ESP8266_RTOS_SDK/lib\libmicrogcc.a(_ashldi3.o)
 .data          0x3ffe8050        0x0 c:/Espressif/ESP8266_RTOS_SDK/lib\libmicrogcc.a(_cmpdf2.o)
 .data          0x3ffe8050        0x0 c:/Espressif/ESP8266_RTOS_SDK/lib\libmicrogcc.a(_lshrdi3.o)
 .data          0x3ffe8050        0x0 c:/Espressif/ESP8266_RTOS_SDK/lib\libmicrogcc.a(_modsi3.o)
 .data          0x3ffe8050        0x0 c:/Espressif/ESP8266_RTOS_SDK/lib\libgcc.a(_mulsf3.o)
 .data          0x3ffe8050        0x0 c:/espressif/xtensa-lx106-elf/bin/../lib/gcc/xtensa-lx106-elf/5.1.0/../../../../xtensa-lx106-elf/lib\libhal.a(clock.o)
 .data          0x3ffe8050        0x0 c:/espressif/xtensa-lx106-elf/bin/../lib/gcc/xtensa-lx106-elf/5.1.0/../../../../xtensa-lx106-elf/lib\libhal.a(int_asm--set_intset.o)
 .data          0x3ffe8050        0x0 c:/Espressif/ESP8266_RTOS_SDK/lib\libphy.a(phy.o)
 .data          0x3ffe8050        0x0 c:/Espressif/ESP8266_RTOS_SDK/lib\libphy.a(phy_chip_v6_ana.o)
 .data          0x3ffe8050       0x53 c:/Espressif/ESP8266_RTOS_SDK/lib\libphy.a(phy_chip_v6.o)
                0x3ffe8052                tx_rf_ana_gain
                0x3ffe8080                rx_gain_swp
                0x3ffe80a0                test_rffreq_txcap
 .data          0x3ffe80a3        0x0 c:/Espressif/ESP8266_RTOS_SDK/lib\libphy.a(phy_chip_v6_cal.o)
 .data          0x3ffe80a3        0x0 c:/Espressif/ESP8266_RTOS_SDK/lib\libphy.a(phy_chip_v6_unused.o)
 *fill*         0x3ffe80a3        0x1 
 .data          0x3ffe80a4        0x4 c:/Espressif/ESP8266_RTOS_SDK/lib\libphy.a(phy_sleep.o)
                0x3ffe80a4                chip_version
 .data          0x3ffe80a8        0x4 c:/Espressif/ESP8266_RTOS_SDK/lib\libphy.a(phy_chip_v5_romfunc.o)
                0x3ffe80a8                g_phyFuns
 .data          0x3ffe80ac        0x0 c:/Espressif/ESP8266_RTOS_SDK/lib\libphy.a(phy_chip_v5_ana_romfunc.o)
 *fill*         0x3ffe80ac        0x4 
 .data          0x3ffe80b0        0x7 c:/Espressif/ESP8266_RTOS_SDK/lib\libphy.a(phy_chip_v5_cal_romfunc.o)
 .data          0x3ffe80b7        0x0 c:/Espressif/ESP8266_RTOS_SDK/lib\libpp.a(if_hwctrl.o)
 .data          0x3ffe80b7        0x0 c:/Espressif/ESP8266_RTOS_SDK/lib\libpp.a(lmac.o)
 *fill*         0x3ffe80b7        0x1 
 .data          0x3ffe80b8        0x1 c:/Espressif/ESP8266_RTOS_SDK/lib\libpp.a(pm.o)
 *fill*         0x3ffe80b9        0x3 
 .data          0x3ffe80bc        0x1 c:/Espressif/ESP8266_RTOS_SDK/lib\libpp.a(pm_for_bcn_only_mode.o)
 *fill*         0x3ffe80bd        0x3 
 .data          0x3ffe80c0       0x11 c:/Espressif/ESP8266_RTOS_SDK/lib\libpp.a(pp.o)
                0x3ffe80c0                NoiseTimerInterval
                0x3ffe80c8                sleep_start_wait_time
                0x3ffe80d0                CanDoFreqCal
 *fill*         0x3ffe80d1        0xf 
 .data          0x3ffe80e0       0x40 c:/Espressif/ESP8266_RTOS_SDK/lib\libpp.a(rate_control.o)
 .data          0x3ffe8120      0x24c c:/Espressif/ESP8266_RTOS_SDK/lib\libpp.a(trc.o)
 .data          0x3ffe836c        0xc c:/Espressif/ESP8266_RTOS_SDK/lib\libpp.a(wdev.o)
                0x3ffe8374                WDEV_INTEREST_EVENT
 .data          0x3ffe8378        0x0 c:/Espressif/ESP8266_RTOS_SDK/lib\libpp.a(esf_buf.o)
 .data          0x3ffe8378        0x0 c:/Espressif/ESP8266_RTOS_SDK/lib\libnet80211.a(ieee80211.o)
 .data          0x3ffe8378        0x0 c:/Espressif/ESP8266_RTOS_SDK/lib\libnet80211.a(ieee80211_crypto.o)
 .data          0x3ffe8378        0x0 c:/Espressif/ESP8266_RTOS_SDK/lib\libnet80211.a(ieee80211_ets.o)
 .data          0x3ffe8378        0x1 c:/Espressif/ESP8266_RTOS_SDK/lib\libnet80211.a(ieee80211_hostap.o)
                0x3ffe8378                TmpSTAAPCloseAP
 .data          0x3ffe8379        0x0 c:/Espressif/ESP8266_RTOS_SDK/lib\libnet80211.a(ieee80211_ht.o)
 .data          0x3ffe8379        0x0 c:/Espressif/ESP8266_RTOS_SDK/lib\libnet80211.a(ieee80211_input.o)
 .data          0x3ffe8379        0x0 c:/Espressif/ESP8266_RTOS_SDK/lib\libnet80211.a(ieee80211_mesh_quick.o)
 .data          0x3ffe8379        0x0 c:/Espressif/ESP8266_RTOS_SDK/lib\libnet80211.a(ieee80211_output.o)
 .data          0x3ffe8379        0x0 c:/Espressif/ESP8266_RTOS_SDK/lib\libnet80211.a(ieee80211_phy.o)
 .data          0x3ffe8379        0x0 c:/Espressif/ESP8266_RTOS_SDK/lib\libnet80211.a(ieee80211_power.o)
 .data          0x3ffe8379        0x0 c:/Espressif/ESP8266_RTOS_SDK/lib\libnet80211.a(ieee80211_proto.o)
 .data          0x3ffe8379        0x0 c:/Espressif/ESP8266_RTOS_SDK/lib\libnet80211.a(ieee80211_rfid.o)
 .data          0x3ffe8379        0x0 c:/Espressif/ESP8266_RTOS_SDK/lib\libnet80211.a(ieee80211_scan.o)
 .data          0x3ffe8379        0x0 c:/Espressif/ESP8266_RTOS_SDK/lib\libnet80211.a(ieee80211_sta.o)
 .data          0x3ffe8379        0x0 c:/Espressif/ESP8266_RTOS_SDK/lib\libnet80211.a(wl_chm.o)
 *fill*         0x3ffe8379        0x3 
 .data          0x3ffe837c        0x1 c:/Espressif/ESP8266_RTOS_SDK/lib\libnet80211.a(wl_cnx.o)
 *fill*         0x3ffe837d        0x3 
 .data          0x3ffe8380       0x1c c:/Espressif/ESP8266_RTOS_SDK/lib\libnet80211.a(ieee80211_action.o)
 .data          0x3ffe839c        0x0 c:/Espressif/ESP8266_RTOS_SDK/lib\libnet80211.a(ieee80211_action_vendor.o)
 .data          0x3ffe839c        0x0 c:/Espressif/ESP8266_RTOS_SDK/lib\libnet80211.a(ieee80211_crypto_ccmp.o)
 .data          0x3ffe839c        0x0 c:/Espressif/ESP8266_RTOS_SDK/lib\libnet80211.a(ieee80211_ie_vendor.o)
 .data          0x3ffe839c        0x0 c:/Espressif/ESP8266_RTOS_SDK/lib\libwpa.a(ap_config.o)
 .data          0x3ffe839c        0x0 c:/Espressif/ESP8266_RTOS_SDK/lib\libwpa.a(common.o)
 .data          0x3ffe839c        0x0 c:/Espressif/ESP8266_RTOS_SDK/lib\libwpa.a(os_xtensa.o)
 .data          0x3ffe839c        0x0 c:/Espressif/ESP8266_RTOS_SDK/lib\libwpa.a(wpa_auth.o)
 .data          0x3ffe839c        0x0 c:/Espressif/ESP8266_RTOS_SDK/lib\libwpa.a(wpa_auth_ie.o)
 .data          0x3ffe839c        0x0 c:/Espressif/ESP8266_RTOS_SDK/lib\libwpa.a(wpa.o)
 .data          0x3ffe839c        0x0 c:/Espressif/ESP8266_RTOS_SDK/lib\libwpa.a(wpa_common.o)
 .data          0x3ffe839c        0x0 c:/Espressif/ESP8266_RTOS_SDK/lib\libwpa.a(wpa_debug.o)
 .data          0x3ffe839c        0x0 c:/Espressif/ESP8266_RTOS_SDK/lib\libwpa.a(wpa_ie.o)
 .data          0x3ffe839c        0x0 c:/Espressif/ESP8266_RTOS_SDK/lib\libwpa.a(wpa_main.o)
 .data          0x3ffe839c        0x0 c:/Espressif/ESP8266_RTOS_SDK/lib\libwpa.a(wpas_glue.o)
 .data          0x3ffe839c        0x0 c:/Espressif/ESP8266_RTOS_SDK/lib\libcrypto.a(aes-unwrap.o)
 .data          0x3ffe839c        0x0 c:/Espressif/ESP8266_RTOS_SDK/lib\libcrypto.a(aes-wrap.o)
 .data          0x3ffe839c        0x0 c:/Espressif/ESP8266_RTOS_SDK/lib\libcrypto.a(md5.o)
 .data          0x3ffe839c        0x0 c:/Espressif/ESP8266_RTOS_SDK/lib\libcrypto.a(md5-internal.o)
 .data          0x3ffe839c        0x0 c:/Espressif/ESP8266_RTOS_SDK/lib\libcrypto.a(rc4.o)
 .data          0x3ffe839c        0x0 c:/Espressif/ESP8266_RTOS_SDK/lib\libcrypto.a(sha1.o)
 .data          0x3ffe839c        0x0 c:/Espressif/ESP8266_RTOS_SDK/lib\libcrypto.a(sha1-internal.o)
 .data          0x3ffe839c        0x0 c:/Espressif/ESP8266_RTOS_SDK/lib\libcrypto.a(sha1-pbkdf2.o)
 .data          0x3ffe839c        0x0 c:/Espressif/ESP8266_RTOS_SDK/lib\libcrypto.a(aes-internal-dec.o)
 .data          0x3ffe839c        0x0 c:/Espressif/ESP8266_RTOS_SDK/lib\libcrypto.a(aes-internal-enc.o)
 .data          0x3ffe839c        0x0 c:/Espressif/ESP8266_RTOS_SDK/lib\libcrypto.a(aes-internal.o)
 .data          0x3ffe839c        0x0 c:/Espressif/ESP8266_RTOS_SDK/lib\libmain.a(routines.o)
 .data          0x3ffe839c        0x0 c:/Espressif/ESP8266_RTOS_SDK/lib\liblwip.a(ethernetif.o)
 .data          0x3ffe839c        0x0 c:/Espressif/ESP8266_RTOS_SDK/lib\liblwip.a(ethip6.o)
 .data          0x3ffe839c        0x0 c:/Espressif/ESP8266_RTOS_SDK/lib\libmicrogcc.a(_ashrdi3.o)
 .data          0x3ffe839c        0x0 c:/Espressif/ESP8266_RTOS_SDK/lib\libmicrogcc.a(_divsf3.o)
 .data          0x3ffe839c        0x0 c:/Espressif/ESP8266_RTOS_SDK/lib\libmicrogcc.a(_fixsfsi.o)
 .data          0x3ffe839c        0x0 c:/Espressif/ESP8266_RTOS_SDK/lib\libnet80211.a(ieee80211_crypto_tkip.o)
 .data          0x3ffe839c        0x0 c:/Espressif/ESP8266_RTOS_SDK/lib\libnet80211.a(ieee80211_crypto_wep.o)
 *(.data.*)
 .data.state    0x3ffe839c        0x1 build/app_app.a(user_main_sming.o)
                0x3ffe839c                state
 *fill*         0x3ffe839d        0x3 
 .data.cbc_printchar
                0x3ffe83a0        0x4 build/app_app.a(m_printf.o)
                0x3ffe83a0                cbc_printchar
 *(.gnu.linkonce.d.*)
 *(.data1)
 *(.sdata)
 *(.sdata.*)
 *(.gnu.linkonce.s.*)
 *(.sdata2)
 *(.sdata2.*)
 *(.gnu.linkonce.s2.*)
 *(.jcr)
                0x3ffe83a4                _data_end = ABSOLUTE (.)

.rodata         0x3ffe83b0     0x209c
                0x3ffe83b0                _rodata_start = ABSOLUTE (.)
 *(.rodata)
 .rodata        0x3ffe83b0       0x14 c:/Espressif/ESP8266_RTOS_SDK/lib\libfreertos.a(tasks.o)
 .rodata        0x3ffe83c4        0x6 c:/Espressif/ESP8266_RTOS_SDK/lib\liblwip.a(etharp.o)
                0x3ffe83c4                ethbroadcast
 *fill*         0x3ffe83ca        0x6 
 .rodata        0x3ffe83d0      0x101 c:/Espressif/ESP8266_RTOS_SDK/lib\libminic.a(minic.o)
                0x3ffe83d0                _ctype_
 *fill*         0x3ffe84d1        0x3 
 .rodata        0x3ffe84d4       0x14 build/app_app.a(WebSocket.o)
 .rodata        0x3ffe84e8       0x20 c:/Espressif/ESP8266_RTOS_SDK/lib\libmicroc.a(floatscan.o)
 .rodata        0x3ffe8508        0x8 c:/Espressif/ESP8266_RTOS_SDK/lib\libphy.a(phy_chip_v6_ana.o)
 .rodata        0x3ffe8510        0x8 c:/Espressif/ESP8266_RTOS_SDK/lib\libphy.a(phy_chip_v6.o)
 *fill*         0x3ffe8518        0x8 
 .rodata        0x3ffe8520       0x10 c:/Espressif/ESP8266_RTOS_SDK/lib\libphy.a(phy_chip_v5_romfunc.o)
 .rodata        0x3ffe8530        0xc c:/Espressif/ESP8266_RTOS_SDK/lib\libphy.a(phy_chip_v5_ana_romfunc.o)
 .rodata        0x3ffe853c        0x4 c:/Espressif/ESP8266_RTOS_SDK/lib\libpp.a(pp.o)
 .rodata        0x3ffe8540        0x8 c:/Espressif/ESP8266_RTOS_SDK/lib\libnet80211.a(ieee80211_hostap.o)
 .rodata        0x3ffe8548        0x2 c:/Espressif/ESP8266_RTOS_SDK/lib\libcrypto.a(sha1-internal.o)
 *(.rodata.*)
 *fill*         0x3ffe854a        0x2 
 .rodata.str1.4
                0x3ffe854c       0x10 c:/Espressif/ESP8266_RTOS_SDK/lib\libmain.a(app_main.o)
 .rodata.str1.4
                0x3ffe855c        0x8 c:/Espressif/ESP8266_RTOS_SDK/lib\libmain.a(ets_timer.o)
                                 0x10 (size before relaxing)
 .rodata.str1.4
                0x3ffe8564        0xc c:/Espressif/ESP8266_RTOS_SDK/lib\libmain.a(printf-stdarg.o)
 .rodata.str1.4
                0x3ffe8570       0x1b c:/Espressif/ESP8266_RTOS_SDK/lib\libmain.a(user_interface.o)
 *fill*         0x3ffe858b        0x1 
 .rodata.str1.4
                0x3ffe858c        0x5 c:/Espressif/ESP8266_RTOS_SDK/lib\libfreertos.a(tasks.o)
 *fill*         0x3ffe8591        0x3 
 .rodata.str1.4
                0x3ffe8594        0x8 c:/Espressif/ESP8266_RTOS_SDK/lib\libfreertos.a(timers.o)
 .rodata.str1.4
                0x3ffe859c        0x4 c:/Espressif/ESP8266_RTOS_SDK/lib\liblwip.a(tcpip.o)
 .rodata.str1.1
                0x3ffe85a0      0x402 build/app_app.a(user_main_sming.o)
                                0x40f (size before relaxing)
 *fill*         0x3ffe89a2        0x2 
 .rodata._ZTV6VectorI6StringE
                0x3ffe89a4       0x1c build/app_app.a(user_main_sming.o)
                0x3ffe89a4                vtable for Vector<String>
 .rodata._ZTV14FunctionCallerIPFvR9TcpClientbEvJS1_bEE
                0x3ffe89c0       0x14 build/app_app.a(user_main_sming.o)
                0x3ffe89c0                vtable for FunctionCaller<void (*)(TcpClient&, bool), void, TcpClient&, bool>
 .rodata._ZTV14FunctionCallerIPFbR9TcpClientPciEbJS1_S2_iEE
                0x3ffe89d4       0x14 build/app_app.a(user_main_sming.o)
                0x3ffe89d4                vtable for FunctionCaller<bool (*)(TcpClient&, char*, int), bool, TcpClient&, char*, int>
 .rodata._ZTV14FunctionCallerIPFvP9TcpClientEvJS1_EE
                0x3ffe89e8       0x14 build/app_app.a(user_main_sming.o)
                0x3ffe89e8                vtable for FunctionCaller<void (*)(TcpClient*), void, TcpClient*>
 .rodata._ZTV14FunctionCallerIPFvvEvJEE
                0x3ffe89fc       0x14 build/app_app.a(user_main_sming.o)
                0x3ffe89fc                vtable for FunctionCaller<void (*)(), void>
 .rodata._ZTV14FunctionCallerIPFvR13UdpConnectionPci9IPAddresstEvJS1_S2_iS3_tEE
                0x3ffe8a10       0x14 build/app_app.a(user_main_sming.o)
                0x3ffe8a10                vtable for FunctionCaller<void (*)(UdpConnection&, char*, int, IPAddress, unsigned short), void, UdpConnection&, char*, int, IPAddress, unsigned short>
 .rodata._ZTV14FunctionCallerIPFvR11HttpRequestR12HttpResponseEvJS1_S3_EE
                0x3ffe8a24       0x14 build/app_app.a(user_main_sming.o)
                0x3ffe8a24                vtable for FunctionCaller<void (*)(HttpRequest&, HttpResponse&), void, HttpRequest&, HttpResponse&>
 .rodata._ZL14EspDigitalPins
                0x3ffe8a38       0xc0 build/app_app.a(Digital.o)
 .rodata._ZTV14HardwareSerial
                0x3ffe8af8       0x20 build/app_app.a(Temp_HardwareSerial.o)
                0x3ffe8af8                vtable for HardwareSerial
 .rodata._ZTV11WifiStation
                0x3ffe8b18       0x10 build/app_app.a(WifiStation.o)
                0x3ffe8b18                vtable for WifiStation
 .rodata._ZTV6CQueue
                0x3ffe8b28       0x1c build/app_app.a(CQueue.o)
                0x3ffe8b28                vtable for CQueue
 .rodata._ZTV5CTask
                0x3ffe8b44       0x1c build/app_app.a(CTask.o)
                0x3ffe8b44                vtable for CTask
 .rodata.str1.1
                0x3ffe8b60        0xf build/app_app.a(IPAddress.o)
                                 0x10 (size before relaxing)
 .rodata.str1.1
                0x3ffe8b6f        0xe build/app_app.a(Print.o)
 *fill*         0x3ffe8b7d        0x3 
 .rodata._ZTV5Print
                0x3ffe8b80       0x10 build/app_app.a(Print.o)
                0x3ffe8b80                vtable for Print
 .rodata.str1.1
                0x00000000        0x1 build/app_app.a(WString.o)
 .rodata.str1.1
                0x3ffe8b90      0x1c2 build/app_app.a(HttpResponse.o)
                                0x1df (size before relaxing)
 *fill*         0x3ffe8d52        0x2 
 .rodata._ZTV12HttpResponse
                0x3ffe8d54       0x10 build/app_app.a(HttpResponse.o)
                0x3ffe8d54                vtable for HttpResponse
 .rodata.str1.1
                0x3ffe8d64      0x15d build/app_app.a(HttpServer.o)
                                0x174 (size before relaxing)
 *fill*         0x3ffe8ec1        0x3 
 .rodata._ZTV6VectorI9WebSocketE
                0x3ffe8ec4       0x1c build/app_app.a(HttpServer.o)
                0x3ffe8ec4                vtable for Vector<WebSocket>
 .rodata._ZTV10HttpServer
                0x3ffe8ee0       0x5c build/app_app.a(HttpServer.o)
                0x3ffe8ee0                vtable for HttpServer
 .rodata._ZTV12MethodCallerIM10HttpServerFvR20HttpServerConnectionEE
                0x3ffe8f3c       0x14 build/app_app.a(HttpServer.o)
                0x3ffe8f3c                vtable for MethodCaller<void (HttpServer::*)(HttpServerConnection&)>
 .rodata.str1.1
                0x3ffe8f50       0xff build/app_app.a(HttpServerConnection.o)
                                0x10f (size before relaxing)
 *fill*         0x3ffe904f        0x1 
 .rodata._ZTV20HttpServerConnection
                0x3ffe9050       0x40 build/app_app.a(HttpServerConnection.o)
                0x3ffe9050                vtable for HttpServerConnection
 .rodata.str1.1
                0x3ffe9090       0x1d build/app_app.a(TcpClient.o)
 *fill*         0x3ffe90ad        0x3 
 .rodata._ZTV9TcpClient
                0x3ffe90b0       0x3c build/app_app.a(TcpClient.o)
                0x3ffe90b0                vtable for TcpClient
 .rodata.str1.1
                0x3ffe90ec      0x25b build/app_app.a(TcpConnection.o)
                                0x278 (size before relaxing)
 *fill*         0x3ffe9347        0x1 
 .rodata._ZTV13TcpConnection
                0x3ffe9348       0x38 build/app_app.a(TcpConnection.o)
                0x3ffe9348                vtable for TcpConnection
 .rodata.str1.1
                0x3ffe9380      0x13b build/app_app.a(TcpServer.o)
 *fill*         0x3ffe94bb        0x1 
 .rodata._ZTV9TcpServer
                0x3ffe94bc       0x50 build/app_app.a(TcpServer.o)
                0x3ffe94bc                vtable for TcpServer
 .rodata._ZTV12MethodCallerIM9TcpServerFbR9TcpClientPciEE
                0x3ffe950c       0x14 build/app_app.a(TcpServer.o)
                0x3ffe950c                vtable for MethodCaller<bool (TcpServer::*)(TcpClient&, char*, int)>
 .rodata._ZTV12MethodCallerIM9TcpServerFvR9TcpClientbEE
                0x3ffe9520       0x14 build/app_app.a(TcpServer.o)
                0x3ffe9520                vtable for MethodCaller<void (TcpServer::*)(TcpClient&, bool)>
 .rodata.str1.1
                0x3ffe9534       0xfb build/app_app.a(TelnetServer.o)
                                0x107 (size before relaxing)
 *fill*         0x3ffe962f        0x1 
 .rodata._ZTV12TelnetServer
                0x3ffe9630       0x50 build/app_app.a(TelnetServer.o)
                0x3ffe9630                vtable for TelnetServer
 .rodata.str1.1
                0x3ffe9680       0x95 build/app_app.a(UdpConnection.o)
 *fill*         0x3ffe9715        0x3 
 .rodata._ZTV13UdpConnection
                0x3ffe9718       0x28 build/app_app.a(UdpConnection.o)
                0x3ffe9718                vtable for UdpConnection
 .rodata.str1.1
                0x3ffe9740       0x1f build/app_app.a(WebSocket.o)
                                 0x5b (size before relaxing)
 *fill*         0x3ffe975f        0x1 
 .rodata._ZTV9WebSocket
                0x3ffe9760        0xc build/app_app.a(WebSocket.o)
                0x3ffe9760                vtable for WebSocket
 .rodata.str1.1
                0x3ffe976c       0xf3 build/app_app.a(CommandExecutor.o)
                                 0xf8 (size before relaxing)
 .rodata.str1.1
                0x3ffe985f      0x3b1 build/app_app.a(CommandHandler.o)
                                0x3b9 (size before relaxing)
 .rodata._ZTV12MethodCallerIM14CommandHandlerFv6StringP13CommandOutputEE
                0x3ffe9c10       0x14 build/app_app.a(CommandHandler.o)
                0x3ffe9c10                vtable for MethodCaller<void (CommandHandler::*)(String, CommandOutput*)>
 .rodata.str1.1
                0x3ffe9c24        0xb build/app_app.a(CommandOutput.o)
                                  0xc (size before relaxing)
 *fill*         0x3ffe9c2f        0x1 
 .rodata._ZTV13CommandOutput
                0x3ffe9c30       0x18 build/app_app.a(CommandOutput.o)
                0x3ffe9c30                vtable for CommandOutput
 .rodata._ZL13base64dec_tab
                0x3ffe9c48      0x100 build/app_app.a(base64.o)
 .rodata._ZL13base64enc_tab
                0x3ffe9d48       0x41 build/app_app.a(base64.o)
 .rodata.str1.1
                0x3ffe9d89      0x136 build/app_app.a(DataSourceStream.o)
                                0x137 (size before relaxing)
 *fill*         0x3ffe9ebf        0x1 
 .rodata._ZTVN11ArduinoJson9Internals15BlockJsonBufferINS0_16DefaultAllocatorEEE
                0x3ffe9ec0        0xc build/app_app.a(DataSourceStream.o)
                0x3ffe9ec0                vtable for ArduinoJson::Internals::BlockJsonBuffer<ArduinoJson::Internals::DefaultAllocator>
 .rodata._ZTV16MemoryDataStream
                0x3ffe9ecc       0x48 build/app_app.a(DataSourceStream.o)
                0x3ffe9ecc                vtable for MemoryDataStream
 .rodata._ZTV10FileStream
                0x3ffe9f14       0x20 build/app_app.a(DataSourceStream.o)
                0x3ffe9f14                vtable for FileStream
 .rodata._ZTV18TemplateFileStream
                0x3ffe9f34       0x20 build/app_app.a(DataSourceStream.o)
                0x3ffe9f34                vtable for TemplateFileStream
 .rodata._ZTV16JsonObjectStream
                0x3ffe9f54       0x48 build/app_app.a(DataSourceStream.o)
                0x3ffe9f54                vtable for JsonObjectStream
 .rodata.str1.1
                0x3ffe9f9c       0x34 build/app_app.a(FileSystem.o)
                                 0x37 (size before relaxing)
 .rodata.str1.1
                0x3ffe9fd0       0x13 build/app_app.a(SystemClock.o)
 .rodata.str1.1
                0x3ffe9fe3       0x1d build/app_app.a(stringconversion.o)
                                 0x21 (size before relaxing)
 .rodata.str1.1
                0x3ffea000       0xb1 build/app_app.a(HttpRequest.o)
                                 0xf1 (size before relaxing)
 *fill*         0x3ffea0b1        0x3 
 .rodata._ZTV11HttpRequest
                0x3ffea0b4       0x10 build/app_app.a(HttpRequest.o)
                0x3ffea0b4                vtable for HttpRequest
 .rodata.str1.1
                0x3ffea0c4        0xb build/app_app.a(ArduinoJson.o)
                                 0x11 (size before relaxing)
 *fill*         0x3ffea0cf        0x1 
 .rodata._ZTVN11ArduinoJson9Internals13IndentedPrintE
                0x3ffea0d0       0x10 build/app_app.a(ArduinoJson.o)
                0x3ffea0d0                vtable for ArduinoJson::Internals::IndentedPrint
 .rodata._ZTVN11ArduinoJson9Internals20DynamicStringBuilderE
                0x3ffea0e0       0x10 build/app_app.a(ArduinoJson.o)
                0x3ffea0e0                vtable for ArduinoJson::Internals::DynamicStringBuilder
 .rodata._ZTVN11ArduinoJson9Internals10PrettyfierE
                0x3ffea0f0       0x10 build/app_app.a(ArduinoJson.o)
                0x3ffea0f0                vtable for ArduinoJson::Internals::Prettyfier
 .rodata._ZTVN11ArduinoJson9Internals19StaticStringBuilderE
                0x3ffea100       0x10 build/app_app.a(ArduinoJson.o)
                0x3ffea100                vtable for ArduinoJson::Internals::StaticStringBuilder
 .rodata._ZN11ArduinoJson9Internals8Encoding12_escapeTableE
                0x3ffea110        0xf build/app_app.a(ArduinoJson.o)
                0x3ffea110                ArduinoJson::Internals::Encoding::_escapeTable
 .rodata.str1.1
                0x00000000        0x1 build/app_app.a(CommandDelegate.o)
 .rodata.str1.1
                0x3ffea11f       0x4c build/app_app.a(DateTime.o)
                                 0x58 (size before relaxing)
 .rodata._ZL9monthDays
                0x3ffea16b        0xc build/app_app.a(DateTime.o)
 .rodata.str1.1
                0x3ffea177      0x153 build/app_app.a(spiffs_sming.o)
                                0x15f (size before relaxing)
 .rodata.str1.1
                0x3ffea2ca       0x1e build/app_app.a(escape.o)
 .rodata._ZL5tohex
                0x3ffea2e8       0x11 build/app_app.a(escape.o)
 .rodata.str1.1
                0x3ffea2f9       0x59 build/app_app.a(flashmem.o)
 *fill*         0x3ffea352        0x2 
 .rodata.CSWTCH$11
                0x3ffea354       0x14 build/app_app.a(flashmem.o)
 .rodata.str1.1
                0x3ffea368        0x9 c:/Espressif/ESP8266_RTOS_SDK/lib\libmicroc.a(floatscan.o)
                                  0xd (size before relaxing)
 *fill*         0x3ffea371        0x3 
 .rodata.str1.4
                0x3ffea374       0x27 c:/Espressif/ESP8266_RTOS_SDK/lib\libpp.a(lmac.o)
                                 0x2f (size before relaxing)
 *fill*         0x3ffea39b        0x1 
 .rodata.str1.4
                0x3ffea39c       0x18 c:/Espressif/ESP8266_RTOS_SDK/lib\libpp.a(pm.o)
                                 0x20 (size before relaxing)
 .rodata.str1.4
                0x3ffea3b4        0x4 c:/Espressif/ESP8266_RTOS_SDK/lib\libpp.a(pm_for_bcn_only_mode.o)
                                  0xc (size before relaxing)
 .rodata.str1.4
                0x3ffea3b8        0xc c:/Espressif/ESP8266_RTOS_SDK/lib\libpp.a(pp.o)
                                 0x14 (size before relaxing)
 .rodata.str1.4
                0x3ffea3c4        0xf c:/Espressif/ESP8266_RTOS_SDK/lib\libpp.a(wdev.o)
                                 0x17 (size before relaxing)
 *fill*         0x3ffea3d3        0x1 
 .rodata.str1.4
                0x3ffea3d4        0x3 c:/Espressif/ESP8266_RTOS_SDK/lib\libnet80211.a(ieee80211_hostap.o)
                                  0x8 (size before relaxing)
 *fill*         0x3ffea3d7        0x1 
 .rodata.str1.4
                0x3ffea3d8        0x7 c:/Espressif/ESP8266_RTOS_SDK/lib\libnet80211.a(ieee80211_mesh_quick.o)
 .rodata.str1.4
                0x00000000        0x4 c:/Espressif/ESP8266_RTOS_SDK/lib\libnet80211.a(ieee80211_sta.o)
 .rodata.str1.4
                0x00000000        0x4 c:/Espressif/ESP8266_RTOS_SDK/lib\libnet80211.a(ieee80211_action_vendor.o)
 .rodata.str1.4
                0x00000000        0x4 c:/Espressif/ESP8266_RTOS_SDK/lib\libnet80211.a(ieee80211_ie_vendor.o)
 *fill*         0x3ffea3df        0x1 
 .rodata.str1.4
                0x3ffea3e0        0x4 c:/Espressif/ESP8266_RTOS_SDK/lib\libcrypto.a(sha1-internal.o)
                                  0x2 (size before relaxing)
 *(.gnu.linkonce.r.*)
 *(.rodata1)
                0x3ffea3e4                __XT_EXCEPTION_TABLE__ = ABSOLUTE (.)
 *(.xt_except_table)
 *(.gcc_except_table)
 *(.gnu.linkonce.e.*)
 *(.gnu.version_r)
 *(.eh_frame)
                0x3ffea3e4                . = ((. + 0x3) & 0xfffffffc)
                0x3ffea3e4                __init_array_start = ABSOLUTE (.)
 *crtbegin.o(.ctors)
 *(EXCLUDE_FILE(*crtend.o) .ctors)
 .ctors         0x3ffea3e4        0x4 build/app_app.a(user_main_sming.o)
 .ctors         0x3ffea3e8        0x4 build/app_app.a(Temp_HardwareSerial.o)
 .ctors         0x3ffea3ec        0x4 build/app_app.a(WifiStation.o)
 .ctors         0x3ffea3f0        0x4 build/app_app.a(HttpResponse.o)
 .ctors         0x3ffea3f4        0x4 build/app_app.a(HttpServer.o)
 .ctors         0x3ffea3f8        0x4 build/app_app.a(HttpServerConnection.o)
 .ctors         0x3ffea3fc        0x4 build/app_app.a(TcpClient.o)
 .ctors         0x3ffea400        0x4 build/app_app.a(TcpConnection.o)
 .ctors         0x3ffea404        0x4 build/app_app.a(TcpServer.o)
 .ctors         0x3ffea408        0x4 build/app_app.a(TelnetServer.o)
 .ctors         0x3ffea40c        0x4 build/app_app.a(UdpConnection.o)
 .ctors         0x3ffea410        0x4 build/app_app.a(WebSocket.o)
 .ctors         0x3ffea414        0x4 build/app_app.a(CommandExecutor.o)
 .ctors         0x3ffea418        0x4 build/app_app.a(CommandHandler.o)
 .ctors         0x3ffea41c        0x4 build/app_app.a(CommandOutput.o)
 .ctors         0x3ffea420        0x4 build/app_app.a(DataSourceStream.o)
 .ctors         0x3ffea424        0x4 build/app_app.a(SystemClock.o)
 .ctors         0x3ffea428        0x4 build/app_app.a(RTC.o)
 .ctors         0x3ffea42c        0x4 build/app_app.a(HttpRequest.o)
 .ctors         0x3ffea430        0x4 build/app_app.a(ArduinoJson.o)
 .ctors         0x3ffea434        0x4 build/app_app.a(CommandDelegate.o)
 *(SORT(.ctors.*))
 *(.ctors)
                0x3ffea438                __init_array_end = ABSOLUTE (.)
 *crtbegin.o(.dtors)
 *(EXCLUDE_FILE(*crtend.o) .dtors)
 .dtors         0x3ffea438        0x4 build/app_app.a(user_main_sming.o)
 .dtors         0x3ffea43c        0x4 build/app_app.a(Temp_HardwareSerial.o)
 .dtors         0x3ffea440        0x4 build/app_app.a(CommandHandler.o)
 *(SORT(.dtors.*))
 *(.dtors)
                0x3ffea444                __XT_EXCEPTION_DESCS__ = ABSOLUTE (.)
 *(.xt_except_desc)
 *(.gnu.linkonce.h.*)
                0x3ffea444                __XT_EXCEPTION_DESCS_END__ = ABSOLUTE (.)
 *(.xt_except_desc_end)
 *(.dynamic)
 *(.gnu.version_d)
                0x3ffea444                . = ALIGN (0x4)
                0x3ffea444                _bss_table_start = ABSOLUTE (.)
                0x3ffea444        0x4 LONG 0x3ffea450 _bss_start
                0x3ffea448        0x4 LONG 0x3fff1d68 _bss_end
                0x3ffea44c                _bss_table_end = ABSOLUTE (.)
                0x3ffea44c                _rodata_end = ABSOLUTE (.)

.UserExceptionVector.literal
                0x3ffea44c        0x0
                0x3ffea44c                _UserExceptionVector_literal_start = ABSOLUTE (.)
 *(.UserExceptionVector.literal)
 .UserExceptionVector.literal
                0x3ffea44c        0x0 c:/Espressif/ESP8266_RTOS_SDK/lib\libmain.a(xtensa_vectors.o)
                0x3ffea44c                _UserExceptionVector_literal_end = ABSOLUTE (.)

.bss            0x3ffea450     0x7918
                0x3ffea450                . = ALIGN (0x8)
                0x3ffea450                _bss_start = ABSOLUTE (.)
 *(.dynsbss)
 *(.sbss)
 *(.sbss.*)
 *(.gnu.linkonce.sb.*)
 *(.scommon)
 *(.sbss2)
 *(.sbss2.*)
 *(.gnu.linkonce.sb2.*)
 *(.dynbss)
 *(.bss)
 .bss           0x3ffea450      0x3f8 c:/Espressif/ESP8266_RTOS_SDK/lib\libmain.a(xtensa_vectors.o)
 .bss           0x3ffea848       0x30 c:/Espressif/ESP8266_RTOS_SDK/lib\libmain.a(app_main.o)
                0x3ffea848                user_init_flag
                0x3ffea84c                info
                0x3ffea870                errno
                0x3ffea874                xWatchDogTaskHandle
 *fill*         0x3ffea878        0x8 
 .bss           0x3ffea880       0xc0 c:/Espressif/ESP8266_RTOS_SDK/lib\libmain.a(ets_timer.o)
                0x3ffea884                timer_list
                0x3ffea888                debug_timer
                0x3ffea88c                debug_timerfn
 .bss           0x3ffea940        0x4 c:/Espressif/ESP8266_RTOS_SDK/lib\libmain.a(misc.o)
                0x3ffea940                _putc1
 *fill*         0x3ffea944        0xc 
 .bss           0x3ffea950       0x40 c:/Espressif/ESP8266_RTOS_SDK/lib\libmain.a(printf-stdarg.o)
 .bss           0x3ffea990        0x1 c:/Espressif/ESP8266_RTOS_SDK/lib\libmain.a(spi_flash.o)
                0x3ffea990                FlashIsOnGoing
 .bss           0x3ffea991        0x0 c:/Espressif/ESP8266_RTOS_SDK/lib\libmain.a(uart.o)
 *fill*         0x3ffea991        0xf 
 .bss           0x3ffea9a0      0x192 c:/Espressif/ESP8266_RTOS_SDK/lib\libmain.a(user_interface.o)
                0x3ffeaa9f                deep_sleep_flag
                0x3ffeaaa0                cpu_overclock
                0x3ffeaaa4                event_cb
                0x3ffeaaa8                xQueue_event
                0x3ffeaaac                rst_if
                0x3ffeaacc                OpmodChgIsOnGoing
                0x3ffeaad0                promiscuous_cb
                0x3ffeaad4                status_led_output_level
                0x3ffeaad8                evt
 .bss           0x3ffeab32        0x0 c:/Espressif/ESP8266_RTOS_SDK/lib\libmain.a(os_cpu_a.o)
 .bss           0x3ffeab32        0x0 c:/Espressif/ESP8266_RTOS_SDK/lib\libmain.a(xtensa_context.o)
 *fill*         0x3ffeab32        0x2 
 .bss           0x3ffeab34       0x1c c:/Espressif/ESP8266_RTOS_SDK/lib\libfreertos.a(heap_4.o)
 .bss           0x3ffeab50       0x90 c:/Espressif/ESP8266_RTOS_SDK/lib\libfreertos.a(port.o)
                0x3ffeab54                cpu_sr
                0x3ffeab5c                _xt_isr_status
                0x3ffeab60                isr
 .bss           0x3ffeabe0        0x0 c:/Espressif/ESP8266_RTOS_SDK/lib\libfreertos.a(queue.o)
 .bss           0x3ffeabe0      0x1cc c:/Espressif/ESP8266_RTOS_SDK/lib\libfreertos.a(tasks.o)
                0x3ffeabe4                pxCurrentTCB
 .bss           0x3ffeadac       0x3c c:/Espressif/ESP8266_RTOS_SDK/lib\libfreertos.a(timers.o)
 .bss           0x3ffeade8        0x0 c:/Espressif/ESP8266_RTOS_SDK/lib\libfreertos.a(list.o)
 *fill*         0x3ffeade8        0x8 
 .bss           0x3ffeadf0       0x44 c:/Espressif/ESP8266_RTOS_SDK/lib\liblwip.a(dhcp.o)
                0x3ffeadf0                dhcp_rx_options_given
                0x3ffeae00                dhcp_rx_options_val
 .bss           0x3ffeae34       0x28 c:/Espressif/ESP8266_RTOS_SDK/lib\liblwip.a(dhcpserver.o)
 *fill*         0x3ffeae5c        0x4 
 .bss           0x3ffeae60      0x480 c:/Espressif/ESP8266_RTOS_SDK/lib\liblwip.a(dns.o)
 .bss           0x3ffeb2e0       0xd8 c:/Espressif/ESP8266_RTOS_SDK/lib\liblwip.a(etharp.o)
                0x3ffeb2e4                ethzero
 *fill*         0x3ffeb3b8        0x8 
 .bss           0x3ffeb3c0       0x10 c:/Espressif/ESP8266_RTOS_SDK/lib\liblwip.a(ip4_addr.o)
 .bss           0x3ffeb3d0       0x32 c:/Espressif/ESP8266_RTOS_SDK/lib\liblwip.a(ip4.o)
                0x3ffeb3d0                ip_data
 .bss           0x3ffeb402        0x0 c:/Espressif/ESP8266_RTOS_SDK/lib\liblwip.a(ip6.o)
 .bss           0x3ffeb402        0x0 c:/Espressif/ESP8266_RTOS_SDK/lib\liblwip.a(memp.o)
 *fill*         0x3ffeb402        0x2 
 .bss           0x3ffeb404        0x4 c:/Espressif/ESP8266_RTOS_SDK/lib\liblwip.a(mld6.o)
 *fill*         0x3ffeb408        0x8 
 .bss           0x3ffeb410      0x421 c:/Espressif/ESP8266_RTOS_SDK/lib\liblwip.a(nd6.o)
                0x3ffeb430                prefix_list
                0x3ffeb4c0                neighbor_cache
                0x3ffeb650                default_router_list
                0x3ffeb6a0                destination_cache
 *fill*         0x3ffeb831        0x3 
 .bss           0x3ffeb834        0xc c:/Espressif/ESP8266_RTOS_SDK/lib\liblwip.a(netif.o)
                0x3ffeb838                netif_list
                0x3ffeb83c                netif_default
 .bss           0x3ffeb840        0x0 c:/Espressif/ESP8266_RTOS_SDK/lib\liblwip.a(pbuf.o)
 .bss           0x3ffeb840        0x4 c:/Espressif/ESP8266_RTOS_SDK/lib\liblwip.a(raw.o)
 .bss           0x3ffeb844        0x4 c:/Espressif/ESP8266_RTOS_SDK/lib\liblwip.a(sys_arch.o)
                0x3ffeb844                intlevel
 .bss           0x3ffeb848       0x2c c:/Espressif/ESP8266_RTOS_SDK/lib\liblwip.a(tcp_in.o)
                0x3ffeb870                tcp_input_pcb
 .bss           0x3ffeb874       0x10 c:/Espressif/ESP8266_RTOS_SDK/lib\liblwip.a(tcpip.o)
                0x3ffeb880                xLwipTaskHandle
 .bss           0x3ffeb884       0x21 c:/Espressif/ESP8266_RTOS_SDK/lib\liblwip.a(tcp.o)
                0x3ffeb888                tcp_active_pcbs
                0x3ffeb88c                tcp_tmp_pcb
                0x3ffeb890                tcp_active_pcbs_changed
                0x3ffeb894                tcp_tw_pcbs
                0x3ffeb898                tcp_bound_pcbs
                0x3ffeb89c                tcp_listen_pcbs
                0x3ffeb8a0                tcp_ticks
 .bss           0x3ffeb8a5        0x0 c:/Espressif/ESP8266_RTOS_SDK/lib\liblwip.a(tcp_out.o)
 *fill*         0x3ffeb8a5        0x3 
 .bss           0x3ffeb8a8        0xc c:/Espressif/ESP8266_RTOS_SDK/lib\liblwip.a(timers.o)
                0x3ffeb8ac                LwipTimOutLim
 .bss           0x3ffeb8b4        0x4 c:/Espressif/ESP8266_RTOS_SDK/lib\liblwip.a(udp.o)
                0x3ffeb8b4                udp_pcbs
 .bss           0x3ffeb8b8        0x0 c:/Espressif/ESP8266_RTOS_SDK/lib\liblwip.a(api_msg.o)
 .bss           0x3ffeb8b8        0x0 c:/Espressif/ESP8266_RTOS_SDK/lib\liblwip.a(icmp6.o)
 .bss           0x3ffeb8b8        0x0 c:/Espressif/ESP8266_RTOS_SDK/lib\liblwip.a(icmp.o)
 .bss           0x3ffeb8b8        0x0 c:/Espressif/ESP8266_RTOS_SDK/lib\liblwip.a(inet_chksum.o)
 .bss           0x3ffeb8b8        0x0 c:/Espressif/ESP8266_RTOS_SDK/lib\liblwip.a(init.o)
 *fill*         0x3ffeb8b8        0x8 
 .bss           0x3ffeb8c0       0x38 c:/Espressif/ESP8266_RTOS_SDK/lib\liblwip.a(ip6_addr.o)
                0x3ffeb8c0                ip6_addr_any
 .bss           0x3ffeb8f8        0x6 c:/Espressif/ESP8266_RTOS_SDK/lib\liblwip.a(ip6_frag.o)
 .bss           0x3ffeb8fe        0x0 c:/Espressif/ESP8266_RTOS_SDK/lib\liblwip.a(netbuf.o)
 *fill*         0x3ffeb8fe        0x2 
 .bss           0x3ffeb900      0x100 c:/Espressif/ESP8266_RTOS_SDK/lib\liblwip.a(sockets.o)
                0x3ffeb900                DefSocketCloseFlag
                0x3ffeb901                SocketCloseDoneFlag
 .bss           0x3ffeba00        0x0 c:/Espressif/ESP8266_RTOS_SDK/lib\liblwip.a(api_lib.o)
 .bss           0x3ffeba00        0x4 c:/Espressif/ESP8266_RTOS_SDK/lib\libminic.a(minic.o)
 .bss           0x3ffeba04        0x0 build/app_app.a(user_main_sming.o)
 .bss           0x3ffeba04        0x0 build/app_app.a(Digital.o)
 .bss           0x3ffeba04        0x0 build/app_app.a(Temp_HardwareSerial.o)
 .bss           0x3ffeba04        0x0 build/app_app.a(Timer.o)
 .bss           0x3ffeba04        0x0 build/app_app.a(WifiStation.o)
 .bss           0x3ffeba04        0x0 build/app_app.a(CQueue.o)
 .bss           0x3ffeba04        0x0 build/app_app.a(CTask.o)
 .bss           0x3ffeba04        0x0 build/app_app.a(IPAddress.o)
 .bss           0x3ffeba04        0x0 build/app_app.a(Print.o)
 .bss           0x3ffeba04        0x0 build/app_app.a(WString.o)
 .bss           0x3ffeba04        0x0 build/app_app.a(HttpResponse.o)
 .bss           0x3ffeba04        0x0 build/app_app.a(HttpServer.o)
 .bss           0x3ffeba04        0x0 build/app_app.a(HttpServerConnection.o)
 .bss           0x3ffeba04        0x0 build/app_app.a(TcpClient.o)
 .bss           0x3ffeba04        0x0 build/app_app.a(TcpConnection.o)
 .bss           0x3ffeba04        0x0 build/app_app.a(TcpServer.o)
 .bss           0x3ffeba04        0x0 build/app_app.a(TelnetServer.o)
 .bss           0x3ffeba04        0x0 build/app_app.a(UdpConnection.o)
 .bss           0x3ffeba04        0x0 build/app_app.a(WebSocket.o)
 .bss           0x3ffeba04        0x0 build/app_app.a(CommandExecutor.o)
 .bss           0x3ffeba04        0x0 build/app_app.a(CommandHandler.o)
 .bss           0x3ffeba04        0x0 build/app_app.a(CommandOutput.o)
 .bss           0x3ffeba04        0x0 build/app_app.a(base64.o)
 .bss           0x3ffeba04        0x0 build/app_app.a(websocket.o)
 .bss           0x3ffeba04        0x0 build/app_app.a(m_printf.o)
 .bss           0x3ffeba04        0x0 build/app_app.a(uart.o)
 .bss           0x3ffeba04        0x0 build/app_app.a(DataSourceStream.o)
 .bss           0x3ffeba04        0x0 build/app_app.a(FileSystem.o)
 .bss           0x3ffeba04        0x0 build/app_app.a(SystemClock.o)
 .bss           0x3ffeba04        0x0 build/app_app.a(stringconversion.o)
 .bss           0x3ffeba04        0x0 build/app_app.a(SplitString.o)
 .bss           0x3ffeba04        0x0 build/app_app.a(RTC.o)
 .bss           0x3ffeba04        0x0 build/app_app.a(HttpRequest.o)
 .bss           0x3ffeba04        0x0 build/app_app.a(NetUtils.o)
 .bss           0x3ffeba04        0x0 build/app_app.a(ArduinoJson.o)
 .bss           0x3ffeba04        0x0 build/app_app.a(CommandDelegate.o)
 .bss           0x3ffeba04        0x0 build/app_app.a(DateTime.o)
 .bss           0x3ffeba04        0x0 build/app_app.a(spiffs_hydrogen.o)
 .bss           0x3ffeba04        0x0 build/app_app.a(spiffs_nucleus.o)
 .bss           0x3ffeba04        0x0 build/app_app.a(spiffs_sming.o)
 .bss           0x3ffeba04        0x0 build/app_app.a(escape.o)
 .bss           0x3ffeba04        0x0 build/app_app.a(flashmem.o)
 .bss           0x3ffeba04        0x0 build/app_app.a(spiffs_cache.o)
 .bss           0x3ffeba04        0x0 build/app_app.a(spiffs_check.o)
 .bss           0x3ffeba04        0x0 build/app_app.a(spiffs_gc.o)
 .bss           0x3ffeba04        0x0 c:/Espressif/ESP8266_RTOS_SDK/lib\libmicroc.a(isprint.o)
 .bss           0x3ffeba04        0x0 c:/Espressif/ESP8266_RTOS_SDK/lib\libmicroc.a(isspace.o)
 .bss           0x3ffeba04        0x0 c:/Espressif/ESP8266_RTOS_SDK/lib\libmicroc.a(tolower.o)
 .bss           0x3ffeba04        0x0 c:/Espressif/ESP8266_RTOS_SDK/lib\libmicroc.a(toupper.o)
 .bss           0x3ffeba04        0x0 c:/Espressif/ESP8266_RTOS_SDK/lib\libmicroc.a(isxdigit.o)
 .bss           0x3ffeba04        0x0 c:/Espressif/ESP8266_RTOS_SDK/lib\libmicroc.a(atof.o)
 .bss           0x3ffeba04        0x0 c:/Espressif/ESP8266_RTOS_SDK/lib\libmicroc.a(strtod.o)
 .bss           0x3ffeba04        0x0 c:/Espressif/ESP8266_RTOS_SDK/lib\libmicroc.a(__fpclassify.o)
 .bss           0x3ffeba04        0x0 c:/Espressif/ESP8266_RTOS_SDK/lib\libmicroc.a(memchr.o)
 .bss           0x3ffeba04        0x4 c:/Espressif/ESP8266_RTOS_SDK/lib\libmicroc.a(__errno_location.o)
 .bss           0x3ffeba08        0x0 c:/Espressif/ESP8266_RTOS_SDK/lib\libmicroc.a(floatscan.o)
 .bss           0x3ffeba08        0x0 c:/Espressif/ESP8266_RTOS_SDK/lib\libmicroc.a(shgetc.o)
 .bss           0x3ffeba08        0x0 c:/Espressif/ESP8266_RTOS_SDK/lib\libmicroc.a(__uflow.o)
 .bss           0x3ffeba08        0x0 c:/Espressif/ESP8266_RTOS_SDK/lib\libmicroc.a(__toread.o)
 .bss           0x3ffeba08        0x4 c:/Espressif/ESP8266_RTOS_SDK/lib\libmicroc.a(__stdio_exit.o)
 .bss           0x3ffeba0c        0x0 c:/Espressif/ESP8266_RTOS_SDK/lib\libmicroc.a(fmodl.o)
 .bss           0x3ffeba0c        0x0 c:/Espressif/ESP8266_RTOS_SDK/lib\libmicroc.a(scalbn.o)
 .bss           0x3ffeba0c        0x0 c:/Espressif/ESP8266_RTOS_SDK/lib\libmicroc.a(scalbnl.o)
 .bss           0x3ffeba0c        0x0 c:/Espressif/ESP8266_RTOS_SDK/lib\libmicroc.a(fmod.o)
 .bss           0x3ffeba0c        0x0 c:/Espressif/ESP8266_RTOS_SDK/lib\libmicrogcc.a(_ashldi3.o)
 .bss           0x3ffeba0c        0x0 c:/Espressif/ESP8266_RTOS_SDK/lib\libmicrogcc.a(_cmpdf2.o)
 .bss           0x3ffeba0c        0x0 c:/Espressif/ESP8266_RTOS_SDK/lib\libmicrogcc.a(_lshrdi3.o)
 .bss           0x3ffeba0c        0x0 c:/Espressif/ESP8266_RTOS_SDK/lib\libmicrogcc.a(_modsi3.o)
 .bss           0x3ffeba0c        0x0 c:/Espressif/ESP8266_RTOS_SDK/lib\libgcc.a(_mulsf3.o)
 .bss           0x3ffeba0c        0x0 c:/espressif/xtensa-lx106-elf/bin/../lib/gcc/xtensa-lx106-elf/5.1.0/../../../../xtensa-lx106-elf/lib\libhal.a(clock.o)
 .bss           0x3ffeba0c        0x0 c:/espressif/xtensa-lx106-elf/bin/../lib/gcc/xtensa-lx106-elf/5.1.0/../../../../xtensa-lx106-elf/lib\libhal.a(int_asm--set_intset.o)
 .bss           0x3ffeba0c        0x4 c:/Espressif/ESP8266_RTOS_SDK/lib\libphy.a(phy.o)
 .bss           0x3ffeba10        0x2 c:/Espressif/ESP8266_RTOS_SDK/lib\libphy.a(phy_chip_v6_ana.o)
                0x3ffeba10                tout_dis_txpwr_track
                0x3ffeba11                sleep_mode_flag
 *fill*         0x3ffeba12        0x6 
 .bss           0x3ffeba18      0x158 c:/Espressif/ESP8266_RTOS_SDK/lib\libphy.a(phy_chip_v6.o)
                0x3ffeba18                rxiq_compute_num
                0x3ffeba1c                rx_table_renew_en
                0x3ffeba20                check_result
                0x3ffeba24                chip6_sleep_params
                0x3ffebab8                chip6_phy_init_ctrl
                0x3ffebb2c                phy_freq_offset
                0x3ffebb2e                do_pwctrl_flag
                0x3ffebb2f                pwctrl_debug
                0x3ffebb30                txbk_dpdby_flag
                0x3ffebb32                sw_scan_mode
                0x3ffebb33                rxmax_ext_level
                0x3ffebb34                phy_rx_gain_dc_table
                0x3ffebb48                periodic_cal_dc_num
                0x3ffebb4c                periodic_cal_flag
                0x3ffebb4d                bbpll_cal_flag
                0x3ffebb4e                phy_in_most_power
                0x3ffebb4f                init_rf_no_cal
                0x3ffebb50                test_print_time
                0x3ffebb54                phy_rx_gain_dc_flag
                0x3ffebb55                phy_in_vdd33_offset
                0x3ffebb56                phy_set_most_tpw_disbg
                0x3ffebb57                phy_set_most_tpw_index
                0x3ffebb58                adc_rand_noise
                0x3ffebb5c                dpd_bypass_original
                0x3ffebb60                noise_array
 .bss           0x3ffebb70        0x8 c:/Espressif/ESP8266_RTOS_SDK/lib\libphy.a(phy_chip_v6_cal.o)
                0x3ffebb70                phy_tx_power_out
                0x3ffebb72                loop_pwctrl_pwdet_error_accum_high_power
                0x3ffebb74                tx_pwctrl_pk_num
                0x3ffebb75                tx_pwctrl_track_num
                0x3ffebb76                loop_pwctrl_correct_atten_high_power
                0x3ffebb77                rxiq_cover_fail_num
 .bss           0x3ffebb78        0x0 c:/Espressif/ESP8266_RTOS_SDK/lib\libphy.a(phy_chip_v6_unused.o)
 .bss           0x3ffebb78        0x7 c:/Espressif/ESP8266_RTOS_SDK/lib\libphy.a(phy_sleep.o)
                0x3ffebb78                periodic_cal_sat
                0x3ffebb7a                lslp_mem_opt_8266
                0x3ffebb7c                software_slp_reject
                0x3ffebb7d                SDIO_slp_reject
                0x3ffebb7e                hardware_reject
 .bss           0x3ffebb7f        0x0 c:/Espressif/ESP8266_RTOS_SDK/lib\libphy.a(phy_chip_v5_romfunc.o)
 .bss           0x3ffebb7f        0x0 c:/Espressif/ESP8266_RTOS_SDK/lib\libphy.a(phy_chip_v5_ana_romfunc.o)
 .bss           0x3ffebb7f        0x0 c:/Espressif/ESP8266_RTOS_SDK/lib\libphy.a(phy_chip_v5_cal_romfunc.o)
 *fill*         0x3ffebb7f        0x1 
 .bss           0x3ffebb80       0x30 c:/Espressif/ESP8266_RTOS_SDK/lib\libpp.a(if_hwctrl.o)
                0x3ffebb80                interface_mask
                0x3ffebb90                if_ctrl
 .bss           0x3ffebbb0      0x150 c:/Espressif/ESP8266_RTOS_SDK/lib\libpp.a(lmac.o)
                0x3ffebbb4                lmacConfMib
 .bss           0x3ffebd00      0x14a c:/Espressif/ESP8266_RTOS_SDK/lib\libpp.a(pm.o)
                0x3ffebdfc                flash_tmp
                0x3ffebe00                CCOMPARE_AddVal
 *fill*         0x3ffebe4a        0x2 
 .bss           0x3ffebe4c       0x48 c:/Espressif/ESP8266_RTOS_SDK/lib\libpp.a(pm_for_bcn_only_mode.o)
 *fill*         0x3ffebe94        0xc 
 .bss           0x3ffebea0      0x3c2 c:/Espressif/ESP8266_RTOS_SDK/lib\libpp.a(pp.o)
                0x3ffebea0                wdt_ini_flag
                0x3ffebea1                pp_soft_wdt_count
                0x3ffebec8                pend_flag_noise_check
                0x3ffebed0                pend_flag_periodic_cal
                0x3ffebef0                idle_timer_reopen_flag
                0x3ffebef9                dbg_stop_sw_wdt
                0x3ffebefa                dbg_stop_hw_wdt
                0x3ffebefc                HighestFreqOffsetInOneChk
                0x3ffebefe                LowestFreqOffsetInOneChk
                0x3ffebf00                DefFreqCalTimer
                0x3ffebf1c                PktNumInOneChk
 *fill*         0x3ffec262        0xe 
 .bss           0x3ffec270      0x100 c:/Espressif/ESP8266_RTOS_SDK/lib\libpp.a(rate_control.o)
 .bss           0x3ffec370      0x46c c:/Espressif/ESP8266_RTOS_SDK/lib\libpp.a(trc.o)
 *fill*         0x3ffec7dc        0x4 
 .bss           0x3ffec7e0     0x2f68 c:/Espressif/ESP8266_RTOS_SDK/lib\libpp.a(wdev.o)
                0x3ffec7e0                wDevCtrl
                0x3ffec988                NMIIrqIsOn
                0x3ffec98c                WdevTimOffSet
 *fill*         0x3ffef748        0x8 
 .bss           0x3ffef750      0x984 c:/Espressif/ESP8266_RTOS_SDK/lib\libpp.a(esf_buf.o)
 .bss           0x3fff00d4      0x67c c:/Espressif/ESP8266_RTOS_SDK/lib\libnet80211.a(ieee80211.o)
                0x3fff00d4                g_ic
                0x3fff074c                xieee80211Queue
 .bss           0x3fff0750        0x0 c:/Espressif/ESP8266_RTOS_SDK/lib\libnet80211.a(ieee80211_crypto.o)
 .bss           0x3fff0750        0x0 c:/Espressif/ESP8266_RTOS_SDK/lib\libnet80211.a(ieee80211_ets.o)
 .bss           0x3fff0750       0x52 c:/Espressif/ESP8266_RTOS_SDK/lib\libnet80211.a(ieee80211_hostap.o)
                0x3fff0750                BcnEb_update
                0x3fff077c                PendFreeBcnEb
                0x3fff0780                ApFreqCalTimer
                0x3fff079c                APRecvBcnStartTick
 .bss           0x3fff07a2        0x0 c:/Espressif/ESP8266_RTOS_SDK/lib\libnet80211.a(ieee80211_ht.o)
 .bss           0x3fff07a2        0x0 c:/Espressif/ESP8266_RTOS_SDK/lib\libnet80211.a(ieee80211_input.o)
 .bss           0x3fff07a2        0x0 c:/Espressif/ESP8266_RTOS_SDK/lib\libnet80211.a(ieee80211_mesh_quick.o)
 .bss           0x3fff07a2        0x0 c:/Espressif/ESP8266_RTOS_SDK/lib\libnet80211.a(ieee80211_output.o)
 .bss           0x3fff07a2        0x0 c:/Espressif/ESP8266_RTOS_SDK/lib\libnet80211.a(ieee80211_phy.o)
 .bss           0x3fff07a2        0x0 c:/Espressif/ESP8266_RTOS_SDK/lib\libnet80211.a(ieee80211_power.o)
 .bss           0x3fff07a2        0x0 c:/Espressif/ESP8266_RTOS_SDK/lib\libnet80211.a(ieee80211_proto.o)
 .bss           0x3fff07a2        0x0 c:/Espressif/ESP8266_RTOS_SDK/lib\libnet80211.a(ieee80211_rfid.o)
 *fill*         0x3fff07a2        0x2 
 .bss           0x3fff07a4       0xe0 c:/Espressif/ESP8266_RTOS_SDK/lib\libnet80211.a(ieee80211_scan.o)
                0x3fff07a4                gScanStruct
                0x3fff0860                connect_scan_flag
                0x3fff0861                FreqCalCntForScan
                0x3fff0862                TestStaFreqCalValInput
                0x3fff0864                auth_type
                0x3fff0866                scannum
 *fill*         0x3fff0884        0x4 
 .bss           0x3fff0888       0x10 c:/Espressif/ESP8266_RTOS_SDK/lib\libnet80211.a(ieee80211_sta.o)
 .bss           0x3fff0898       0x44 c:/Espressif/ESP8266_RTOS_SDK/lib\libnet80211.a(wl_chm.o)
 *fill*         0x3fff08dc        0x4 
 .bss           0x3fff08e0      0x399 c:/Espressif/ESP8266_RTOS_SDK/lib\libnet80211.a(wl_cnx.o)
                0x3fff0c58                sta_con_timer
                0x3fff0c74                g_cnx_probe_rc_list_cb
                0x3fff0c78                reconnect_flag
 .bss           0x3fff0c79        0x0 c:/Espressif/ESP8266_RTOS_SDK/lib\libnet80211.a(ieee80211_action.o)
 *fill*         0x3fff0c79        0x3 
 .bss           0x3fff0c7c       0x10 c:/Espressif/ESP8266_RTOS_SDK/lib\libnet80211.a(ieee80211_action_vendor.o)
 .bss           0x3fff0c8c        0x0 c:/Espressif/ESP8266_RTOS_SDK/lib\libnet80211.a(ieee80211_crypto_ccmp.o)
 .bss           0x3fff0c8c        0x0 c:/Espressif/ESP8266_RTOS_SDK/lib\libnet80211.a(ieee80211_ie_vendor.o)
 .bss           0x3fff0c8c        0x0 c:/Espressif/ESP8266_RTOS_SDK/lib\libwpa.a(ap_config.o)
 .bss           0x3fff0c8c        0x0 c:/Espressif/ESP8266_RTOS_SDK/lib\libwpa.a(common.o)
 .bss           0x3fff0c8c        0x0 c:/Espressif/ESP8266_RTOS_SDK/lib\libwpa.a(os_xtensa.o)
 .bss           0x3fff0c8c        0x0 c:/Espressif/ESP8266_RTOS_SDK/lib\libwpa.a(wpa_auth.o)
 .bss           0x3fff0c8c        0x0 c:/Espressif/ESP8266_RTOS_SDK/lib\libwpa.a(wpa_auth_ie.o)
 *fill*         0x3fff0c8c        0x4 
 .bss           0x3fff0c90      0x26a c:/Espressif/ESP8266_RTOS_SDK/lib\libwpa.a(wpa.o)
 .bss           0x3fff0efa        0x0 c:/Espressif/ESP8266_RTOS_SDK/lib\libwpa.a(wpa_common.o)
 .bss           0x3fff0efa        0x0 c:/Espressif/ESP8266_RTOS_SDK/lib\libwpa.a(wpa_debug.o)
 .bss           0x3fff0efa        0x0 c:/Espressif/ESP8266_RTOS_SDK/lib\libwpa.a(wpa_ie.o)
 .bss           0x3fff0efa        0x0 c:/Espressif/ESP8266_RTOS_SDK/lib\libwpa.a(wpa_main.o)
 .bss           0x3fff0efa        0x0 c:/Espressif/ESP8266_RTOS_SDK/lib\libwpa.a(wpas_glue.o)
 .bss           0x3fff0efa        0x0 c:/Espressif/ESP8266_RTOS_SDK/lib\libcrypto.a(aes-unwrap.o)
 .bss           0x3fff0efa        0x0 c:/Espressif/ESP8266_RTOS_SDK/lib\libcrypto.a(aes-wrap.o)
 .bss           0x3fff0efa        0x0 c:/Espressif/ESP8266_RTOS_SDK/lib\libcrypto.a(md5.o)
 .bss           0x3fff0efa        0x0 c:/Espressif/ESP8266_RTOS_SDK/lib\libcrypto.a(md5-internal.o)
 .bss           0x3fff0efa        0x0 c:/Espressif/ESP8266_RTOS_SDK/lib\libcrypto.a(rc4.o)
 .bss           0x3fff0efa        0x0 c:/Espressif/ESP8266_RTOS_SDK/lib\libcrypto.a(sha1.o)
 .bss           0x3fff0efa        0x0 c:/Espressif/ESP8266_RTOS_SDK/lib\libcrypto.a(sha1-internal.o)
 .bss           0x3fff0efa        0x0 c:/Espressif/ESP8266_RTOS_SDK/lib\libcrypto.a(sha1-pbkdf2.o)
 .bss           0x3fff0efa        0x0 c:/Espressif/ESP8266_RTOS_SDK/lib\libcrypto.a(aes-internal-dec.o)
 .bss           0x3fff0efa        0x0 c:/Espressif/ESP8266_RTOS_SDK/lib\libcrypto.a(aes-internal-enc.o)
 .bss           0x3fff0efa        0x0 c:/Espressif/ESP8266_RTOS_SDK/lib\libcrypto.a(aes-internal.o)
 .bss           0x3fff0efa        0x0 c:/Espressif/ESP8266_RTOS_SDK/lib\libmain.a(routines.o)
 *fill*         0x3fff0efa        0x6 
 .bss           0x3fff0f00       0x10 c:/Espressif/ESP8266_RTOS_SDK/lib\liblwip.a(ethernetif.o)
 .bss           0x3fff0f10        0x0 c:/Espressif/ESP8266_RTOS_SDK/lib\liblwip.a(ethip6.o)
 .bss           0x3fff0f10        0x0 c:/Espressif/ESP8266_RTOS_SDK/lib\libmicrogcc.a(_ashrdi3.o)
 .bss           0x3fff0f10        0x0 c:/Espressif/ESP8266_RTOS_SDK/lib\libmicrogcc.a(_divsf3.o)
 .bss           0x3fff0f10        0x0 c:/Espressif/ESP8266_RTOS_SDK/lib\libmicrogcc.a(_fixsfsi.o)
 .bss           0x3fff0f10        0x8 c:/Espressif/ESP8266_RTOS_SDK/lib\libnet80211.a(ieee80211_crypto_tkip.o)
 .bss           0x3fff0f18        0x0 c:/Espressif/ESP8266_RTOS_SDK/lib\libnet80211.a(ieee80211_crypto_wep.o)
 *(.bss.*)
 .bss.ip        0x3fff0f18        0x4 build/app_app.a(user_main_sming.o)
                0x3fff0f18                ip
 .bss.tnet      0x3fff0f1c       0x2c build/app_app.a(user_main_sming.o)
                0x3fff0f1c                tnet
 .bss.http      0x3fff0f48       0x80 build/app_app.a(user_main_sming.o)
                0x3fff0f48                http
 .bss.tcpServer
                0x3fff0fc8       0x20 build/app_app.a(user_main_sming.o)
                0x3fff0fc8                tcpServer
 .bss.task      0x3fff0fe8        0x8 build/app_app.a(user_main_sming.o)
                0x3fff0fe8                task
 .bss.tserver   0x3fff0ff0       0x20 build/app_app.a(user_main_sming.o)
                0x3fff0ff0                tserver
 .bss.udp       0x3fff1010        0xc build/app_app.a(user_main_sming.o)
                0x3fff1010                udp
 .bss.tc        0x3fff101c       0x2c build/app_app.a(user_main_sming.o)
                0x3fff101c                tc
 .bss.delegateDemo
                0x3fff1048        0x4 build/app_app.a(user_main_sming.o)
                0x3fff1048                delegateDemo
 *fill*         0x3fff104c        0x4 
 .bss.textTimer
                0x3fff1050       0x38 build/app_app.a(user_main_sming.o)
                0x3fff1050                textTimer
 .bss.blinkTimer
                0x3fff1088       0x38 build/app_app.a(user_main_sming.o)
                0x3fff1088                blinkTimer
 .bss.test      0x3fff10c0       0x14 build/app_app.a(user_main_sming.o)
                0x3fff10c0                test
 .bss.mydata    0x3fff10d4      0x400 build/app_app.a(user_main_sming.o)
                0x3fff10d4                mydata
 .bss._ZL14static_counter
                0x3fff14d4        0x4 build/app_app.a(user_main_sming.o)
 .bss._ZL11INADDR_NONE
                0x3fff14d8        0x4 build/app_app.a(user_main_sming.o)
 .bss.Serial    0x3fff14dc       0x14 build/app_app.a(Temp_HardwareSerial.o)
                0x3fff14dc                Serial
 .bss._ZN14HardwareSerial10memberDataE
                0x3fff14f0       0x10 build/app_app.a(Temp_HardwareSerial.o)
                0x3fff14f0                HardwareSerial::memberData
 .bss.wfStation
                0x3fff1500        0x4 build/app_app.a(WifiStation.o)
                0x3fff1500                wfStation
 .bss._ZZN6StringixEjE19dummy_writable_char
                0x3fff1504        0x1 build/app_app.a(WString.o)
 .bss._ZL11INADDR_NONE
                0x3fff1505        0x4 build/app_app.a(HttpResponse.o)
 .bss._ZL11INADDR_NONE
                0x3fff1509        0x4 build/app_app.a(HttpServer.o)
 .bss._ZL11INADDR_NONE
                0x3fff150d        0x4 build/app_app.a(HttpServerConnection.o)
 .bss._ZL11INADDR_NONE
                0x3fff1511        0x4 build/app_app.a(TcpClient.o)
 .bss._ZL11INADDR_NONE
                0x3fff1515        0x4 build/app_app.a(TcpConnection.o)
 *fill*         0x3fff1519        0x1 
 .bss._ZN9TcpServer16totalConnectionsE
                0x3fff151a        0x2 build/app_app.a(TcpServer.o)
                0x3fff151a                TcpServer::totalConnections
 .bss._ZL11INADDR_NONE
                0x3fff151c        0x4 build/app_app.a(TcpServer.o)
 .bss._ZL11INADDR_NONE
                0x3fff1520        0x4 build/app_app.a(TelnetServer.o)
 .bss._ZL11INADDR_NONE
                0x3fff1524        0x4 build/app_app.a(UdpConnection.o)
 .bss._ZL11INADDR_NONE
                0x3fff1528        0x4 build/app_app.a(WebSocket.o)
 .bss._ZL11INADDR_NONE
                0x3fff152c        0x4 build/app_app.a(CommandExecutor.o)
 .bss.commandHandler
                0x3fff1530       0x1c build/app_app.a(CommandHandler.o)
                0x3fff1530                commandHandler
 .bss._ZL11INADDR_NONE
                0x3fff154c        0x4 build/app_app.a(CommandHandler.o)
 .bss._ZL11INADDR_NONE
                0x3fff1550        0x4 build/app_app.a(CommandOutput.o)
 .bss._ZL11INADDR_NONE
                0x3fff1554        0x4 build/app_app.a(DataSourceStream.o)
 .bss.SystemClock
                0x3fff1558       0x18 build/app_app.a(SystemClock.o)
                0x3fff1558                SystemClock
 .bss._ZL11INADDR_NONE
                0x3fff1570        0x4 build/app_app.a(SystemClock.o)
 .bss.RTC       0x3fff1574        0x1 build/app_app.a(RTC.o)
                0x3fff1574                RTC
 .bss._ZL11INADDR_NONE
                0x3fff1575        0x4 build/app_app.a(HttpRequest.o)
 .bss._ZN8NetUtils20ipClientRoutingFixedE
                0x3fff1579        0x1 build/app_app.a(NetUtils.o)
                0x3fff1579                NetUtils::ipClientRoutingFixed
 *fill*         0x3fff157a        0x2 
 .bss._ZN11ArduinoJson10JsonObject8_invalidE
                0x3fff157c        0x8 build/app_app.a(ArduinoJson.o)
                0x3fff157c                ArduinoJson::JsonObject::_invalid
 .bss._ZN11ArduinoJson9JsonArray8_invalidE
                0x3fff1584        0x8 build/app_app.a(ArduinoJson.o)
                0x3fff1584                ArduinoJson::JsonArray::_invalid
 .bss._ZL11INADDR_NONE
                0x3fff158c        0x4 build/app_app.a(CommandDelegate.o)
 .bss.spiffs_cache
                0x3fff1590      0x480 build/app_app.a(spiffs_sming.o)
 .bss.spiffs_fds
                0x3fff1a10       0xe0 build/app_app.a(spiffs_sming.o)
 .bss.spiffs_work_buf
                0x3fff1af0      0x200 build/app_app.a(spiffs_sming.o)
 *(.gnu.linkonce.b.*)
 *(COMMON)
 COMMON         0x3fff1cf0        0x8 build/app_app.a(uart.o)
                0x3fff1cf0                xUartTaskHandle
                0x3fff1cf4                xQueueUart
 COMMON         0x3fff1cf8       0x70 build/app_app.a(spiffs_sming.o)
                0x3fff1cf8                _filesystemStorageHandle
                0x3fff1d68                . = ALIGN (0x8)
                0x3fff1d68                _bss_end = ABSOLUTE (.)
                0x3fff1d68                _heap_start = ABSOLUTE (.)

.text           0x40100000     0x6a04
                0x40100000                _stext = .
                0x40100000                _text_start = ABSOLUTE (.)
 *(.UserEnter.text)
 .UserEnter.text
                0x40100000        0xd c:/Espressif/ESP8266_RTOS_SDK/lib\libmain.a(xtensa_vectors.o)
                                 0x14 (size before relaxing)
                0x40100004                call_user_start
                0x40100010                . = ALIGN (0x10)
 *fill*         0x4010000d        0x3 
 *(.DebugExceptionVector.text)
 .DebugExceptionVector.text
                0x40100010        0x9 c:/Espressif/ESP8266_RTOS_SDK/lib\libmain.a(xtensa_vectors.o)
                                 0x10 (size before relaxing)
                0x40100010                _DebugExceptionVector
                0x40100020                . = ALIGN (0x10)
 *fill*         0x40100019        0x7 
 *(.NMIExceptionVector.text)
 .NMIExceptionVector.text
                0x40100020        0x6 c:/Espressif/ESP8266_RTOS_SDK/lib\libmain.a(xtensa_vectors.o)
                                  0xd (size before relaxing)
                0x40100020                _NMIExceptionVector
                0x40100030                . = ALIGN (0x10)
 *fill*         0x40100026        0xa 
 *(.KernelExceptionVector.text)
 .KernelExceptionVector.text
                0x40100030        0x6 c:/Espressif/ESP8266_RTOS_SDK/lib\libmain.a(xtensa_vectors.o)
                                  0xd (size before relaxing)
                0x40100030                _KernelExceptionVector
                0x40100036        0x4 LONG 0x0
                0x4010003a        0x4 LONG 0x0
                0x4010003e        0x4 LONG 0x0
                0x40100042        0x4 LONG 0x0
                0x40100050                . = ALIGN (0x10)
 *fill*         0x40100046        0xa 
 *(.UserExceptionVector.text)
 .UserExceptionVector.text
                0x40100050        0x6 c:/Espressif/ESP8266_RTOS_SDK/lib\libmain.a(xtensa_vectors.o)
                                  0xd (size before relaxing)
                0x40100050                _UserExceptionVector
                0x40100056        0x4 LONG 0x0
                0x4010005a        0x4 LONG 0x0
                0x4010005e        0x4 LONG 0x0
                0x40100062        0x4 LONG 0x0
                0x40100070                . = ALIGN (0x10)
 *fill*         0x40100066        0xa 
 *(.DoubleExceptionVector.text)
 .DoubleExceptionVector.text
                0x40100070        0x9 c:/Espressif/ESP8266_RTOS_SDK/lib\libmain.a(xtensa_vectors.o)
                                 0x10 (size before relaxing)
                0x40100070                _DoubleExceptionVector
                0x40100079        0x4 LONG 0x0
                0x4010007d        0x4 LONG 0x0
                0x40100081        0x4 LONG 0x0
                0x40100085        0x4 LONG 0x0
                0x40100090                . = ALIGN (0x10)
 *fill*         0x40100089        0x7 
 *(.entry.text)
 *(.init.literal)
 *(.init)
 *(.literal .text .stub .gnu.warning .gnu.linkonce.literal.* .gnu.linkonce.t.*.literal .gnu.linkonce.t.*)
 .text          0x40100090      0x1da c:/Espressif/ESP8266_RTOS_SDK/lib\libmain.a(xtensa_vectors.o)
                                0x212 (size before relaxing)
                0x40100138                _xt_user_exit
 *fill*         0x4010026a        0x2 
 .text          0x4010026c      0x41e c:/Espressif/ESP8266_RTOS_SDK/lib\libmain.a(app_main.o)
                                0x456 (size before relaxing)
                0x40100274                Cache_Read_Enable_New
                0x401003f4                user_fatal_exception_handler
                0x401004cc                do_global_ctors
                0x40100534                user_start
 *fill*         0x4010068a        0x2 
 .text          0x4010068c      0x516 c:/Espressif/ESP8266_RTOS_SDK/lib\libmain.a(printf-stdarg.o)
                                0x536 (size before relaxing)
                0x4010068c                putchar
                0x40100844                print
                0x40100ab8                ets_printf
                0x40100ab8                printf
                0x40100b8c                puts
 *fill*         0x40100ba2        0x2 
 .text          0x40100ba4      0x3f8 c:/Espressif/ESP8266_RTOS_SDK/lib\libmain.a(spi_flash.o)
                                0x4e4 (size before relaxing)
                0x40100ba8                SPIWrite
                0x40100c84                SPIRead
                0x40100cb4                SPIEraseSector
                0x40100cfc                Cache_Read_Disable_2
                0x40100d3c                Cache_Read_Enable_2
                0x40100d78                spi_flash_get_id
                0x40100de8                spi_flash_read_status
                0x40100e28                spi_flash_write_status
                0x40100ea8                spi_flash_erase_sector
                0x40100eec                spi_flash_write
                0x40100f54                spi_flash_read
 .text          0x40100f9c      0x312 c:/Espressif/ESP8266_RTOS_SDK/lib\libmain.a(user_interface.o)
                                0x37e (size before relaxing)
                0x40100fd0                system_restart_in_nmi
                0x401011bc                wifi_set_user_rate_limit
                0x40101200                system_rtc_mem_write
                0x40101258                system_rtc_mem_read
 *fill*         0x401012ae        0x2 
 .text          0x401012b0      0x187 c:/Espressif/ESP8266_RTOS_SDK/lib\libmain.a(os_cpu_a.o)
                                0x1bf (size before relaxing)
                0x401012b0                vPortYield
                0x401012ec                _xt_int_enter
                0x40101304                _xt_int_exit
                0x4010132c                _xt_timer_int
                0x40101360                _xt_timer_int1
                0x4010137c                _xt_tick_timer_init
                0x401013a0                _xt_update_xt_ccompare
                0x401013bc                _xt_set_xt_ccompare_val
                0x401013d4                _xt_isr_unmask
                0x401013f4                _xt_isr_mask
                0x40101418                _xt_read_ints
                0x40101428                _xt_clear_ints
 *fill*         0x40101437        0x1 
 .text          0x40101438      0x28b c:/Espressif/ESP8266_RTOS_SDK/lib\libfreertos.a(heap_4.o)
                                0x2e3 (size before relaxing)
                0x40101438                xPortWantedSizeAlign
                0x40101454                malloc
                0x40101454                pvPortMalloc
                0x40101534                vPortFree
                0x40101534                free
                0x401015c4                calloc
                0x401015c4                pvPortCalloc
                0x401015ec                pvPortZalloc
                0x401015ec                zalloc
                0x40101600                realloc
                0x40101600                pvPortRealloc
 *fill*         0x401016c3        0x1 
 .text          0x401016c4      0x1c9 c:/Espressif/ESP8266_RTOS_SDK/lib\libfreertos.a(port.o)
                                0x225 (size before relaxing)
                0x401016c8                PendSV
                0x4010171c                SoftIsrHdl
                0x4010175c                xPortSysTickHandle
                0x40101774                vPortEnterCritical
                0x40101798                vPortExitCritical
                0x401017c0                PortDisableInt_NoNest
                0x401017e0                PortEnableInt_NoNest
                0x40101800                _xt_isr_handler
 *fill*         0x4010188d        0x3 
 .text          0x40101890       0xc7 c:/Espressif/ESP8266_RTOS_SDK/lib\libfreertos.a(queue.o)
                                 0xd7 (size before relaxing)
                0x40101890                uxQueueMessagesWaitingFromISR
 *fill*         0x40101957        0x1 
 .text          0x40101958      0x2a1 c:/Espressif/ESP8266_RTOS_SDK/lib\libfreertos.a(tasks.o)
                                0x2ed (size before relaxing)
                0x40101968                xTaskIncrementTick
                0x40101ad8                vTaskSwitchContext
                0x40101ba8                vTaskPriorityDisinherit
 *fill*         0x40101bf9        0x3 
 .text          0x40101bfc      0x346 build/app_app.a(Timer.o)
                                0x36a (size before relaxing)
                0x40101c00                Timer::stop()
                0x40101c44                Timer::start(bool)
                0x40101cc4                Timer::processing(void*)
                0x40101d18                Timer::restart()
                0x40101d3c                Timer::setIntervalUs(unsigned long long)
                0x40101dac                Timer::setIntervalMs(unsigned int)
                0x40101dd8                Timer::setCallback(void (*)())
                0x40101e1c                Timer::initializeMs(unsigned int, void (*)())
                0x40101e44                Timer::initializeUs(unsigned int, void (*)())
                0x40101e74                Timer::setCallback(Delegate<void ()>)
                0x40101ea4                Timer::initializeMs(unsigned int, Delegate<void ()>)
                0x40101ef4                Timer::initializeUs(unsigned int, Delegate<void ()>)
 *fill*         0x40101f42        0x2 
 .text          0x40101f44      0x318 build/app_app.a(WString.o)
                                0x340 (size before relaxing)
                0x40101f48                String::compareTo(String const&) const
                0x40101f90                String::equals(String const&) const
                0x40101fb8                String::equals(char const*) const
                0x40102000                String::setCharAt(unsigned int, char)
                0x40102014                String::operator[](unsigned int) const
                0x4010202c                String::charAt(unsigned int) const
                0x40102040                String::operator[](unsigned int)
                0x40102058                String::invalidate()
                0x40102080                String::changeBuffer(unsigned int)
                0x401020b8                String::concat(char const*, unsigned int)
                0x40102114                String::operator=(String const&)
                0x40102144                String::String(String const&)
                0x40102144                String::String(String const&)
                0x40102160                String::operator=(char const*)
                0x40102194                String::String(char const*)
                0x40102194                String::String(char const*)
                0x401021cc                String::String(char const*, unsigned int)
                0x401021cc                String::String(char const*, unsigned int)
                0x401021f0                String::String(String&&)
                0x401021f0                String::String(String&&)
                0x4010220c                String::String(StringSumHelper&&)
                0x4010220c                String::String(StringSumHelper&&)
                0x4010222c                String::indexOf(char) const
                0x40102248                String::indexOf(String const&) const
 .literal       0x4010225c        0x4 c:/Espressif/ESP8266_RTOS_SDK/lib\libmicrogcc.a(_cmpdf2.o)
                                 0x18 (size before relaxing)
 .literal       0x40102260        0x4 c:/Espressif/ESP8266_RTOS_SDK/lib\libgcc.a(_mulsf3.o)
                                 0x10 (size before relaxing)
 .literal       0x40102264        0x0 c:/Espressif/ESP8266_RTOS_SDK/lib\libmicrogcc.a(_fixsfsi.o)
                                  0x4 (size before relaxing)
 .text          0x40102264      0x169 c:/Espressif/ESP8266_RTOS_SDK/lib\libmicrogcc.a(_cmpdf2.o)
                0x40102264                __nedf2
                0x40102264                __eqdf2
                0x40102294                __gtdf2
                0x401022b8                __ledf2
                0x4010231c                __gedf2
                0x40102340                __ltdf2
                0x401023a4                __unorddf2
 *fill*         0x401023cd        0x3 
 .text          0x401023d0      0x15d c:/Espressif/ESP8266_RTOS_SDK/lib\libgcc.a(_mulsf3.o)
                0x40102448                __mulsf3
 *fill*         0x4010252d        0x3 
 .text          0x40102530       0x53 c:/Espressif/ESP8266_RTOS_SDK/lib\libphy.a(phy.o)
                                 0x5f (size before relaxing)
                0x40102538                register_phy_ops
                0x40102558                register_get_phy_addr
                0x40102560                phy_change_channel
                0x40102578                phy_get_mactime
 *fill*         0x40102583        0x1 
 .text          0x40102584       0xaa c:/Espressif/ESP8266_RTOS_SDK/lib\libphy.a(phy_chip_v6_cal.o)
                                 0xb2 (size before relaxing)
                0x40102584                unsign_to_sign
                0x401025bc                phy_get_bb_freqoffset
                0x40102620                phy_get_bb_evm
 *fill*         0x4010262e        0x2 
 .text          0x40102630       0xf3 c:/Espressif/ESP8266_RTOS_SDK/lib\libphy.a(phy_sleep.o)
                                0x103 (size before relaxing)
                0x40102640                pm_rtc_clock_cali
                0x401026f8                clockgate_watchdog
 *fill*         0x40102723        0x1 
 .text          0x40102724        0xb c:/Espressif/ESP8266_RTOS_SDK/lib\libphy.a(phy_chip_v5_romfunc.o)
                0x40102728                phy_get_romfuncs
 *fill*         0x4010272f        0x1 
 .text          0x40102730     0x1694 c:/Espressif/ESP8266_RTOS_SDK/lib\libpp.a(lmac.o)
                               0x1a50 (size before relaxing)
                0x40102734                lmacIsActive
                0x40102748                lmacIsIdle
                0x40102bc8                lmacSetAcParam
                0x40102c4c                lmacProcessTXStartData
                0x40102df0                lmacProcessTxSuccess
                0x40102f2c                GetAccess
                0x40102f38                lmacDiscardAgedMSDU
                0x40102f4c                lmacRecycleMPDU
                0x40103558                lmacProcessTxTimeout
                0x401035c0                lmacProcessAllTxTimeout
                0x401035d8                lmacProcessCollisions
                0x40103638                lmacProcessCollision
                0x401036bc                lmacMSDUAged
                0x40103a48                lmacProcessCtsTimeout
                0x40103a90                lmacProcessAckTimeout
                0x40103ae4                lmacProcessRtsStart
                0x40103af0                lmacProcessTxRtsError
                0x40103b8c                lmacProcessTxError
                0x40103c10                lmacTxFrame
                0x40103dac                lmacRxDone
 .text          0x40103dc4      0xcbd c:/Espressif/ESP8266_RTOS_SDK/lib\libpp.a(pp.o)
                                0xf51 (size before relaxing)
                0x40103f48                ppProcessTxQ
                0x40104008                ppFetchTxQFirstAvail
                0x4010406c                ppDequeueTxQ
                0x401040b8                ppRollBackTxQ
                0x401040fc                ppRecordBarRRC
                0x4010410c                ppTxqUpdateBitmap
                0x40104134                ppEnqueueTxDone
                0x40104178                ppEnqueueRxq
                0x40104714                ppDiscardMPDU
                0x40104744                MacIsrSigPostDefHdl
                0x40104824                pp_post
                0x40104950                ppCalTxop
                0x40104a14                ppCalFrameTimes
 *fill*         0x40104a81        0x3 
 .text          0x40104a84       0xf5 c:/Espressif/ESP8266_RTOS_SDK/lib\libpp.a(rate_control.o)
                                0x109 (size before relaxing)
                0x40104aa4                RC_GetAckRate
                0x40104ab0                RC_GetRtsRate
                0x40104ac0                RC_GetAckTime
                0x40104ad4                RC_GetCtsTime
                0x40104b0c                RC_GetBlockAckTime
 *fill*         0x40104b79        0x3 
 .text          0x40104b7c      0x99d c:/Espressif/ESP8266_RTOS_SDK/lib\libpp.a(trc.o)
                                0xa05 (size before relaxing)
                0x40104d4c                rcUpdateTxDone
                0x40104de0                rcUpdateRxDone
                0x40104e3c                rcUpdateDataRxDone
                0x40104e58                rcGetSched
                0x40104f3c                rcGetRate
                0x4010544c                rcReachRetryLimit
                0x40105464                trc_NeedRTS
 *fill*         0x40105519        0x3 
 .text          0x4010551c     0x1230 c:/Espressif/ESP8266_RTOS_SDK/lib\libpp.a(wdev.o)
                               0x158c (size before relaxing)
                0x40105944                wDev_MacTimSetFunc
                0x40105968                wDev_MacTimArm
                0x401059f8                wDev_MacTim1Arm
                0x40105ab8                wDev_ProcessFiq
                0x40105e34                wDev_EnableTransmit
                0x40105e6c                wDev_DisableTransmit
                0x40105e8c                Tx_Copy2Queue
                0x40105ed4                wDev_ProcessCollision
                0x40105ef8                wDev_GetTxqCollisions
                0x40105f08                wDev_ClearTxqCollisions
                0x40105f24                wDev_SetWaitingQueue
                0x40105f6c                wDev_ClearWaitingQueue
                0x40105f90                wDev_SetFrameAckType
                0x40105ff8                wDev_AppendRxBlocks
                0x4010617c                wDev_AppendRxAmpduLensBlocks
                0x40106280                wDev_GetBAInfo
 .text          0x4010674c       0x7c c:/Espressif/ESP8266_RTOS_SDK/lib\libpp.a(esf_buf.o)
                                 0xa8 (size before relaxing)
                0x40106750                esf_rx_buf_alloc
 .text          0x401067c8        0xb c:/Espressif/ESP8266_RTOS_SDK/lib\libnet80211.a(wl_chm.o)
                0x401067cc                chm_get_current_channel
 *fill*         0x401067d3        0x1 
 .text          0x401067d4       0x17 c:/Espressif/ESP8266_RTOS_SDK/lib\libwpa.a(os_xtensa.o)
                                 0x1b (size before relaxing)
                0x401067d8                r_rand
                0x401067d8                os_random
 *fill*         0x401067eb        0x1 
 .text          0x401067ec       0x63 c:/Espressif/ESP8266_RTOS_SDK/lib\libmain.a(routines.o)
                                 0x73 (size before relaxing)
                0x401067ec                __cxa_deleted_virtual
                0x401067f4                __cxa_pure_virtual
                0x401067fc                operator delete[](void*)
                0x40106810                operator delete(void*)
                0x40106824                operator new[](unsigned int)
                0x40106838                operator new(unsigned int)
                0x4010684c                abort
 *fill*         0x4010684f        0x1 
 .text          0x40106850       0x40 c:/Espressif/ESP8266_RTOS_SDK/lib\libmicrogcc.a(_fixsfsi.o)
                0x40106850                __fixsfsi
 .literal       0x40106890        0x0 c:/Espressif/ESP8266_RTOS_SDK/lib\libmain.a(xtensa_vectors.o)
 *fill*         0x40106890        0x0 
 .literal       0x40106890        0x0 c:/Espressif/ESP8266_RTOS_SDK/lib\libmain.a(app_main.o)
 .text          0x40106890        0x0 c:/Espressif/ESP8266_RTOS_SDK/lib\libmain.a(ets_timer.o)
 .text          0x40106890        0x0 c:/Espressif/ESP8266_RTOS_SDK/lib\libmain.a(misc.o)
 *fill*         0x40106890        0x0 
 .literal       0x40106890        0x0 c:/Espressif/ESP8266_RTOS_SDK/lib\libmain.a(printf-stdarg.o)
 *fill*         0x40106890        0x0 
 .literal       0x40106890        0x0 c:/Espressif/ESP8266_RTOS_SDK/lib\libmain.a(spi_flash.o)
 .text          0x40106890        0x0 c:/Espressif/ESP8266_RTOS_SDK/lib\libmain.a(uart.o)
 .literal       0x40106890        0x0 c:/Espressif/ESP8266_RTOS_SDK/lib\libmain.a(user_interface.o)
 *fill*         0x40106890        0x0 
 .literal       0x40106890        0x0 c:/Espressif/ESP8266_RTOS_SDK/lib\libmain.a(os_cpu_a.o)
 *fill*         0x40106890        0x0 
 .text          0x40106890       0x3d c:/Espressif/ESP8266_RTOS_SDK/lib\libmain.a(xtensa_context.o)
                0x40106890                _xt_context_save
                0x401068ac                _xt_context_restore
 *fill*         0x401068cd        0x3 
 .literal       0x401068d0        0x0 c:/Espressif/ESP8266_RTOS_SDK/lib\libfreertos.a(heap_4.o)
 *fill*         0x401068d0        0x0 
 .literal       0x401068d0        0x0 c:/Espressif/ESP8266_RTOS_SDK/lib\libfreertos.a(port.o)
 *fill*         0x401068d0        0x0 
 .literal       0x401068d0        0x0 c:/Espressif/ESP8266_RTOS_SDK/lib\libfreertos.a(queue.o)
 *fill*         0x401068d0        0x0 
 .literal       0x401068d0        0x0 c:/Espressif/ESP8266_RTOS_SDK/lib\libfreertos.a(tasks.o)
 .text          0x401068d0        0x0 c:/Espressif/ESP8266_RTOS_SDK/lib\libfreertos.a(timers.o)
 *fill*         0x401068d0        0x0 
 .literal       0x401068d0        0x0 c:/Espressif/ESP8266_RTOS_SDK/lib\libfreertos.a(list.o)
 .text          0x401068d0       0x37 c:/Espressif/ESP8266_RTOS_SDK/lib\libfreertos.a(list.o)
                0x401068d0                vListInsertEnd
                0x401068e8                uxListRemove
 .text          0x40106907        0x0 c:/Espressif/ESP8266_RTOS_SDK/lib\libminic.a(minic.o)
 .text          0x40106907        0x0 build/app_app.a(user_main_sming.o)
 .text          0x40106907        0x0 build/app_app.a(Digital.o)
 *fill*         0x40106907        0x1 
 .literal       0x40106908        0x0 build/app_app.a(Temp_HardwareSerial.o)
 .text          0x40106908        0x2 build/app_app.a(Temp_HardwareSerial.o)
                0x40106908                HardwareSerial::uart0_rx_intr_handler(void*)
 *fill*         0x4010690a        0x2 
 .literal       0x4010690c        0x0 build/app_app.a(Timer.o)
 .text          0x4010690c        0x0 build/app_app.a(WifiStation.o)
 .text          0x4010690c        0x0 build/app_app.a(CQueue.o)
 .text          0x4010690c        0x0 build/app_app.a(CTask.o)
 .text          0x4010690c        0x0 build/app_app.a(IPAddress.o)
 .text          0x4010690c        0x0 build/app_app.a(Print.o)
 *fill*         0x4010690c        0x0 
 .literal       0x4010690c        0x0 build/app_app.a(WString.o)
 .text          0x4010690c        0x0 build/app_app.a(HttpResponse.o)
 .text          0x4010690c        0x0 build/app_app.a(HttpServer.o)
 .text          0x4010690c        0x0 build/app_app.a(HttpServerConnection.o)
 .text          0x4010690c        0x0 build/app_app.a(TcpClient.o)
 .text          0x4010690c        0x0 build/app_app.a(TcpConnection.o)
 .text          0x4010690c        0x0 build/app_app.a(TcpServer.o)
 .text          0x4010690c        0x0 build/app_app.a(TelnetServer.o)
 .text          0x4010690c        0x0 build/app_app.a(UdpConnection.o)
 .text          0x4010690c        0x0 build/app_app.a(WebSocket.o)
 .text          0x4010690c        0x0 build/app_app.a(CommandExecutor.o)
 .text          0x4010690c        0x0 build/app_app.a(CommandHandler.o)
 .text          0x4010690c        0x0 build/app_app.a(CommandOutput.o)
 .text          0x4010690c        0x0 build/app_app.a(base64.o)
 .text          0x4010690c        0x0 build/app_app.a(websocket.o)
 .text          0x4010690c        0x0 build/app_app.a(m_printf.o)
 .text          0x4010690c        0x0 build/app_app.a(uart.o)
 .text          0x4010690c        0x0 build/app_app.a(DataSourceStream.o)
 .text          0x4010690c        0x0 build/app_app.a(FileSystem.o)
 .text          0x4010690c        0x0 build/app_app.a(SystemClock.o)
 .text          0x4010690c        0x0 build/app_app.a(stringconversion.o)
 .text          0x4010690c        0x0 build/app_app.a(SplitString.o)
 .text          0x4010690c        0x0 build/app_app.a(RTC.o)
 .text          0x4010690c        0x0 build/app_app.a(HttpRequest.o)
 .text          0x4010690c        0x0 build/app_app.a(NetUtils.o)
 .text          0x4010690c        0x0 build/app_app.a(ArduinoJson.o)
 .text          0x4010690c        0x0 build/app_app.a(CommandDelegate.o)
 .text          0x4010690c        0x0 build/app_app.a(DateTime.o)
 .text          0x4010690c        0x0 build/app_app.a(spiffs_hydrogen.o)
 .text          0x4010690c        0x0 build/app_app.a(spiffs_nucleus.o)
 .text          0x4010690c        0x0 build/app_app.a(spiffs_sming.o)
 .text          0x4010690c        0x0 build/app_app.a(escape.o)
 .text          0x4010690c        0x0 build/app_app.a(flashmem.o)
 .text          0x4010690c        0x0 build/app_app.a(spiffs_cache.o)
 .text          0x4010690c        0x0 build/app_app.a(spiffs_check.o)
 .text          0x4010690c        0x0 build/app_app.a(spiffs_gc.o)
 .text          0x4010690c       0x17 c:/Espressif/ESP8266_RTOS_SDK/lib\libmicrogcc.a(_ashldi3.o)
                0x4010690c                __ashldi3
 *fill*         0x40106923        0x0 
 *fill*         0x40106923        0x1 
 .text          0x40106924       0x17 c:/Espressif/ESP8266_RTOS_SDK/lib\libmicrogcc.a(_lshrdi3.o)
                0x40106924                __lshrdi3
 *fill*         0x4010693b        0x1 
 .text          0x4010693c       0x49 c:/Espressif/ESP8266_RTOS_SDK/lib\libmicrogcc.a(_modsi3.o)
                0x4010693c                __modsi3
 *fill*         0x40106985        0x0 
 *fill*         0x40106985        0x3 
 .text          0x40106988       0x20 c:/espressif/xtensa-lx106-elf/bin/../lib/gcc/xtensa-lx106-elf/5.1.0/../../../../xtensa-lx106-elf/lib\libhal.a(clock.o)
                0x40106988                xthal_get_ccount
                0x40106990                xthal_set_ccompare
                0x4010699c                xthal_get_ccompare
 .text          0x401069a8        0x5 c:/espressif/xtensa-lx106-elf/bin/../lib/gcc/xtensa-lx106-elf/5.1.0/../../../../xtensa-lx106-elf/lib\libhal.a(int_asm--set_intset.o)
                0x401069a8                xthal_set_intset
 *fill*         0x401069ad        0x3 
 .literal       0x401069b0        0x0 c:/Espressif/ESP8266_RTOS_SDK/lib\libphy.a(phy.o)
 .text          0x401069b0        0x0 c:/Espressif/ESP8266_RTOS_SDK/lib\libphy.a(phy_chip_v6_ana.o)
 .text          0x401069b0        0x0 c:/Espressif/ESP8266_RTOS_SDK/lib\libphy.a(phy_chip_v6.o)
 *fill*         0x401069b0        0x0 
 .literal       0x401069b0        0x0 c:/Espressif/ESP8266_RTOS_SDK/lib\libphy.a(phy_chip_v6_cal.o)
 .text          0x401069b0        0x0 c:/Espressif/ESP8266_RTOS_SDK/lib\libphy.a(phy_chip_v6_unused.o)
 *fill*         0x401069b0        0x0 
 .literal       0x401069b0        0x0 c:/Espressif/ESP8266_RTOS_SDK/lib\libphy.a(phy_sleep.o)
 *fill*         0x401069b0        0x0 
 .literal       0x401069b0        0x0 c:/Espressif/ESP8266_RTOS_SDK/lib\libphy.a(phy_chip_v5_romfunc.o)
 .text          0x401069b0        0x0 c:/Espressif/ESP8266_RTOS_SDK/lib\libphy.a(phy_chip_v5_ana_romfunc.o)
 .text          0x401069b0        0x0 c:/Espressif/ESP8266_RTOS_SDK/lib\libphy.a(phy_chip_v5_cal_romfunc.o)
 .text          0x401069b0        0x0 c:/Espressif/ESP8266_RTOS_SDK/lib\libpp.a(if_hwctrl.o)
 *fill*         0x401069b0        0x0 
 .literal       0x401069b0        0x0 c:/Espressif/ESP8266_RTOS_SDK/lib\libpp.a(lmac.o)
 .text          0x401069b0        0x0 c:/Espressif/ESP8266_RTOS_SDK/lib\libpp.a(pm.o)
 .text          0x401069b0        0x0 c:/Espressif/ESP8266_RTOS_SDK/lib\libpp.a(pm_for_bcn_only_mode.o)
 .literal       0x401069b0        0x0 c:/Espressif/ESP8266_RTOS_SDK/lib\libpp.a(pp.o)
 *fill*         0x401069b0        0x0 
 .literal       0x401069b0        0x0 c:/Espressif/ESP8266_RTOS_SDK/lib\libpp.a(rate_control.o)
 *fill*         0x401069b0        0x0 
 .literal       0x401069b0        0x0 c:/Espressif/ESP8266_RTOS_SDK/lib\libpp.a(trc.o)
 *fill*         0x401069b0        0x0 
 .literal       0x401069b0        0x0 c:/Espressif/ESP8266_RTOS_SDK/lib\libpp.a(wdev.o)
 .literal       0x401069b0        0x0 c:/Espressif/ESP8266_RTOS_SDK/lib\libpp.a(esf_buf.o)
 .text          0x401069b0        0x0 c:/Espressif/ESP8266_RTOS_SDK/lib\libnet80211.a(ieee80211.o)
 .text          0x401069b0        0x0 c:/Espressif/ESP8266_RTOS_SDK/lib\libnet80211.a(ieee80211_crypto.o)
 .text          0x401069b0        0x0 c:/Espressif/ESP8266_RTOS_SDK/lib\libnet80211.a(ieee80211_ets.o)
 .literal       0x401069b0        0x0 c:/Espressif/ESP8266_RTOS_SDK/lib\libnet80211.a(ieee80211_hostap.o)
 .text          0x401069b0       0x25 c:/Espressif/ESP8266_RTOS_SDK/lib\libnet80211.a(ieee80211_hostap.o)
 .text          0x401069d5        0x0 c:/Espressif/ESP8266_RTOS_SDK/lib\libnet80211.a(ieee80211_ht.o)
 .text          0x401069d5        0x0 c:/Espressif/ESP8266_RTOS_SDK/lib\libnet80211.a(ieee80211_input.o)
 .text          0x401069d5        0x0 c:/Espressif/ESP8266_RTOS_SDK/lib\libnet80211.a(ieee80211_mesh_quick.o)
 .text          0x401069d5        0x0 c:/Espressif/ESP8266_RTOS_SDK/lib\libnet80211.a(ieee80211_output.o)
 .text          0x401069d5        0x0 c:/Espressif/ESP8266_RTOS_SDK/lib\libnet80211.a(ieee80211_phy.o)
 .text          0x401069d5        0x0 c:/Espressif/ESP8266_RTOS_SDK/lib\libnet80211.a(ieee80211_power.o)
 .text          0x401069d5        0x0 c:/Espressif/ESP8266_RTOS_SDK/lib\libnet80211.a(ieee80211_proto.o)
 .text          0x401069d5        0x0 c:/Espressif/ESP8266_RTOS_SDK/lib\libnet80211.a(ieee80211_rfid.o)
 .text          0x401069d5        0x0 c:/Espressif/ESP8266_RTOS_SDK/lib\libnet80211.a(ieee80211_scan.o)
 .text          0x401069d5        0x0 c:/Espressif/ESP8266_RTOS_SDK/lib\libnet80211.a(ieee80211_sta.o)
 *fill*         0x401069d5        0x3 
 .literal       0x401069d8        0x0 c:/Espressif/ESP8266_RTOS_SDK/lib\libnet80211.a(wl_chm.o)
 .text          0x401069d8        0x0 c:/Espressif/ESP8266_RTOS_SDK/lib\libnet80211.a(wl_cnx.o)
 .text          0x401069d8        0x0 c:/Espressif/ESP8266_RTOS_SDK/lib\libnet80211.a(ieee80211_action.o)
 .text          0x401069d8        0x0 c:/Espressif/ESP8266_RTOS_SDK/lib\libnet80211.a(ieee80211_action_vendor.o)
 .text          0x401069d8        0x0 c:/Espressif/ESP8266_RTOS_SDK/lib\libnet80211.a(ieee80211_crypto_ccmp.o)
 .text          0x401069d8        0x0 c:/Espressif/ESP8266_RTOS_SDK/lib\libnet80211.a(ieee80211_ie_vendor.o)
 .text          0x401069d8        0x0 c:/Espressif/ESP8266_RTOS_SDK/lib\libwpa.a(ap_config.o)
 .text          0x401069d8        0x0 c:/Espressif/ESP8266_RTOS_SDK/lib\libwpa.a(common.o)
 *fill*         0x401069d8        0x0 
 .literal       0x401069d8        0x0 c:/Espressif/ESP8266_RTOS_SDK/lib\libwpa.a(os_xtensa.o)
 *fill*         0x401069d8        0x0 
 .literal       0x401069d8        0x0 c:/Espressif/ESP8266_RTOS_SDK/lib\libwpa.a(wpa_auth.o)
 .text          0x401069d8       0x11 c:/Espressif/ESP8266_RTOS_SDK/lib\libwpa.a(wpa_auth.o)
 .text          0x401069e9        0x0 c:/Espressif/ESP8266_RTOS_SDK/lib\libwpa.a(wpa_auth_ie.o)
 .text          0x401069e9        0x0 c:/Espressif/ESP8266_RTOS_SDK/lib\libwpa.a(wpa.o)
 .text          0x401069e9        0x0 c:/Espressif/ESP8266_RTOS_SDK/lib\libwpa.a(wpa_common.o)
 .text          0x401069e9        0x0 c:/Espressif/ESP8266_RTOS_SDK/lib\libwpa.a(wpa_debug.o)
 .text          0x401069e9        0x0 c:/Espressif/ESP8266_RTOS_SDK/lib\libwpa.a(wpa_ie.o)
 .text          0x401069e9        0x0 c:/Espressif/ESP8266_RTOS_SDK/lib\libwpa.a(wpa_main.o)
 .text          0x401069e9        0x0 c:/Espressif/ESP8266_RTOS_SDK/lib\libwpa.a(wpas_glue.o)
 .text          0x401069e9        0x0 c:/Espressif/ESP8266_RTOS_SDK/lib\libcrypto.a(aes-unwrap.o)
 .text          0x401069e9        0x0 c:/Espressif/ESP8266_RTOS_SDK/lib\libcrypto.a(aes-wrap.o)
 .text          0x401069e9        0x0 c:/Espressif/ESP8266_RTOS_SDK/lib\libcrypto.a(md5.o)
 .text          0x401069e9        0x0 c:/Espressif/ESP8266_RTOS_SDK/lib\libcrypto.a(md5-internal.o)
 .text          0x401069e9        0x0 c:/Espressif/ESP8266_RTOS_SDK/lib\libcrypto.a(rc4.o)
 .text          0x401069e9        0x0 c:/Espressif/ESP8266_RTOS_SDK/lib\libcrypto.a(sha1.o)
 .text          0x401069e9        0x0 c:/Espressif/ESP8266_RTOS_SDK/lib\libcrypto.a(sha1-internal.o)
 .text          0x401069e9        0x0 c:/Espressif/ESP8266_RTOS_SDK/lib\libcrypto.a(sha1-pbkdf2.o)
 .text          0x401069e9        0x0 c:/Espressif/ESP8266_RTOS_SDK/lib\libcrypto.a(aes-internal-dec.o)
 .text          0x401069e9        0x0 c:/Espressif/ESP8266_RTOS_SDK/lib\libcrypto.a(aes-internal-enc.o)
 .text          0x401069e9        0x0 c:/Espressif/ESP8266_RTOS_SDK/lib\libcrypto.a(aes-internal.o)
 *fill*         0x401069e9        0x3 
 .literal       0x401069ec        0x0 c:/Espressif/ESP8266_RTOS_SDK/lib\libmain.a(routines.o)
 *fill*         0x401069ec        0x0 
 .text          0x401069ec       0x18 c:/Espressif/ESP8266_RTOS_SDK/lib\libmicrogcc.a(_ashrdi3.o)
                0x401069ec                __ashrdi3
 .text          0x40106a04        0x0 c:/Espressif/ESP8266_RTOS_SDK/lib\libnet80211.a(ieee80211_crypto_tkip.o)
 .text          0x40106a04        0x0 c:/Espressif/ESP8266_RTOS_SDK/lib\libnet80211.a(ieee80211_crypto_wep.o)
 *(.fini.literal)
 *(.fini)
 *(.gnu.version)
                0x40106a04                _text_end = ABSOLUTE (.)
                0x40106a04                _etext = .

.UserEnter.literal
                0x40106a04        0x0
 .UserEnter.literal
                0x40106a04        0x0 c:/Espressif/ESP8266_RTOS_SDK/lib\libmain.a(xtensa_vectors.o)

.DebugExceptionVector.literal
                0x40106a04        0x0
 .DebugExceptionVector.literal
                0x40106a04        0x0 c:/Espressif/ESP8266_RTOS_SDK/lib\libmain.a(xtensa_vectors.o)

.DoubleExceptionVector.literal
                0x40106a04        0x0
 .DoubleExceptionVector.literal
                0x40106a04        0x0 c:/Espressif/ESP8266_RTOS_SDK/lib\libmain.a(xtensa_vectors.o)

.KernelExceptionVector.literal
                0x40106a04        0x0
 .KernelExceptionVector.literal
                0x40106a04        0x0 c:/Espressif/ESP8266_RTOS_SDK/lib\libmain.a(xtensa_vectors.o)

.NMIExceptionVector.literal
                0x40106a04        0x0
 .NMIExceptionVector.literal
                0x40106a04        0x0 c:/Espressif/ESP8266_RTOS_SDK/lib\libmain.a(xtensa_vectors.o)

.lit4           0x40106a04        0x0
                0x40106a04                _lit4_start = ABSOLUTE (.)
 *(*.lit4)
 *(.lit4.*)
 *(.gnu.linkonce.lit4.*)
                0x40106a04                _lit4_end = ABSOLUTE (.)

.irom0.text     0x40209000    0x4fa64
                0x40209000                _irom0_text_start = ABSOLUTE (.)
 *(.irom0.literal .irom.literal .irom.text.literal .irom0.text .irom.text)
 .irom0.text    0x40209000      0x8ae c:/Espressif/ESP8266_RTOS_SDK/lib\libmain.a(app_main.o)
                                0xa5a (size before relaxing)
                0x402091e8                user_uart_wait_tx_fifo_empty
                0x40209320                uart_rx_one_char
                0x40209344                wdt_init
                0x402093e0                user_init_task
                0x4020985c                vApplicationStackOverflowHook
                0x40209890                vApplicationTickHook
 *fill*         0x402098ae        0x2 
 .irom0.text    0x402098b0      0x437 c:/Espressif/ESP8266_RTOS_SDK/lib\libmain.a(ets_timer.o)
                                0x4f3 (size before relaxing)
                0x4020996c                os_timer_setfn
                0x4020996c                ets_timer_setfn
                0x40209a00                ets_timer_disarm
                0x40209a00                os_timer_disarm
                0x40209a5c                ets_timer_arm_ms_us
                0x40209adc                os_timer_arm_us
                0x40209adc                ets_timer_arm_us
                0x40209af0                os_timer_arm
                0x40209af0                ets_timer_arm
                0x40209b04                ets_timer_done
                0x40209b34                ets_timer_handler_isr
                0x40209c60                ets_timer_init
 *fill*         0x40209ce7        0x1 
 .irom0.text    0x40209ce8       0xf7 c:/Espressif/ESP8266_RTOS_SDK/lib\libmain.a(misc.o)
                                0x10b (size before relaxing)
                0x40209cf0                ets_delay_us
                0x40209cf0                os_delay_us
                0x40209d24                ets_update_cpu_frequency
                0x40209d24                os_update_cpu_frequency
                0x40209d2c                os_get_cpu_frequency
                0x40209d38                os_install_putc1
                0x40209d40                os_putc
                0x40209d58                gpio_output_set
                0x40209d7c                rtc_get_reset_reason
                0x40209dc4                bit_popcount
 *fill*         0x40209ddf        0x1 
 .irom0.text    0x40209de0       0x46 c:/Espressif/ESP8266_RTOS_SDK/lib\libmain.a(uart.o)
                                 0x4e (size before relaxing)
                0x40209de0                uart_buff_switch
                0x40209dec                uart_div_modify
                0x40209e24                Uart_Init
 *fill*         0x40209e26        0x2 
 .irom0.text    0x40209e28     0x30a1 c:/Espressif/ESP8266_RTOS_SDK/lib\libmain.a(user_interface.o)
                               0x3b25 (size before relaxing)
                0x40209ff8                system_pp_recycle_rx_pkt
                0x4020a00c                system_adc_read
                0x4020a024                system_get_vdd33
                0x4020a040                system_restart
                0x4020a094                system_restore
                0x4020a0ec                system_get_flash_size_map
                0x4020a10c                system_get_boot_version
                0x4020a144                system_get_test_result
                0x4020a16c                system_get_userbin_addr
                0x4020a204                system_get_boot_mode
                0x4020a234                system_restart_enhance
                0x4020a360                system_upgrade_userbin_set
                0x4020a3ac                system_upgrade_userbin_check
                0x4020a3ec                system_upgrade_flag_set
                0x4020a400                system_upgrade_flag_check
                0x4020a428                system_upgrade_reboot
                0x4020a550                system_deep_sleep_instant
                0x4020a6e8                system_deep_sleep
                0x4020a73c                system_deep_sleep_set_option
                0x4020a758                system_phy_temperature_alert
                0x4020a76c                system_phy_set_max_tpw
                0x4020a780                system_phy_set_tpw_via_vdd33
                0x4020a794                system_phy_set_rfoption
                0x4020a7a8                system_update_cpu_freq
                0x4020a800                system_get_cpu_freq
                0x4020a81c                system_overclock
                0x4020a848                system_restoreclock
                0x4020a87c                system_get_time
                0x4020a890                system_relative_time
                0x4020a8ac                system_station_got_ip_set
                0x4020a9d8                system_print_meminfo
                0x4020aa38                system_get_free_heap_size
                0x4020aa50                system_get_chip_id
                0x4020aa74                system_rtc_clock_cali_proc
                0x4020aa88                system_get_rtc_time
                0x4020aa94                system_get_rst_info
                0x4020aa9c                system_get_data_of_array_8
                0x4020aac0                system_get_data_of_array_16
                0x4020aaec                system_get_string_from_flash
                0x4020ab58                wifi_get_netif
                0x4020ab78                wifi_softap_dhcps_start
                0x4020abd4                wifi_softap_dhcps_stop
                0x4020ac28                wifi_softap_dhcps_status
                0x4020ac30                wifi_station_dhcpc_start
                0x4020aca0                wifi_station_dhcpc_stop
                0x4020acf8                wifi_station_dhcpc_event
                0x4020ad58                wifi_station_dhcpc_set_maxtry
                0x4020ad68                wifi_station_dhcpc_status
                0x4020ade0                wifi_get_opmode
                0x4020adf4                wifi_get_opmode_default
                0x4020af28                wifi_set_opmode
                0x4020af3c                wifi_set_opmode_current
                0x4020af50                system_get_checksum
                0x4020af90                wifi_param_save_protect_with_check
                0x4020b014                system_param_save_with_protect
                0x4020b0b0                system_save_sys_param
                0x4020b0d8                system_param_load
                0x4020b208                wifi_station_get_config
                0x4020b21c                wifi_station_get_config_default
                0x4020b23c                wifi_station_get_ap_info
                0x4020b304                wifi_station_ap_number_set
                0x4020b614                wifi_station_set_config
                0x4020b628                wifi_station_set_config_current
                0x4020b63c                wifi_station_get_current_ap_id
                0x4020b650                wifi_station_ap_check
                0x4020b688                wifi_station_ap_change
                0x4020b7b0                wifi_station_scan
                0x4020b810                wifi_station_get_auto_connect
                0x4020b824                wifi_station_set_auto_connect
                0x4020b874                wifi_station_connect
                0x4020b920                wifi_station_disconnect
                0x4020ba04                wifi_station_get_connect_status
                0x4020ba34                wifi_station_set_reconnect_policy
                0x4020ba40                wifi_station_get_reconnect_policy
                0x4020ba48                wifi_station_get_rssi
                0x4020ba8c                wifi_softap_cacl_mac
                0x4020bb00                wifi_softap_set_default_ssid
                0x4020bce0                wifi_softap_get_config
                0x4020bcf4                wifi_softap_get_config_default
                0x4020bf80                wifi_softap_set_config
                0x4020bf94                wifi_softap_set_config_current
                0x4020bfa8                wifi_softap_set_station_info
                0x4020c01c                wifi_softap_get_station_info
                0x4020c0e0                wifi_softap_free_station_info
                0x4020c130                wifi_softap_get_station_num
                0x4020c184                wifi_softap_deauth
                0x4020c250                wifi_register_user_ie_manufacturer_recv_cb
                0x4020c264                wifi_unregister_user_ie_manufacturer_recv_cb
                0x4020c288                wifi_set_user_ie
                0x4020c388                wifi_get_user_ie
                0x4020c3bc                wifi_get_phy_mode
                0x4020c3c4                wifi_set_phy_mode
                0x4020c498                wifi_set_sleep_type
                0x4020c4b4                wifi_get_sleep_type
                0x4020c4cc                wifi_get_channel
                0x4020c500                wifi_set_channel
                0x4020c584                wifi_promiscuous_set_mac
                0x4020c5f4                wifi_promiscuous_enable
                0x4020c6ec                wifi_set_promiscuous_rx_cb
                0x4020c6fc                wifi_get_ip_info
                0x4020c78c                wifi_set_ip_info
                0x4020c820                wifi_create_linklocal_ip
                0x4020c850                wifi_get_linklocal_ip
                0x4020c884                wifi_get_ipinfo_v6
                0x4020c8c0                wifi_get_macaddr
                0x4020c92c                wifi_set_macaddr
                0x4020ca5c                wifi_enable_6m_rate
                0x4020ca80                wifi_get_user_fixed_rate
                0x4020cac0                wifi_set_user_fixed_rate
                0x4020cb00                wifi_set_user_sup_rate
                0x4020cb4c                wifi_get_user_limit_rate_mask
                0x4020cb70                wifi_set_user_limit_rate_mask
                0x4020cba4                wifi_register_send_pkt_freedom_cb
                0x4020cbd4                wifi_unregister_send_pkt_freedom_cb
                0x4020cbf4                wifi_send_pkt_freedom
                0x4020cc54                wifi_rfid_locp_recv_open
                0x4020cc78                wifi_rfid_locp_recv_close
                0x4020cc98                wifi_register_rfid_locp_recv_cb
                0x4020ccc0                wifi_unregister_rfid_locp_recv_cb
                0x4020cce0                wifi_status_led_install
                0x4020cd38                wifi_status_led_uninstall
                0x4020cd6c                wifi_set_status_led_output_level
                0x4020cdbc                wifi_set_event_handler_cb
                0x4020ce2c                system_uart_swap
                0x4020ce8c                system_uart_de_swap
                0x4020cec4                system_get_sdk_version
 *fill*         0x4020cec9        0x3 
 .irom0.text    0x4020cecc        0xe c:/Espressif/ESP8266_RTOS_SDK/lib\libfreertos.a(heap_4.o)
                0x4020ced0                xPortGetFreeHeapSize
                0x4020ced8                vPortInitialiseBlocks
 *fill*         0x4020ceda        0x2 
 .irom0.text    0x4020cedc       0x9c c:/Espressif/ESP8266_RTOS_SDK/lib\libfreertos.a(port.o)
                                 0xa8 (size before relaxing)
                0x4020cee0                pxPortInitialiseStack
                0x4020cf20                xPortStartScheduler
                0x4020cf5c                vPortEndScheduler
                0x4020cf60                ResetCcountVal
                0x4020cf6c                _xt_isr_attach
 .irom0.text    0x4020cf78      0x757 c:/Espressif/ESP8266_RTOS_SDK/lib\libfreertos.a(queue.o)
                                0x8a7 (size before relaxing)
                0x4020cf78                xQueueGenericReset
                0x4020d008                xQueueGenericCreate
                0x4020d068                xQueueCreateMutex
                0x4020d0c4                xQueueGiveMutexRecursive
                0x4020d0fc                xQueueTakeMutexRecursive
                0x4020d13c                xQueueCreateCountingSemaphore
                0x4020d160                xQueueGenericSend
                0x4020d270                xQueueGenericSendFromISR
                0x4020d2e4                xQueueGenericReceive
                0x4020d448                xQueueReceiveFromISR
                0x4020d4b8                xQueuePeekFromISR
                0x4020d4e8                uxQueueMessagesWaiting
                0x4020d510                vQueueDelete
                0x4020d620                xQueueIsQueueEmptyFromISR
                0x4020d664                xQueueIsQueueFullFromISR
                0x4020d678                vQueueWaitForMessageRestricted
 *fill*         0x4020d6cf        0x1 
 .irom0.text    0x4020d6d0      0xbe6 c:/Espressif/ESP8266_RTOS_SDK/lib\libfreertos.a(tasks.o)
                                0xe3e (size before relaxing)
                0x4020d6dc                xTaskGenericCreate
                0x4020d7e4                vTaskDelete
                0x4020d85c                vTaskDelayUntil
                0x4020d8c8                vTaskDelay
                0x4020d910                uxTaskPriorityGet
                0x4020d93c                vTaskPrioritySet
                0x4020da10                vTaskSuspend
                0x4020da94                xTaskIsTaskSuspended
                0x4020dab8                vTaskResume
                0x4020db38                xTaskResumeFromISR
                0x4020dbc8                vTaskStartScheduler
                0x4020dc28                vTaskEndScheduler
                0x4020dc4c                vTaskSuspendAll
                0x4020dc64                prvGetExpectedIdleTime
                0x4020dc94                xTaskResumeAll
                0x4020dd90                xTaskGetTickCount
                0x4020ddb4                xTaskGetTickCountFromISR
                0x4020ddc0                uxTaskGetNumberOfTasks
                0x4020ddcc                xTaskGetIdleTaskHandle
                0x4020ddd4                vTaskStepTick
                0x4020dde8                vTaskPlaceOnEventList
                0x4020de40                vTaskPlaceOnEventListRestricted
                0x4020de80                xTaskRemoveFromEventList
                0x4020df00                vTaskSetTimeOutState
                0x4020df14                xTaskCheckForTimeOut
                0x4020df70                vTaskMissedYield
                0x4020dfa0                eTaskConfirmSleepModeStatus
                0x4020e1c8                uxTaskGetStackHighWaterMark
                0x4020e208                xTaskGetCurrentTaskHandle
                0x4020e214                xTaskGetSchedulerState
                0x4020e234                vTaskPriorityInherit
 *fill*         0x4020e2b6        0x2 
 .irom0.text    0x4020e2b8      0x40c c:/Espressif/ESP8266_RTOS_SDK/lib\libfreertos.a(timers.o)
                                0x4d0 (size before relaxing)
                0x4020e2c8                xTimerCreateTimerTask
                0x4020e318                xTimerCreate
                0x4020e36c                xTimerGenericCommand
                0x4020e3c8                xTimerGetTimerDaemonTaskHandle
                0x4020e698                xTimerIsTimerActive
                0x4020e6c0                pvTimerGetTimerID
 .irom0.text    0x4020e6c4     0x139e c:/Espressif/ESP8266_RTOS_SDK/lib\liblwip.a(dhcp.o)
                               0x156a (size before relaxing)
                0x4020e918                dhcp_coarse_tmr
                0x4020e964                dhcp_fine_tmr
                0x4020ebc0                dhcp_set_struct
                0x4020ebe8                dhcp_cleanup
                0x4020ec10                dhcp_start
                0x4020ecc4                dhcp_inform
                0x4020ed6c                dhcp_network_changed
                0x4020edb4                dhcp_arp_reply
                0x4020f090                dhcp_renew
                0x4020f2a8                dhcp_release
                0x4020f36c                dhcp_stop
 *fill*         0x4020fa62        0x2 
 .irom0.text    0x4020fa64      0xc47 c:/Espressif/ESP8266_RTOS_SDK/lib\liblwip.a(dhcpserver.o)
                                0xde7 (size before relaxing)
                0x4020fa64                node_insert_to_list
                0x4020fa9c                node_remove_from_list
                0x40210354                dhcps_start
                0x402103c0                dhcps_stop
                0x40210420                wifi_softap_set_dhcps_lease
                0x4021050c                wifi_softap_get_dhcps_lease
                0x40210598                dhcps_coarse_tmr
                0x40210604                wifi_softap_set_dhcps_offer_option
                0x40210648                wifi_softap_set_dhcps_lease_time
                0x40210678                wifi_softap_reset_dhcps_lease_time
                0x402106a4                wifi_softap_get_dhcps_lease_time
 *fill*         0x402106ab        0x1 
 .irom0.text    0x402106ac      0x5eb c:/Espressif/ESP8266_RTOS_SDK/lib\liblwip.a(dns.o)
                                0x68b (size before relaxing)
                0x402106b8                dns_init
                0x402106f8                dns_setserver
                0x40210718                dns_getserver
                0x4021072c                dns_tmr
                0x40210c34                dns_gethostbyname
 *fill*         0x40210c97        0x1 
 .irom0.text    0x40210c98      0x8a6 c:/Espressif/ESP8266_RTOS_SDK/lib\liblwip.a(etharp.o)
                                0x98e (size before relaxing)
                0x40210cf8                etharp_tmr
                0x40210f1c                etharp_cleanup_netif
                0x40210f58                etharp_find_addr
                0x40211134                etharp_output
                0x40211248                etharp_query
                0x40211448                etharp_request
                0x40211470                ethernet_input
 *fill*         0x4021153e        0x2 
 .irom0.text    0x40211540      0x382 c:/Espressif/ESP8266_RTOS_SDK/lib\liblwip.a(ip4_addr.o)
                                0x3a2 (size before relaxing)
                0x40211540                ip4_addr_isbroadcast
                0x40211570                ip4_addr_netmask_valid
                0x402115b0                ipaddr_addr
                0x402115d0                ipaddr_aton
                0x402117ec                ipaddr_ntoa
                0x40211800                ipaddr_ntoa_r
 *fill*         0x402118c2        0x2 
 .irom0.text    0x402118c4      0x441 c:/Espressif/ESP8266_RTOS_SDK/lib\liblwip.a(ip4.o)
                                0x4d9 (size before relaxing)
                0x402118c8                ip_route
                0x40211934                ip_input
                0x40211b80                ip_output_if
                0x40211ccc                ip_output
 *fill*         0x40211d05        0x3 
 .irom0.text    0x40211d08      0xb72 c:/Espressif/ESP8266_RTOS_SDK/lib\liblwip.a(ip6.o)
                                0xc46 (size before relaxing)
                0x40211d14                ip6_route
                0x40211e54                ip6_select_source_address
                0x40211fa0                ip6_input
                0x40212494                ip6_output_if
                0x402126d0                ip6_output
                0x4021282c                ip6_options_add_hbh_ra
 *fill*         0x4021287a        0x2 
 .irom0.text    0x4021287c      0x661 c:/Espressif/ESP8266_RTOS_SDK/lib\liblwip.a(mld6.o)
                                0x6e5 (size before relaxing)
                0x40212880                mld6_stop
                0x402128e0                mld6_report_groups
                0x40212910                mld6_lookfor_group
                0x402129f8                mld6_input
                0x40212b70                mld6_joingroup
                0x40212c2c                mld6_leavegroup
                0x40212ce8                mld6_tmr
 *fill*         0x40212edd        0x3 
 .irom0.text    0x40212ee0     0x1d53 c:/Espressif/ESP8266_RTOS_SDK/lib\liblwip.a(nd6.o)
                               0x1fb3 (size before relaxing)
                0x40212f00                nd6_input
                0x40213b70                nd6_tmr
                0x40214510                nd6_select_router
                0x4021476c                nd6_get_next_hop_entry
                0x4021490c                nd6_queue_packet
                0x40214b58                nd6_get_destination_mtu
                0x40214b90                nd6_reachability_hint
 *fill*         0x40214c33        0x1 
 .irom0.text    0x40214c34      0x42c c:/Espressif/ESP8266_RTOS_SDK/lib\liblwip.a(netif.o)
                                0x488 (size before relaxing)
                0x40214c34                netif_init
                0x40214c40                netif_add
                0x40214cc4                netif_set_addr
                0x40214cec                netif_remove
                0x40214d40                netif_find
                0x40214d80                netif_set_ipaddr
                0x40214dec                netif_set_gw
                0x40214dfc                netif_set_netmask
                0x40214e0c                netif_set_default
                0x40214e14                netif_set_up
                0x40214e50                netif_set_down
                0x40214e74                netif_set_link_up
                0x40214eb4                netif_set_link_down
                0x40214ec8                netif_matches_ip6_addr
                0x40214f04                netif_create_ip6_linklocal_address
                0x40214fe4                netif_create_ip4_linklocal_address
 .irom0.text    0x40215060      0x62e c:/Espressif/ESP8266_RTOS_SDK/lib\liblwip.a(pbuf.o)
                                0x68e (size before relaxing)
                0x40215060                pbuf_alloc
                0x402151a8                pbuf_realloc
                0x402151f0                pbuf_header
                0x4021525c                pbuf_free
                0x402152dc                pbuf_clen
                0x402152f4                pbuf_ref
                0x40215318                pbuf_cat
                0x40215344                pbuf_chain
                0x40215360                pbuf_dechain
                0x4021539c                pbuf_copy
                0x40215444                pbuf_copy_partial
                0x402154c4                pbuf_take
                0x40215524                pbuf_coalesce
                0x40215558                pbuf_get_at
                0x40215580                pbuf_memcmp
                0x402155ec                pbuf_memfind
                0x40215644                pbuf_strstr
 *fill*         0x4021568e        0x2 
 .irom0.text    0x40215690      0x372 c:/Espressif/ESP8266_RTOS_SDK/lib\liblwip.a(raw.o)
                                0x3d2 (size before relaxing)
                0x40215694                raw_input
                0x402157a0                raw_bind
                0x402157e4                raw_connect
                0x40215828                raw_recv
                0x40215830                raw_sendto
                0x40215960                raw_send
                0x40215974                raw_remove
                0x402159a8                raw_new
                0x402159ec                raw_new_ip6
 *fill*         0x40215a02        0x2 
 .irom0.text    0x40215a04      0x337 c:/Espressif/ESP8266_RTOS_SDK/lib\liblwip.a(sys_arch.o)
                                0x3d7 (size before relaxing)
                0x40215a04                sys_init
                0x40215a08                sys_sem_new
                0x40215a50                sys_sem_free
                0x40215a64                sys_sem_signal
                0x40215a80                sys_arch_sem_wait
                0x40215af8                sys_mbox_new
                0x40215b20                sys_mbox_free
                0x40215b40                sys_mbox_post
                0x40215b68                sys_mbox_trypost
                0x40215b94                sys_arch_mbox_fetch
                0x40215c18                sys_arch_mbox_tryfetch
                0x40215c3c                sys_mutex_new
                0x40215c60                sys_mutex_lock
                0x40215c84                sys_mutex_unlock
                0x40215ca0                sys_mutex_free
                0x40215cb4                sys_now
                0x40215cc8                sys_thread_new
                0x40215cfc                sys_arch_protect
                0x40215d10                sys_arch_unprotect
                0x40215d28                sys_arch_assert
 *fill*         0x40215d3b        0x1 
 .irom0.text    0x40215d3c     0x132c c:/Espressif/ESP8266_RTOS_SDK/lib\liblwip.a(tcp_in.o)
                               0x14e0 (size before relaxing)
                0x40215d44                tcp_input
 .irom0.text    0x40217068      0x38a c:/Espressif/ESP8266_RTOS_SDK/lib\liblwip.a(tcpip.o)
                                0x46a (size before relaxing)
                0x4021713c                tcpip_input
                0x40217190                tcpip_callback_with_block
                0x402171f0                tcpip_timeout
                0x40217240                tcpip_untimeout
                0x4021728c                tcpip_apimsg
                0x402172ec                tcpip_callbackmsg_new
                0x4021731c                tcpip_callbackmsg_delete
                0x40217330                tcpip_trycallback
                0x40217360                tcpip_init
                0x402173c4                pbuf_free_callback
                0x402173dc                mem_free_callback
 *fill*         0x402173f2        0x2 
 .irom0.text    0x402173f4     0x1147 c:/Espressif/ESP8266_RTOS_SDK/lib\liblwip.a(tcp.o)
                               0x12c3 (size before relaxing)
                0x402173f4                tcp_init
                0x402173fc                tcp_tmr
                0x40217590                tcp_close
                0x402175b4                tcp_shutdown
                0x40217620                tcp_abandon
                0x402176bc                tcp_abort
                0x402176d4                tcp_bind
                0x40217844                tcp_listen_with_backlog
                0x40217928                tcp_listen_dual_with_backlog
                0x40217974                tcp_update_rcv_ann_wnd
                0x402179b8                tcp_recved
                0x40217ab0                tcp_connect
                0x40217c5c                tcp_slowtmr
                0x40217f28                tcp_fasttmr
                0x40217f9c                tcp_process_refused_data
                0x40218024                tcp_segs_free
                0x40218040                tcp_seg_free
                0x40218068                tcp_setprio
                0x40218070                tcp_recv_null
                0x402181d0                tcp_alloc
                0x4021832c                tcp_new
                0x40218340                tcp_new_ip6
                0x40218358                tcp_arg
                0x4021835c                tcp_recv
                0x40218364                tcp_sent
                0x4021836c                tcp_err
                0x40218374                tcp_accept
                0x40218378                tcp_poll
                0x40218380                tcp_pcb_purge
                0x4021845c                tcp_pcb_remove
                0x402184c4                tcp_next_iss
                0x402184d4                tcp_eff_send_mss_impl
 *fill*         0x4021853b        0x1 
 .irom0.text    0x4021853c     0x1181 c:/Espressif/ESP8266_RTOS_SDK/lib\liblwip.a(tcp_out.o)
                               0x12c5 (size before relaxing)
                0x40218634                tcp_send_fin
                0x4021881c                tcp_write
                0x40218b78                tcp_enqueue_flags
                0x40218c5c                tcp_send_empty_ack
                0x40218d28                tcp_output
                0x402191ec                tcp_rst_impl
                0x40219368                tcp_rexmit_rto
                0x402193dc                tcp_rexmit
                0x40219490                tcp_rexmit_fast
                0x402194e8                tcp_keepalive
                0x4021959c                tcp_zero_window_probe
 *fill*         0x402196bd        0x3 
 .irom0.text    0x402196c0      0x31b c:/Espressif/ESP8266_RTOS_SDK/lib\liblwip.a(timers.o)
                                0x3bf (size before relaxing)
                0x40219700                tcp_timer_needed
                0x4021982c                sys_timeouts_init
                0x40219890                sys_timeout
                0x4021990c                sys_untimeout
                0x40219958                sys_timeouts_mbox_fetch
 *fill*         0x402199db        0x1 
 .irom0.text    0x402199dc      0x882 c:/Espressif/ESP8266_RTOS_SDK/lib\liblwip.a(udp.o)
                                0x95a (size before relaxing)
                0x402199dc                udp_init
                0x40219a2c                udp_input
                0x40219db4                udp_send
                0x40219dcc                udp_sendto
                0x40219e44                udp_sendto_if
                0x40219ff4                udp_bind
                0x4021a120                udp_connect
                0x4021a1b4                udp_disconnect
                0x4021a1dc                udp_recv
                0x4021a1e4                udp_remove
                0x4021a218                udp_new
                0x4021a248                udp_new_ip6
 *fill*         0x4021a25e        0x2 
 .irom0.text    0x4021a260     0x1041 c:/Espressif/ESP8266_RTOS_SDK/lib\liblwip.a(api_msg.o)
                               0x12f9 (size before relaxing)
                0x4021a748                lwip_netconn_do_newconn
                0x4021a770                netconn_alloc
                0x4021a81c                netconn_free
                0x4021a9f4                lwip_netconn_do_delconn
                0x4021aa8c                lwip_netconn_do_bind
                0x4021ab8c                lwip_netconn_do_connect
                0x4021ac6c                lwip_netconn_do_disconnect
                0x4021acac                lwip_netconn_do_listen
                0x4021ad7c                lwip_netconn_do_send
                0x4021ae5c                lwip_netconn_do_recv
                0x4021b044                lwip_netconn_do_write
                0x4021b0a0                lwip_netconn_do_getaddr
                0x4021b170                lwip_netconn_do_close
                0x4021b1d4                lwip_netconn_do_join_leave_group
                0x4021b26c                lwip_netconn_do_gethostbyname
 *fill*         0x4021b2a1        0x3 
 .irom0.text    0x4021b2a4      0x369 c:/Espressif/ESP8266_RTOS_SDK/lib\liblwip.a(icmp6.o)
                                0x409 (size before relaxing)
                0x4021b2a4                icmp6_input
                0x4021b3c4                icmp6_dest_unreach
                0x4021b3dc                icmp6_packet_too_big
                0x4021b3f4                icmp6_time_exceeded
                0x4021b40c                icmp6_param_problem
 *fill*         0x4021b60d        0x3 
 .irom0.text    0x4021b610      0x25e c:/Espressif/ESP8266_RTOS_SDK/lib\liblwip.a(icmp.o)
                                0x2f6 (size before relaxing)
                0x4021b614                icmp_input
                0x4021b7b0                icmp_dest_unreach
 *fill*         0x4021b86e        0x2 
 .irom0.text    0x4021b870       0x4a c:/Espressif/ESP8266_RTOS_SDK/lib\liblwip.a(init.o)
                                 0x7e (size before relaxing)
                0x4021b874                lwip_init
 *fill*         0x4021b8ba        0x2 
 .irom0.text    0x4021b8bc      0x266 c:/Espressif/ESP8266_RTOS_SDK/lib\liblwip.a(ip6_addr.o)
                                0x26e (size before relaxing)
                0x4021b8bc                ip6addr_aton
                0x4021ba14                ip6addr_ntoa
                0x4021ba28                ip6addr_ntoa_r
 *fill*         0x4021bb22        0x2 
 .irom0.text    0x4021bb24      0x6d7 c:/Espressif/ESP8266_RTOS_SDK/lib\liblwip.a(ip6_frag.o)
                                0x767 (size before relaxing)
                0x4021bb28                ip6_reass_tmr
                0x4021bc98                ip6_reass
 *fill*         0x4021c1fb        0x1 
 .irom0.text    0x4021c1fc      0x18c c:/Espressif/ESP8266_RTOS_SDK/lib\liblwip.a(netbuf.o)
                                0x1b8 (size before relaxing)
                0x4021c1fc                netbuf_new
                0x4021c22c                netbuf_delete
                0x4021c258                netbuf_alloc
                0x4021c294                netbuf_free
                0x4021c2b8                netbuf_ref
                0x4021c30c                netbuf_chain
                0x4021c340                netbuf_data
                0x4021c364                netbuf_next
                0x4021c380                netbuf_first
 .irom0.text    0x4021c388     0x18ab c:/Espressif/ESP8266_RTOS_SDK/lib\liblwip.a(sockets.o)
                               0x1b2f (size before relaxing)
                0x4021c388                lwip_socket_init
                0x4021c494                lwip_accept
                0x4021c630                lwip_bind
                0x4021c708                lwip_close
                0x4021c7a4                lwip_connect
                0x4021c880                lwip_listen
                0x4021c904                lwip_recvhold
                0x4021c948                lwip_recvunhold
                0x4021c9cc                lwip_recvfrom
                0x4021cc44                lwip_read
                0x4021cc5c                lwip_recv
                0x4021cc70                lwip_send
                0x4021cd30                lwip_sendto
                0x4021ce84                lwip_socket
                0x4021cf48                lwip_write
                0x4021d0d4                lwip_select
                0x4021d4d4                lwip_shutdown
                0x4021d57c                lwip_getpeername
                0x4021d590                lwip_getsockname
                0x4021d5b8                lwip_getsockopt
                0x4021d8d4                lwip_setsockopt
                0x4021db80                lwip_ioctl
                0x4021dbd8                lwip_fcntl
 *fill*         0x4021dc33        0x1 
 .irom0.text    0x4021dc34      0x7a5 c:/Espressif/ESP8266_RTOS_SDK/lib\liblwip.a(api_lib.o)
                                0x8f9 (size before relaxing)
                0x4021dc38                netconn_new_with_proto_and_callback
                0x4021dc90                netconn_delete
                0x4021dcc0                netconn_getaddr
                0x4021dd1c                netconn_bind
                0x4021dd70                netconn_connect
                0x4021dde0                netconn_disconnect
                0x4021de30                netconn_listen_with_backlog
                0x4021de88                netconn_accept
                0x4021e028                netconn_recv_tcp_pbuf
                0x4021e04c                netconn_recv
                0x4021e0f8                netconn_recved
                0x4021e128                netconn_sendto
                0x4021e18c                netconn_send
                0x4021e1e0                netconn_write_partly
                0x4021e2e4                netconn_close
                0x4021e2f8                netconn_shutdown
                0x4021e320                netconn_join_leave_group
                0x4021e37c                netconn_gethostbyname
 *fill*         0x4021e3d9        0x3 
 .irom0.text    0x4021e3dc      0xaba c:/Espressif/ESP8266_RTOS_SDK/lib\libminic.a(minic.o)
                                0xb32 (size before relaxing)
                0x4021e3e4                strtol
                0x4021e4f4                strcat
                0x4021e514                strncat
                0x4021e544                strspn
                0x4021e578                strcspn
                0x4021e5ac                strtok_r
                0x4021e604                strtok
                0x4021e618                strrchr
                0x4021e644                strdup
                0x4021e684                strchr
                0x4021e69c                strcasecmp
                0x4021e6e0                atoi
                0x4021e6f4                atol
                0x4021e710                sprintf
                0x4021e7b8                snprintf
                0x4021e7e8                vsnprintf
                0x4021ee5c                sscanf
                0x4021ee84                rand
 *fill*         0x4021ee96        0x2 
 .irom0.literal
                0x4021ee98        0x0 c:/Espressif/ESP8266_RTOS_SDK/lib\libmicroc.a(atof.o)
                                  0x4 (size before relaxing)
 .irom0.literal
                0x4021ee98        0x4 c:/Espressif/ESP8266_RTOS_SDK/lib\libmicroc.a(strtod.o)
                                 0x10 (size before relaxing)
 .irom0.literal
                0x4021ee9c        0x8 c:/Espressif/ESP8266_RTOS_SDK/lib\libmicroc.a(memchr.o)
 .irom0.literal
                0x4021eea4        0x4 c:/Espressif/ESP8266_RTOS_SDK/lib\libmicroc.a(__errno_location.o)
 .irom0.literal
                0x4021eea8       0x98 c:/Espressif/ESP8266_RTOS_SDK/lib\libmicroc.a(floatscan.o)
                                0x294 (size before relaxing)
 .irom0.literal
                0x4021ef40        0x0 c:/Espressif/ESP8266_RTOS_SDK/lib\libmicroc.a(shgetc.o)
                                  0x4 (size before relaxing)
 .irom0.literal
                0x4021ef40        0x0 c:/Espressif/ESP8266_RTOS_SDK/lib\libmicroc.a(__uflow.o)
                                  0x4 (size before relaxing)
 .irom0.literal
                0x4021ef40        0x0 c:/Espressif/ESP8266_RTOS_SDK/lib\libmicroc.a(__toread.o)
                                  0x4 (size before relaxing)
 .irom0.literal
                0x4021ef40        0x0 c:/Espressif/ESP8266_RTOS_SDK/lib\libmicroc.a(fmodl.o)
                                  0x4 (size before relaxing)
 .irom0.literal
                0x4021ef40        0x4 c:/Espressif/ESP8266_RTOS_SDK/lib\libmicroc.a(scalbn.o)
                                 0x24 (size before relaxing)
 .irom0.literal
                0x4021ef44        0x0 c:/Espressif/ESP8266_RTOS_SDK/lib\libmicroc.a(scalbnl.o)
                                  0x4 (size before relaxing)
 .irom0.literal
                0x4021ef44       0x18 c:/Espressif/ESP8266_RTOS_SDK/lib\libmicroc.a(fmod.o)
                                 0x38 (size before relaxing)
 .irom0.literal
                0x4021ef5c        0x8 c:/Espressif/ESP8266_RTOS_SDK/lib\libmicrogcc.a(_divsf3.o)
                                 0x10 (size before relaxing)
 .irom0.text    0x4021ef64       0x14 c:/Espressif/ESP8266_RTOS_SDK/lib\libmicroc.a(atof.o)
                0x4021ef64                atof
 .irom0.text    0x4021ef78       0xb5 c:/Espressif/ESP8266_RTOS_SDK/lib\libmicroc.a(strtod.o)
                                 0xb9 (size before relaxing)
                0x4021efec                strtof
                0x4021f008                strtod
                0x4021f01c                strtold
 *fill*         0x4021f02d        0x3 
 .irom0.text    0x4021f030       0x70 c:/Espressif/ESP8266_RTOS_SDK/lib\libmicroc.a(memchr.o)
                0x4021f030                memchr
 .irom0.text    0x4021f0a0        0x5 c:/Espressif/ESP8266_RTOS_SDK/lib\libmicroc.a(__errno_location.o)
                0x4021f0a0                __errno_location
 *fill*         0x4021f0a5        0x3 
 .irom0.text    0x4021f0a8     0x12e4 c:/Espressif/ESP8266_RTOS_SDK/lib\libmicroc.a(floatscan.o)
                               0x1328 (size before relaxing)
                0x4021fbdc                __floatscan
 .irom0.text    0x4022038c       0x93 c:/Espressif/ESP8266_RTOS_SDK/lib\libmicroc.a(shgetc.o)
                0x4022038c                __shlim
                0x402203ac                __shgetc
 *fill*         0x4022041f        0x1 
 .irom0.text    0x40220420       0x39 c:/Espressif/ESP8266_RTOS_SDK/lib\libmicroc.a(__uflow.o)
                0x40220420                __uflow
 *fill*         0x40220459        0x3 
 .irom0.text    0x4022045c       0x67 c:/Espressif/ESP8266_RTOS_SDK/lib\libmicroc.a(__toread.o)
                                 0x6b (size before relaxing)
                0x4022045c                __toread
                0x402204b4                __toread_needs_stdio_exit
 *fill*         0x402204c3        0x1 
 .irom0.text    0x402204c4        0xf c:/Espressif/ESP8266_RTOS_SDK/lib\libmicroc.a(fmodl.o)
                                 0x13 (size before relaxing)
                0x402204c4                fmodl
 *fill*         0x402204d3        0x1 
 .irom0.text    0x402204d4       0x8f c:/Espressif/ESP8266_RTOS_SDK/lib\libmicroc.a(scalbn.o)
                0x402204d4                scalbn
 *fill*         0x40220563        0x1 
 .irom0.text    0x40220564        0xf c:/Espressif/ESP8266_RTOS_SDK/lib\libmicroc.a(scalbnl.o)
                                 0x13 (size before relaxing)
                0x40220564                scalbnl
 *fill*         0x40220573        0x1 
 .irom0.text    0x40220574      0x1f1 c:/Espressif/ESP8266_RTOS_SDK/lib\libmicroc.a(fmod.o)
                0x40220574                fmod
 *fill*         0x40220765        0x3 
 .irom0.text    0x40220768       0xfa c:/Espressif/ESP8266_RTOS_SDK/lib\libphy.a(phy.o)
                                0x11e (size before relaxing)
                0x4022076c                rf_init
                0x40220788                bb_init
                0x402207a0                phy_init
                0x402207d0                RFChannelSel
                0x402207ec                phy_delete_channel
                0x40220804                phy_enable_agc
                0x4022081c                phy_disable_agc
                0x40220834                phy_initialize_bb
                0x4022084c                phy_set_sense
 *fill*         0x40220862        0x2 
 .irom0.text    0x40220864     0x16c3 c:/Espressif/ESP8266_RTOS_SDK/lib\libphy.a(phy_chip_v6_ana.o)
                               0x18e3 (size before relaxing)
                0x40220868                ram_pbus_set_rxgain
                0x40220934                ram_pbus_debugmode
                0x402209e8                ram_pbus_xpd_tx_on
                0x40220a54                set_rf_freq_offset
                0x40220ac4                chip_v6_rxmax_ext_ana
                0x40220c18                ram_chip_v6_rx_init
                0x40220c50                tsen_meas
                0x40220cfc                readvdd33
                0x40220ec4                txpwr_offset
                0x40220f80                set_txcap_reg
                0x40221000                ram_ana_inf_gating_en
                0x40221160                ram_restart_cal
                0x402211cc                wait_rfpll_cal_end
                0x4022124c                ram_rfpll_set_freq
                0x40221358                ram_set_channel_freq
                0x40221658                chip_60_set_channel
                0x402217e8                chip_v6_set_chan_offset
                0x40221824                chip_v6_set_chan
                0x402218b8                chip_v6_set_chan_wakeup
                0x40221938                chip_v6_rf_init
                0x40221b5c                low_power_set
                0x40221bac                test_tout
                0x40221d20                check_data_flag
                0x40221d40                phy_get_check_flag
                0x40221e74                phy_get_vdd33
 *fill*         0x40221f27        0x1 
 .irom0.text    0x40221f28     0x3b73 c:/Espressif/ESP8266_RTOS_SDK/lib\libphy.a(phy_chip_v6.o)
                               0x426b (size before relaxing)
                0x40221f28                ram_tx_mac_enable
                0x40221f2c                ram_tx_mac_disable
                0x40221f30                rtc_mem_backup
                0x40221f60                rtc_mem_recovery
                0x40221f90                set_cal_rxdc
                0x40222048                set_rx_gain_cal_iq
                0x402223a4                gen_rx_gain_table
                0x402224fc                pbus_set_rxbbgain
                0x4022257c                set_rx_gain_testchip_50
                0x402228b4                ram_get_corr_power
                0x402229a4                check_data_func
                0x402229c4                do_noisefloor_lsleep_v50
                0x402229f8                do_noisefloor
                0x40222a68                start_dig_rx
                0x40222aac                stop_dig_rx
                0x40222ad8                chip_v6_set_chanfreq
                0x40222b04                tx_cap_init
                0x40222ca8                target_power_add_backoff
                0x40222cf8                tx_pwctrl_init_cal
                0x40222e60                tx_atten_set_interp
                0x402230d0                tx_pwctrl_init
                0x402231c8                ram_get_noisefloor
                0x402231e4                get_noisefloor_sat
                0x40223214                ram_set_noise_floor
                0x40223270                ram_start_noisefloor
                0x402232bc                read_hw_noisefloor
                0x402232e4                noise_check_loop
                0x40223448                noise_init
                0x4022364c                target_power_backoff
                0x402236a0                sdt_on_noise_start
                0x40223720                chip_v6_set_chan_rx_cmp
                0x402238a8                chip_v6_set_chan_misc
                0x4022392c                phy_dig_spur_set
                0x40223c8c                phy_dig_spur_prot
                0x40223ec4                chip_v6_rxmax_ext_dig
                0x40223f10                chip_v6_rxmax_ext
                0x40223fbc                phy_bb_rx_cfg
                0x402243c8                uart_wait_idle
                0x40224400                phy_pbus_soc_cfg
                0x402244c0                phy_gpio_cfg
                0x402247f8                tx_cont_en
                0x4022489c                tx_cont_dis
                0x402248f0                tx_cont_cfg
                0x4022490c                chip_v6_initialize_bb
                0x40224a74                periodic_cal
                0x40224b60                bbpll_cal
                0x40224bec                periodic_cal_top
                0x40224c4c                register_chipv6_phy_init_param
                0x40224ef0                change_bbpll160_sleep
                0x4022501c                change_bbpll160
                0x4022504c                set_crystal_uart
                0x402250dc                ant_switch_init
                0x40225188                reduce_current_init
                0x402251f0                rtc_mem_check
                0x4022522c                phy_afterwake_set_rfoption
                0x4022524c                deep_sleep_set_option
                0x40225278                write_data_to_rtc
                0x402252b0                get_data_from_rtc
                0x40225300                register_chipv6_phy
                0x402256c0                set_dpd_bypass
                0x402256e8                set_rf_gain_stage10
                0x40225718                get_vdd33_offset
                0x4022578c                get_phy_target_power
                0x40225840                set_most_pwr_reg
                0x40225914                phy_set_most_tpw
                0x40225934                phy_vdd33_set_tpw
                0x4022594c                get_adc_rand
                0x40225980                phy_get_rand
                0x40225998                phy_tx_pwctrl_cali
                0x402259c0                phy_check_data_table
                0x402259fc                phy_after_init_enrx
                0x40225a5c                phy_set_rx11b_reg
                0x40225a90                phy_set_powerup_option
 *fill*         0x40225a9b        0x1 
 .irom0.text    0x40225a9c     0x21a8 c:/Espressif/ESP8266_RTOS_SDK/lib\libphy.a(phy_chip_v6_cal.o)
                               0x23ec (size before relaxing)
                0x40225a9c                txbbgain2dcoindex
                0x40225abc                dcoindex2txbbgain
                0x40225ae0                init_cal_dcoffset
                0x40225ba4                set_rfanagain_dc_reg
                0x40225c40                set_txdc_pbus
                0x40225cac                get_rf_gain_qdb
                0x40225cd4                correct_rf_ana_gain
                0x40225ddc                get_sar_dout
                0x40225e74                cal_rf_ana_gain
                0x40225f4c                meas_tone_pwr_db
                0x40225fbc                tx_pwr_backoff
                0x40226108                get_fcc_1m2m_pwr_offset
                0x40226144                ram_set_txbb_atten
                0x402261d8                txiq_get_mis_pwr
                0x4022627c                txiq_cover
                0x40226498                ram_rfcal_txiq
                0x40226704                rc_cal
                0x402268c4                get_target_power_offset
                0x402269cc                get_pwctrl_correct
                0x40226a28                tx_pwctrl_cal
                0x40226db8                tx_pwctrl_bg_init
                0x40226e30                tx_pwctrl_background
                0x40226f08                read_sar_dout
                0x40226f6c                ram_get_fm_sar_dout
                0x40227010                ram_cal_tos_v60
                0x402271f0                ram_get_bb_atten
                0x40227220                ram_rfcal_txcap
                0x402273e4                ram_rfcal_pwrctrl
                0x40227600                ram_rxiq_get_mis
                0x402277d0                ram_rxiq_cover_mg_mp
                0x40227974                ram_rfcal_rxiq
                0x40227b80                dpd_scale_set
                0x40227bc8                dpd_mem_write
 .irom0.text    0x40227c44      0xd4e c:/Espressif/ESP8266_RTOS_SDK/lib\libphy.a(phy_sleep.o)
                                0xfaa (size before relaxing)
                0x40227c44                pm_usec2rtc
                0x40227c78                pm_rtc2usec
                0x40227c84                pm_set_sleep_cycles
                0x40227cac                pm_sleep_opt
                0x40227dc4                pm_wakeup_opt
                0x40227dfc                get_chip_version
                0x40227e3c                pm_sleep_opt_bb_off
                0x40227e7c                pm_sleep_opt_bb_on
                0x40227ec8                pm_set_pll_xtal_wait_time
                0x40227f10                pm_prepare_to_sleep
                0x40227f34                pm_sdio_nidle
                0x40227fa8                chg_lslp_mem_opt_8266
                0x40227fd8                pm_goto_sleep
                0x40228124                pm_wait4wakeup
                0x4022815c                pm_open_rf
                0x4022819c                pm_sleep_set_mac
                0x40228220                pm_set_wakeup_mac
                0x402282bc                pm_check_mac_idle
                0x40228314                pm_set_sleep_btco
                0x402283ac                pm_set_wakeup_btco
                0x402284b4                pm_set_sleep_mode
                0x402285d0                pm_unmask_bt
                0x40228638                pm_wakeup_init
                0x40228838                sleep_opt_8266
                0x40228858                sleep_opt_bb_on_8266
                0x40228890                sleep_reset_analog_rtcreg_8266
 *fill*         0x40228992        0x2 
 .irom0.text    0x40228994      0x9a0 c:/Espressif/ESP8266_RTOS_SDK/lib\libphy.a(phy_chip_v5_romfunc.o)
                                0xa8c (size before relaxing)
                0x40228994                rom_abs_temp
                0x402289a0                rom_chip_v5_disable_cca
                0x402289bc                rom_chip_v5_enable_cca
                0x402289dc                rom_chip_v5_sense_backoff
                0x40228a28                rom_dc_iq_est
                0x40228a84                rom_en_pwdet
                0x40228af4                rom_get_bb_atten
                0x40228b1c                rom_get_corr_power
                0x40228b98                rom_get_fm_sar_dout
                0x40228c34                rom_get_noisefloor
                0x40228c50                rom_get_power_db
                0x40228ca0                rom_iq_est_disable
                0x40228cd0                rom_iq_est_enable
                0x40228d24                rom_linear_to_db
                0x40228d9c                rom_set_txclk_en
                0x40228de0                rom_set_rxclk_en
                0x40228e30                rom_mhz2ieee
                0x40228e90                rom_rxiq_get_mis
                0x40228f98                rom_sar_init
                0x40228fec                rom_set_ana_inf_tx_scale
                0x40229028                rom_set_loopback_gain
                0x4022908c                rom_set_noise_floor
                0x402290c8                rom_start_noisefloor
                0x40229104                rom_start_tx_tone
                0x402291d0                rom_stop_tx_tone
                0x4022925c                rom_txtone_linear_pwr
                0x402292c4                rom_tx_mac_disable
                0x40229300                rom_tx_mac_enable
 .irom0.text    0x40229334      0xf77 c:/Espressif/ESP8266_RTOS_SDK/lib\libphy.a(phy_chip_v5_ana_romfunc.o)
                               0x112b (size before relaxing)
                0x40229334                rom_ana_inf_gating_en
                0x402294a0                rom_set_channel_freq
                0x402297b0                rom_chip_50_set_channel
                0x402299b0                rom_chip_v5_rx_init
                0x40229a1c                rom_chip_v5_tx_init
                0x40229af0                rom_i2c_readReg
                0x40229b24                rom_i2c_readReg_Mask
                0x40229b60                rom_i2c_writeReg
                0x40229b94                rom_i2c_writeReg_Mask
                0x40229c04                rom_pbus_debugmode
                0x40229c94                rom_pbus_enter_debugmode
                0x40229cc8                rom_pbus_exit_debugmode
                0x40229cfc                rom_pbus_force_test
                0x40229d58                rom_pbus_rd
                0x40229dc4                rom_pbus_set_rxgain
                0x40229e88                rom_pbus_set_txgain
                0x40229ebc                rom_pbus_workmode
                0x40229efc                rom_pbus_xpd_rx_off
                0x40229f44                rom_pbus_xpd_rx_on
                0x40229f74                rom_pbus_xpd_tx_off
                0x40229fb4                rom_pbus_xpd_tx_on
                0x4022a014                rom_pbus_xpd_tx_on__low_gain
                0x4022a078                rom_phy_reset_req
                0x4022a090                rom_restart_cal
                0x4022a0dc                rom_rfpll_reset
                0x4022a14c                rom_write_rfpll_sdm
                0x4022a1cc                rom_rfpll_set_freq
 *fill*         0x4022a2ab        0x1 
 .irom0.text    0x4022a2ac     0x113e c:/Espressif/ESP8266_RTOS_SDK/lib\libphy.a(phy_chip_v5_cal_romfunc.o)
                               0x124a (size before relaxing)
                0x4022a2ac                rom_cal_tos_v50
                0x4022a45c                rom_pbus_dco_( [2]) static
                0x4022a714                rom_rfcal_pwrctrl
                0x4022a89c                rom_rfcal_rxiq
                0x4022aaa8                rom_rfcal_rxiq_set_reg
                0x4022abac                rom_rfcal_txcap
                0x4022ae0c                rom_rfcal_txiq
                0x4022b058                rom_rfcal_txiq_cover
                0x4022b05c                rom_rfcal_txiq_set_reg
                0x4022b138                rom_rxiq_cover_mg_mp
                0x4022b288                rom_set_txbb_atten
                0x4022b358                rom_set_txiq_cal
 *fill*         0x4022b3ea        0x2 
 .irom0.text    0x4022b3ec      0x415 c:/Espressif/ESP8266_RTOS_SDK/lib\libpp.a(if_hwctrl.o)
                                0x511 (size before relaxing)
                0x4022b3f0                ic_get_addr
                0x4022b3fc                ic_set_opmode
                0x4022b410                ic_enable_interface
                0x4022b460                ic_interface_enabled
                0x4022b474                ic_disable_interface
                0x4022b4bc                ic_is_pure_sta
                0x4022b4d8                ic_get_ptk_alg
                0x4022b4e8                ic_get_gtk_alg
                0x4022b4f8                ic_set_ptk_alg
                0x4022b508                ic_set_gtk_alg
                0x4022b518                ic_interface_is_p2p
                0x4022b5a4                ic_set_vif
                0x4022b640                ic_set_sta
                0x4022b710                ic_bss_info_update
                0x4022b76c                ic_set_key
                0x4022b7c8                ic_remove_key
                0x4022b7dc                ic_get_rssi
 *fill*         0x4022b801        0x3 
 .irom0.text    0x4022b804      0x100 c:/Espressif/ESP8266_RTOS_SDK/lib\libpp.a(lmac.o)
                                0x118 (size before relaxing)
                0x4022b808                lmacInitAc
                0x4022b83c                lmacInit
                0x4022b8e8                lmacSetRetryLimit
 .irom0.text    0x4022b904     0x1cf9 c:/Espressif/ESP8266_RTOS_SDK/lib\libpp.a(pm.o)
                               0x23ed (size before relaxing)
                0x4022b988                pm_rtc_clock_cali_proc
                0x4022b9c0                pm_get_ck170_period
                0x4022b9e4                pm_set_sleep_time
                0x4022bf98                pm_rf_is_closed
                0x4022bfd4                pm_set_sleep_type_from_upper
                0x4022c080                pm_get_sleep_type
                0x4022c230                uart_tx_flush
                0x4022c234                pm_suspend
                0x4022c44c                pm_shutdown
                0x4022c524                pm_reset_idle_sleep
                0x4022c558                pm_idle_sleep
                0x4022c564                pm_open
                0x4022c644                pm_onBcnRx
                0x4022cba0                vApplicationIdleHook
                0x4022cbd0                freertos_set_idle_cb
                0x4022cf8c                pm_enable_gpio_wakeup
                0x4022cfc8                pm_attach
                0x4022d0cc                pm_send_nullfunc
                0x4022d254                pm_is_waked
                0x4022d26c                pm_is_open
                0x4022d284                pm_scan_lock
                0x4022d2ac                pm_try_scan_unlock
                0x4022d2c4                pm_force_scan_unlock
                0x4022d380                pm_scan_unlocked
                0x4022d394                pm_allow_tx
                0x4022d3b0                pm_assoc_parse
                0x4022d3c8                pm_set_addr
                0x4022d3e8                pm_sleep_for
                0x4022d424                pm_post
                0x4022d5bc                pm_get_idle_wait_time
 *fill*         0x4022d5fd        0x3 
 .irom0.text    0x4022d600      0xbc1 c:/Espressif/ESP8266_RTOS_SDK/lib\libpp.a(pm_for_bcn_only_mode.o)
                                0xfb5 (size before relaxing)
                0x4022d614                wifi_fpm_set_sleep_type
                0x4022d614                fpm_set_type_from_upper
                0x4022d688                fpm_get_slp_type
                0x4022d688                wifi_fpm_get_sleep_type
                0x4022d690                fpm_rf_is_closed
                0x4022d6a4                fpm_is_open
                0x4022d6b0                fpm_allow_tx
                0x4022d6d4                fpm_close
                0x4022d6d4                wifi_fpm_close
                0x4022d754                fpm_open
                0x4022d754                wifi_fpm_open
                0x4022d7c0                fpm_attach
                0x4022dad0                fpm_set_wakeup_cb
                0x4022dad0                wifi_fpm_set_wakeup_cb
                0x4022dc14                fpm_do_wakeup
                0x4022dc14                wifi_fpm_do_wakeup
                0x4022e144                fpm_do_sleep
                0x4022e144                wifi_fpm_do_sleep
 *fill*         0x4022e1c1        0x3 
 .irom0.text    0x4022e1c4     0x184e c:/Espressif/ESP8266_RTOS_SDK/lib\libpp.a(pp.o)
                               0x1d4a (size before relaxing)
                0x4022e1cc                PPWdtReset
                0x4022e1fc                pp_soft_wdt_init
                0x4022e224                system_soft_wdt_feed
                0x4022e224                pp_soft_wdt_feed
                0x4022e244                system_soft_wdt_stop
                0x4022e244                pp_soft_wdt_stop
                0x4022e27c                system_soft_wdt_restart
                0x4022e27c                pp_soft_wdt_restart
                0x4022e2b8                RxNodeNum
                0x4022e2d0                TxNodeNum
                0x4022e318                pp_disable_noise_timer
                0x4022e33c                pp_enable_noise_timer
                0x4022e44c                pp_noise_test
                0x4022e45c                reset_noise_timer
                0x4022e490                pp_disable_idle_timer
                0x4022e4b4                pp_enable_idle_timer
                0x4022e4dc                pp_try_enable_idle_timer
                0x4022e514                ppProcessRxPktHdr
                0x4022e594                ppTask
                0x4022e9c4                ppTxPkt
                0x4022eb70                ppProcessWaitQ
                0x4022eb80                ppRegisterTxCallback
                0x4022eba8                ppUnregisterTxCallback
                0x4022ebdc                ppRecycleRxPkt
                0x4022ec3c                ppCheckTxIdle
                0x4022eefc                pp_tx_idle_timeout
                0x4022f0c0                DefFreqCalTimerCB
                0x4022f430                ppGetTxQFirstAvail_Locked
                0x4022f5d4                pp_attach
 *fill*         0x4022fa12        0x2 
 .irom0.text    0x4022fa14      0x296 c:/Espressif/ESP8266_RTOS_SDK/lib\libpp.a(rate_control.o)
                                0x2a2 (size before relaxing)
                0x4022fc60                RC_SetBasicRate
 *fill*         0x4022fcaa        0x2 
 .irom0.text    0x4022fcac      0x5e5 c:/Espressif/ESP8266_RTOS_SDK/lib\libpp.a(trc.o)
                                0x649 (size before relaxing)
                0x4022fcac                phytype2mode
                0x4022fcc8                rc_set_rate_limit_id
                0x4022fde4                rcUpdatePhyMode
                0x4022ffb0                rcAttach
                0x4022fffc                rcGetTrc
                0x40230004                trc_onDisconnect
                0x40230008                trc_onScanStart
                0x4023001c                trc_onScanDone
                0x40230038                rc_enable_trc
                0x4023010c                rc_get_mask
                0x40230120                rc_disable_trc
                0x40230174                rc_disable_trc_by_interface
                0x40230190                rc_get_sta_trc
                0x402301d4                rc_get_trc
                0x40230244                rc_get_trc_by_index
                0x40230264                rc_only_sta_trc
 *fill*         0x40230291        0x3 
 .irom0.text    0x40230294      0xbc6 c:/Espressif/ESP8266_RTOS_SDK/lib\libpp.a(wdev.o)
                                0xd72 (size before relaxing)
                0x402302a0                wDev_Option_Init
                0x40230394                wDev_Enable_Beacon_Tsf
                0x402303b0                wDev_Disable_Beacon_Tsf
                0x402303cc                wDev_Set_Beacon_Int
                0x402303d4                wDev_Reset_TBTT
                0x40230404                wDev_Get_Next_TBTT
                0x40230678                wDev_MacTim1SetFunc
                0x4023069c                wDev_Initialize
                0x40230710                wDevForceAck6M
                0x4023072c                wDev_SetMacAddress
                0x402307c8                wDev_SetRxPolicy
                0x4023081c                wDev_SetBssid
                0x402308f4                wDev_ClearBssid
                0x4023092c                wDev_Insert_KeyEntry
                0x40230a20                wDev_remove_KeyEntry
                0x40230a5c                wDev_remove_KeyEntry_all_cnx
                0x40230aac                wDev_Crypto_Conf
                0x40230b48                wDev_Crypto_Disable
                0x40230b80                wDevDisableRx
                0x40230ba0                wDevEnableRx
                0x40230bd0                wdev_go_sniffer
                0x40230ce4                wdev_set_sniffer_addr
                0x40230d38                wdev_exit_sniffer
 *fill*         0x40230e5a        0x2 
 .irom0.text    0x40230e5c      0x4cd c:/Espressif/ESP8266_RTOS_SDK/lib\libpp.a(esf_buf.o)
                                0x62d (size before relaxing)
                0x40230e60                esf_buf_alloc
                0x40231090                esf_buf_recycle
                0x40231270                esf_buf_setup
 *fill*         0x40231329        0x3 
 .irom0.text    0x4023132c      0x441 c:/Espressif/ESP8266_RTOS_SDK/lib\libnet80211.a(ieee80211.o)
                                0x521 (size before relaxing)
                0x402313b0                ieee80211_rate_ref_init
                0x402313c4                ieee80211_freedom_inside_cb
                0x402313f4                ieee80211_freedom_init
                0x40231418                ieee80211_user_ie_init
                0x40231434                ieee80211_ifattach
                0x40231490                ieee80211_mhz2ieee
                0x402314ec                ieee80211_chan2ieee
                0x40231508                ieee80211_ieee2mhz
                0x40231548                ieee80211_find_channel
                0x40231574                ieee80211_find_channel_byieee
                0x402315c0                wifi_mode_set
 *fill*         0x4023176d        0x3 
 .irom0.text    0x40231770       0xcf c:/Espressif/ESP8266_RTOS_SDK/lib\libnet80211.a(ieee80211_crypto.o)
                                 0xd7 (size before relaxing)
                0x40231770                ieee80211_crypto_attach
                0x40231774                ieee80211_crypto_available
                0x40231778                ieee80211_crypto_setkey
                0x4023177c                ieee80211_crypto_encap
                0x402317d4                ieee80211_crypto_decap
 *fill*         0x4023183f        0x1 
 .irom0.text    0x40231840       0x45 c:/Espressif/ESP8266_RTOS_SDK/lib\libnet80211.a(ieee80211_ets.o)
                                 0x49 (size before relaxing)
                0x40231840                ieee80211_getmgtframe
 *fill*         0x40231885        0x3 
 .irom0.text    0x40231888     0x180e c:/Espressif/ESP8266_RTOS_SDK/lib\libnet80211.a(ieee80211_hostap.o)
                               0x1d5a (size before relaxing)
                0x40231d3c                ieee80211_hostap_attach
                0x40231e6c                hostap_handle_timer
                0x40231f04                hostap_input
                0x40232d6c                wifi_softap_start
                0x40232f3c                wifi_softap_stop
 *fill*         0x40233096        0x2 
 .irom0.text    0x40233098      0xa62 c:/Espressif/ESP8266_RTOS_SDK/lib\libnet80211.a(ieee80211_ht.o)
                                0xb2e (size before relaxing)
                0x402330a8                ieee80211_ht_attach
                0x402330f8                ieee80211_ht_node_init
                0x40233134                ieee80211_ht_node_cleanup
                0x4023316c                ieee80211_parse_htcap
                0x40233240                ieee80211_ht_updateparams
                0x40233354                ieee80211_setup_htrates
                0x40233420                ieee80211_setup_basic_htrates
                0x40233764                ieee80211_add_htcap
                0x40233780                ieee80211_add_htcap_vendor
                0x402338a4                ieee80211_add_htinfo
                0x402338c0                ieee80211_add_htinfo_vendor
 *fill*         0x40233afa        0x2 
 .irom0.text    0x40233afc      0xa94 c:/Espressif/ESP8266_RTOS_SDK/lib\libnet80211.a(ieee80211_input.o)
                                0xb40 (size before relaxing)
                0x40233afc                ieee80211_deliver_data
                0x40233b7c                ieee80211_decap
                0x40233c80                ieee80211_setup_rates
                0x40233cec                ieee80211_alloc_challenge
                0x40233d24                ieee80211_parse_beacon
                0x402342e4                ieee80211_parse_wpa
                0x402343f8                ieee80211_parse_rsn
                0x402344f0                ieee80211_parse_action
                0x4023458c                ieee80211_setup_rateset
 .irom0.text    0x40234590      0x29a c:/Espressif/ESP8266_RTOS_SDK/lib\libnet80211.a(ieee80211_mesh_quick.o)
                                0x2f2 (size before relaxing)
                0x40234598                ieee80211_mesh_quick_init
                0x40234604                ieee80211_mesh_quick_deinit
                0x40234630                ieee80211_mesh_quick_set
                0x4023472c                ieee80211_mesh_quick_get
                0x402347f8                ieee80211_mesh_quick_ie_add
 *fill*         0x4023482a        0x2 
 .irom0.text    0x4023482c     0x1cee c:/Espressif/ESP8266_RTOS_SDK/lib\libnet80211.a(ieee80211_output.o)
                               0x20ae (size before relaxing)
                0x40234830                ieee80211_output_pbuf
                0x40234aac                ieee80211_send_setup
                0x40234be0                ieee80211_mgmt_output
                0x40234cd0                ieee80211_tx_mgt_cb
                0x40234cd4                ieee80211_send_nulldata
                0x4023515c                ieee80211_add_rates
                0x402351ac                ieee80211_add_xrates
                0x40235254                ieee80211_send_probereq
                0x402354a8                ieee80211_getcapinfo
                0x40235500                ieee80211_send_mgmt
                0x40235b0c                ieee80211_alloc_proberesp
                0x40235ce4                ieee80211_send_proberesp
                0x40235e38                ieee80211_alloc_deauth
                0x40235e78                ieee80211_send_deauth
                0x40235fc0                ieee80211_freedom_output
                0x40236384                ieee80211_beacon_alloc
 *fill*         0x4023651a        0x2 
 .irom0.text    0x4023651c       0xd0 c:/Espressif/ESP8266_RTOS_SDK/lib\libnet80211.a(ieee80211_phy.o)
                                 0xf4 (size before relaxing)
                0x4023651c                ieee80211_phy_init
                0x40236550                ieee80211_phy_type_get
                0x40236568                ieee80211_setup_ratetable
 .irom0.text    0x402365ec      0x1ae c:/Espressif/ESP8266_RTOS_SDK/lib\libnet80211.a(ieee80211_power.o)
                                0x1ee (size before relaxing)
                0x402365ec                ieee80211_psq_init
                0x402365f8                ieee80211_psq_cleanup
                0x40236600                ieee80211_set_tim
                0x40236640                ieee80211_pwrsave
                0x402366a8                pwrsave_flushq
                0x40236764                ieee80211_node_pwrsave
 *fill*         0x4023679a        0x2 
 .irom0.text    0x4023679c       0xf7 c:/Espressif/ESP8266_RTOS_SDK/lib\libnet80211.a(ieee80211_proto.o)
                                0x127 (size before relaxing)
                0x402367a0                ieee80211_proto_attach
                0x402367c8                ieee80211_set_shortslottime
                0x402367e4                ieee80211_iserp_rateset
                0x40236818                ieee80211_wme_initparams
                0x4023681c                ieee80211_wme_updateparams
                0x40236824                ieee80211_mlme_connect_bss
 *fill*         0x40236893        0x1 
 .irom0.text    0x40236894       0xaa c:/Espressif/ESP8266_RTOS_SDK/lib\libnet80211.a(ieee80211_rfid.o)
                                 0xd6 (size before relaxing)
                0x40236894                ieee80211_rfid_locp_recv_open
                0x402368cc                ieee80211_rfid_locp_recv_close
                0x402368e4                ieee80211_rfid_locp_recv_reset
                0x40236904                ieee80211_rfid_locp_recv
                0x40236920                register_ieee80211_rfid_locp_recv_cb
                0x40236934                unregister_ieee80211_rfid_locp_recv_cb
 *fill*         0x4023693e        0x2 
 .irom0.text    0x40236940      0xf7d c:/Espressif/ESP8266_RTOS_SDK/lib\libnet80211.a(ieee80211_scan.o)
                               0x1315 (size before relaxing)
                0x4023694c                ieee80211_scan_attach
                0x402369e0                scan_start
                0x40236b98                scan_pm_channel_op_cb
                0x40236d48                scan_cancel
                0x40236ed8                scan_add_bssid
                0x40236efc                scan_remove_bssid
                0x40236f08                scan_hidden_ssid
                0x40236f10                scan_add_probe_ssid
                0x40236f64                scan_remove_probe_ssid
                0x402370a0                scan_clear_channles
                0x40237110                scan_set_desChan
                0x4023711c                scan_get_type
                0x40237124                cannel_scan_connect_state
                0x4023713c                scan_connect_state
                0x40237184                scan_check_hidden
                0x402371ac                scan_profile_check
                0x40237554                scan_parse_beacon
 *fill*         0x402378bd        0x3 
 .irom0.text    0x402378c0      0xeed c:/Espressif/ESP8266_RTOS_SDK/lib\libnet80211.a(ieee80211_sta.o)
                               0x11d1 (size before relaxing)
                0x4023791c                sta_status_set
                0x4023798c                ieee80211_sta_new_state
                0x40237c94                sta_input
                0x402380d8                ieee80211_parse_wmeparams
                0x402386d8                wifi_station_start
                0x40238768                wifi_station_stop
 *fill*         0x402387ad        0x3 
 .irom0.text    0x402387b0      0x302 c:/Espressif/ESP8266_RTOS_SDK/lib\libnet80211.a(wl_chm.o)
                                0x3b6 (size before relaxing)
                0x402387bc                chm_init
                0x40238854                chm_acquire_lock
                0x40238898                chm_release_lock
                0x402388ac                chm_start_op
                0x4023894c                chm_end_op
                0x40238994                chm_cancel_op
                0x402389c8                chm_return_home_channel
                0x402389f8                chm_set_current_channel
                0x40238a5c                chm_freq2index
                0x40238a84                chm_check_same_channel
 *fill*         0x40238ab2        0x2 
 .irom0.text    0x40238ab4     0x164c c:/Espressif/ESP8266_RTOS_SDK/lib\libnet80211.a(wl_cnx.o)
                               0x1bb0 (size before relaxing)
                0x40238ac0                cnx_attach
                0x40238b00                cnx_sta_connect_led_timer_cb
                0x40238b4c                cnx_sta_connect_cmd
                0x40238c00                cnx_sta_scan_cmd
                0x40238e58                cnx_connect_timeout
                0x40238ed4                cnx_auth_timeout
                0x40238ef8                cnx_assoc_timeout
                0x40238f1c                cnx_handshake_timeout
                0x40238f40                cnx_start_handoff_cb
                0x4023938c                cnx_bss_alloc
                0x4023942c                cnx_rc_search
                0x402394a8                cnx_add_rc
                0x40239514                cnx_remove_all_rc
                0x40239560                cnx_remove_rc
                0x40239630                cnx_rc_update_rssi
                0x402396b8                cnx_rc_update_state_metric
                0x40239724                cnx_rc_update_age
                0x40239748                cnx_update_bss
                0x40239780                cnx_update_bss_more
                0x40239920                cnx_sta_leave
                0x40239b84                cnx_sta_associated
                0x40239c2c                cnx_node_alloc
                0x40239c98                cnx_node_remove
                0x40239d18                cnx_node_search
                0x40239d94                cnx_node_leave
                0x40239e84                wifi_softap_staconnected_event_policy
                0x40239eac                wifi_softap_toomany_deny
                0x40239ee8                cnx_node_join
 .irom0.text    0x4023a100      0x16f c:/Espressif/ESP8266_RTOS_SDK/lib\libnet80211.a(ieee80211_action.o)
                                0x193 (size before relaxing)
                0x4023a110                ieee80211_send_action_register
                0x4023a144                ieee80211_send_action_unregister
                0x4023a158                ieee80211_send_action
                0x4023a1c4                ieee80211_recv_action_register
                0x4023a1f8                ieee80211_recv_action_unregister
                0x4023a20c                ieee80211_recv_action
 *fill*         0x4023a26f        0x1 
 .irom0.text    0x4023a270      0x479 c:/Espressif/ESP8266_RTOS_SDK/lib\libnet80211.a(ieee80211_action_vendor.o)
                                0x505 (size before relaxing)
                0x4023a274                get_iav_key
                0x4023a294                register_ieee80211_action_vendor_get_key_cb
                0x4023a2a8                unregister_ieee80211_action_vendor_get_key_cb
                0x4023a2bc                ieee80211_add_action_vendor_spec_esp
                0x4023a304                ieee80211_alloc_action_vendor_spec
                0x4023a3f0                ieee80211_send_action_vendor_spec
                0x4023a584                ieee80211_recv_action_vendor_spec
                0x4023a68c                ieee80211_action_vendor_spec_attach
                0x4023a6cc                register_ieee80211_action_vendor_spec_cb
                0x4023a6e0                unregister_ieee80211_action_vendor_spec_cb
 *fill*         0x4023a6e9        0x3 
 .irom0.text    0x4023a6ec      0x15d c:/Espressif/ESP8266_RTOS_SDK/lib\libnet80211.a(ieee80211_crypto_ccmp.o)
                                0x165 (size before relaxing)
 *fill*         0x4023a849        0x3 
 .irom0.text    0x4023a84c      0x23d c:/Espressif/ESP8266_RTOS_SDK/lib\libnet80211.a(ieee80211_ie_vendor.o)
                                0x25d (size before relaxing)
                0x4023a850                ieee80211_add_ie_vendor_esp_head
                0x4023a888                ieee80211_add_ie_vendor_esp_mesh_assoc
                0x4023a90c                ieee80211_add_ie_vendor_esp_mesh_group
                0x4023a93c                ieee80211_add_ie_vendor_esp_simple_pair
                0x4023a98c                ieee80211_add_ie_vendor_esp_freq_annon
                0x4023a9c4                ieee80211_add_ie_vendor_esp_now
                0x4023a9fc                ieee80211_add_ie_vendor_esp_ssid
                0x4023aa3c                ieee80211_add_ie_vendor_esp_manufacturer
 *fill*         0x4023aa89        0x3 
 .irom0.text    0x4023aa8c      0x276 c:/Espressif/ESP8266_RTOS_SDK/lib\libwpa.a(ap_config.o)
                                0x2ae (size before relaxing)
                0x4023aa90                hostapd_config_defaults_bss
                0x4023aad8                hostapd_config_defaults
                0x4023ab44                hostapd_mac_comp
                0x4023ab58                hostapd_mac_comp_empty
                0x4023abac                hostapd_setup_wpa_psk
                0x4023abdc                hostapd_wep_key_cmp
                0x4023ac2c                hostapd_maclist_found
                0x4023ac94                hostapd_rate_found
                0x4023acb0                hostapd_get_psk
 *fill*         0x4023ad02        0x2 
 .irom0.text    0x4023ad04      0x250 c:/Espressif/ESP8266_RTOS_SDK/lib\libwpa.a(common.o)
                                0x28c (size before relaxing)
                0x4023ad04                inc_byte_array
                0x4023ad58                hex2byte
                0x4023ad8c                hexstr2bin
                0x4023add8                wpa_get_ntp_timestamp
                0x4023ae6c                wpa_config_parse_string
 .irom0.text    0x4023af54       0x63 c:/Espressif/ESP8266_RTOS_SDK/lib\libwpa.a(os_xtensa.o)
                                 0x67 (size before relaxing)
                0x4023af54                os_get_time
                0x4023af58                os_get_random
 *fill*         0x4023afb7        0x1 
 .irom0.text    0x4023afb8     0x1bba c:/Espressif/ESP8266_RTOS_SDK/lib\libwpa.a(wpa_auth.o)
                               0x1e4e (size before relaxing)
                0x4023b0f0                wpa_auth_for_each_sta
                0x4023b264                wpa_init
                0x4023b2d8                wpa_auth_sta_init
                0x4023b318                wpa_auth_sta_associated
                0x4023b384                wpa_auth_sta_no_wpa
                0x4023b3d0                wpa_auth_sta_deinit
                0x4023b4a0                wpa_receive
                0x4023b8ec                __wpa_send_eapol
                0x4023bdd8                wpa_remove_ptk
                0x4023be24                wpa_auth_sm_event
 *fill*         0x4023cb72        0x2 
 .irom0.text    0x4023cb74      0x562 c:/Espressif/ESP8266_RTOS_SDK/lib\libwpa.a(wpa_auth_ie.o)
                                0x5ce (size before relaxing)
                0x4023cc38                wpa_write_rsn_ie
                0x4023cd40                wpa_auth_gen_wpa_ie
                0x4023cdc4                wpa_add_kde
                0x4023ce30                wpa_validate_wpa_ie
                0x4023d02c                wpa_parse_kde_ies
                0x4023d0c8                wpa_auth_uses_mfp
 *fill*         0x4023d0d6        0x2 
 .irom0.text    0x4023d0d8     0x1494 c:/Espressif/ESP8266_RTOS_SDK/lib\libwpa.a(wpa.o)
                               0x16c4 (size before relaxing)
                0x4023e070                wpa_sm_rx_eapol
                0x4023e1e8                wpa_register
                0x4023e214                wpa_set_profile
                0x4023e224                wpa_set_pmk
                0x4023e24c                wpa_set_bss
                0x4023e428                pp_michael_mic_failure
                0x4023e4b8                eapol_txcb
                0x4023e544                wpa_sm_set_state
 .irom0.text    0x4023e56c      0x75a c:/Espressif/ESP8266_RTOS_SDK/lib\libwpa.a(wpa_common.o)
                                0x7fa (size before relaxing)
                0x4023e6b4                wpa_parse_wpa_ie_rsn
                0x4023e848                wpa_parse_wpa_ie_wpa
                0x4023e9d0                wpa_eapol_key_mic
                0x4023ea10                wpa_compare_rsn_ie
                0x4023ea38                wpa_pmk_to_ptk
                0x4023eb24                rsn_pmkid
                0x4023eb7c                wpa_cipher_key_len
                0x4023eba0                wpa_cipher_to_alg
                0x4023ebc8                wpa_cipher_to_suite
                0x4023ec1c                rsn_cipher_put_suites
                0x4023ec7c                wpa_cipher_put_suites
 *fill*         0x4023ecc6        0x2 
 .irom0.text    0x4023ecc8      0x325 c:/Espressif/ESP8266_RTOS_SDK/lib\libwpa.a(wpa_ie.o)
                                0x341 (size before relaxing)
                0x4023ecc8                wpa_parse_wpa_ie
                0x4023edbc                wpa_supplicant_parse_ies
                0x4023efbc                wpa_gen_wpa_ie
 *fill*         0x4023efed        0x3 
 .irom0.text    0x4023eff0      0x3c8 c:/Espressif/ESP8266_RTOS_SDK/lib\libwpa.a(wpa_main.o)
                                0x4c8 (size before relaxing)
                0x4023eff0                ppInstallKey
                0x4023f170                wpa_config_profile
                0x4023f1a4                wpa_config_bss
                0x4023f1d0                wpa_config_assoc_ie
                0x4023f1e4                dhcp_bind_check
                0x4023f21c                eagle_auth_done
                0x4023f358                wpa_neg_complete
                0x4023f380                wpa_attach
 .irom0.text    0x4023f3b8       0xd6 c:/Espressif/ESP8266_RTOS_SDK/lib\libwpa.a(wpas_glue.o)
                                 0xe2 (size before relaxing)
                0x4023f428                wpa_sm_alloc_eapol
                0x4023f468                wpa_sm_deauthenticate
                0x4023f484                wpa_sm_mlme_setprotection
                0x4023f488                wpa_sm_get_beacon_ie
                0x4023f48c                wpa_sm_disassociate
 *fill*         0x4023f48e        0x2 
 .irom0.text    0x4023f490       0xf0 c:/Espressif/ESP8266_RTOS_SDK/lib\libcrypto.a(aes-unwrap.o)
                                0x114 (size before relaxing)
                0x4023f490                aes_unwrap
 .irom0.text    0x4023f580       0xdf c:/Espressif/ESP8266_RTOS_SDK/lib\libcrypto.a(aes-wrap.o)
                                0x103 (size before relaxing)
                0x4023f580                aes_wrap
 *fill*         0x4023f65f        0x1 
 .irom0.text    0x4023f660      0x14f c:/Espressif/ESP8266_RTOS_SDK/lib\libcrypto.a(md5.o)
                                0x16b (size before relaxing)
                0x4023f660                hmac_md5_vector
                0x4023f790                hmac_md5
 *fill*         0x4023f7af        0x1 
 .irom0.text    0x4023f7b0      0x9a0 c:/Espressif/ESP8266_RTOS_SDK/lib\libcrypto.a(md5-internal.o)
                                0x9c0 (size before relaxing)
                0x4023f7b0                md5_vector
                0x4023f814                MD5Init
                0x4023f830                MD5Update
                0x4023f8ec                MD5Final
 .irom0.text    0x40240150      0x21a c:/Espressif/ESP8266_RTOS_SDK/lib\libcrypto.a(sha1.o)
                                0x23e (size before relaxing)
                0x40240150                hmac_sha1_vector
                0x40240288                hmac_sha1
                0x402402a8                sha1_prf
 *fill*         0x4024036a        0x2 
 .irom0.text    0x4024036c     0x13e6 c:/Espressif/ESP8266_RTOS_SDK/lib\libcrypto.a(sha1-internal.o)
                               0x1446 (size before relaxing)
                0x4024036c                sha1_vector
                0x402403dc                SHA1Transform
                0x402415ac                SHA1Init
                0x402415d0                SHA1Update
                0x4024167c                SHA1Final
 *fill*         0x40241752        0x2 
 .irom0.text    0x40241754      0x149 c:/Espressif/ESP8266_RTOS_SDK/lib\libcrypto.a(sha1-pbkdf2.o)
                                0x161 (size before relaxing)
                0x40241838                pbkdf2_sha1
 *fill*         0x4024189d        0x3 
 .irom0.text    0x402418a0      0x571 c:/Espressif/ESP8266_RTOS_SDK/lib\libcrypto.a(aes-internal-dec.o)
                                0x58d (size before relaxing)
                0x402418a8                rijndaelKeySetupDec
                0x40241978                aes_decrypt_init
                0x40241dd8                aes_decrypt
                0x40241dec                aes_decrypt_deinit
 *fill*         0x40241e11        0x3 
 .irom0.text    0x40241e14      0x48d c:/Espressif/ESP8266_RTOS_SDK/lib\libcrypto.a(aes-internal-enc.o)
                                0x49d (size before relaxing)
                0x40241e1c                rijndaelEncrypt
                0x40242238                aes_encrypt_init
                0x40242268                aes_encrypt
                0x4024227c                aes_encrypt_deinit
 *fill*         0x402422a1        0x3 
 .irom0.text    0x402422a4      0x11f c:/Espressif/ESP8266_RTOS_SDK/lib\libcrypto.a(aes-internal.o)
                                0x133 (size before relaxing)
                0x402422a8                rijndaelKeySetupEnc
 *fill*         0x402423c3        0x1 
 .irom0.text    0x402423c4      0x127 c:/Espressif/ESP8266_RTOS_SDK/lib\liblwip.a(ethernetif.o)
                                0x14f (size before relaxing)
                0x40242404                ethernetif_input
                0x40242484                ethernetif_init
 *fill*         0x402424eb        0x1 
 .irom0.text    0x402424ec      0x11c c:/Espressif/ESP8266_RTOS_SDK/lib\liblwip.a(ethip6.o)
                                0x144 (size before relaxing)
                0x4024253c                ethip6_output
 .irom0.text    0x40242608      0x135 c:/Espressif/ESP8266_RTOS_SDK/lib\libmicrogcc.a(_divsf3.o)
                0x40242684                __divsf3
 *fill*         0x4024273d        0x3 
 .irom0.text    0x40242740      0x18b c:/Espressif/ESP8266_RTOS_SDK/lib\libnet80211.a(ieee80211_crypto_tkip.o)
                                0x197 (size before relaxing)
 *fill*         0x402428cb        0x1 
 .irom0.text    0x402428cc       0x7c c:/Espressif/ESP8266_RTOS_SDK/lib\libnet80211.a(ieee80211_crypto_wep.o)
                                 0x80 (size before relaxing)
 .irom0.literal
                0x40242948        0x0 c:/Espressif/ESP8266_RTOS_SDK/lib\libmain.a(app_main.o)
 *fill*         0x40242948        0x8 
 .irom.text     0x40242950      0x239 c:/Espressif/ESP8266_RTOS_SDK/lib\libmain.a(app_main.o)
 *fill*         0x40242b89        0x3 
 .irom0.literal
                0x40242b8c        0x0 c:/Espressif/ESP8266_RTOS_SDK/lib\libmain.a(ets_timer.o)
 *fill*         0x40242b8c        0x4 
 .irom.text     0x40242b90       0x4b c:/Espressif/ESP8266_RTOS_SDK/lib\libmain.a(ets_timer.o)
 *fill*         0x40242bdb        0x1 
 .irom0.literal
                0x40242bdc        0x0 c:/Espressif/ESP8266_RTOS_SDK/lib\libmain.a(misc.o)
 *fill*         0x40242bdc        0x0 
 .irom0.literal
                0x40242bdc        0x0 c:/Espressif/ESP8266_RTOS_SDK/lib\libmain.a(printf-stdarg.o)
 .irom0.text    0x40242bdc        0x4 c:/Espressif/ESP8266_RTOS_SDK/lib\libmain.a(printf-stdarg.o)
                0x40242bdc                __write
 .irom0.literal
                0x40242be0        0x0 c:/Espressif/ESP8266_RTOS_SDK/lib\libmain.a(uart.o)
 *fill*         0x40242be0        0x0 
 .irom0.literal
                0x40242be0        0x0 c:/Espressif/ESP8266_RTOS_SDK/lib\libmain.a(user_interface.o)
 *fill*         0x40242be0        0x0 
 .irom.text     0x40242be0      0x299 c:/Espressif/ESP8266_RTOS_SDK/lib\libmain.a(user_interface.o)
                0x40242be0                default_ssid
 *fill*         0x40242e79        0x3 
 .irom0.literal
                0x40242e7c        0x0 c:/Espressif/ESP8266_RTOS_SDK/lib\libfreertos.a(heap_4.o)
 *fill*         0x40242e7c        0x0 
 .irom0.literal
                0x40242e7c        0x0 c:/Espressif/ESP8266_RTOS_SDK/lib\libfreertos.a(port.o)
 *fill*         0x40242e7c        0x4 
 .irom.text     0x40242e80       0x15 c:/Espressif/ESP8266_RTOS_SDK/lib\libfreertos.a(port.o)
 *fill*         0x40242e95        0x3 
 .irom0.literal
                0x40242e98        0x0 c:/Espressif/ESP8266_RTOS_SDK/lib\libfreertos.a(queue.o)
 *fill*         0x40242e98        0x0 
 .irom0.literal
                0x40242e98        0x0 c:/Espressif/ESP8266_RTOS_SDK/lib\libfreertos.a(tasks.o)
 *fill*         0x40242e98        0x8 
 .irom.text     0x40242ea0       0x26 c:/Espressif/ESP8266_RTOS_SDK/lib\libfreertos.a(tasks.o)
 *fill*         0x40242ec6        0x2 
 .irom0.literal
                0x40242ec8        0x0 c:/Espressif/ESP8266_RTOS_SDK/lib\libfreertos.a(timers.o)
 *fill*         0x40242ec8        0x8 
 .irom.text     0x40242ed0       0x25 c:/Espressif/ESP8266_RTOS_SDK/lib\libfreertos.a(timers.o)
 *fill*         0x40242ef5        0x3 
 .irom0.literal
                0x40242ef8        0x0 c:/Espressif/ESP8266_RTOS_SDK/lib\libfreertos.a(list.o)
 .irom0.text    0x40242ef8       0x4c c:/Espressif/ESP8266_RTOS_SDK/lib\libfreertos.a(list.o)
                0x40242ef8                vListInitialise
                0x40242f0c                vListInitialiseItem
                0x40242f14                vListInsert
 .irom0.literal
                0x40242f44        0x0 c:/Espressif/ESP8266_RTOS_SDK/lib\liblwip.a(dhcp.o)
 *fill*         0x40242f44        0xc 
 .irom.text     0x40242f50        0xe c:/Espressif/ESP8266_RTOS_SDK/lib\liblwip.a(dhcp.o)
 *fill*         0x40242f5e        0x2 
 .irom0.literal
                0x40242f60        0x0 c:/Espressif/ESP8266_RTOS_SDK/lib\liblwip.a(dhcpserver.o)
 *fill*         0x40242f60        0x0 
 .irom.text     0x40242f60       0x35 c:/Espressif/ESP8266_RTOS_SDK/lib\liblwip.a(dhcpserver.o)
 *fill*         0x40242f95        0x3 
 .irom0.literal
                0x40242f98        0x0 c:/Espressif/ESP8266_RTOS_SDK/lib\liblwip.a(dns.o)
 *fill*         0x40242f98        0x0 
 .irom0.literal
                0x40242f98        0x0 c:/Espressif/ESP8266_RTOS_SDK/lib\liblwip.a(etharp.o)
 *fill*         0x40242f98        0x0 
 .irom0.literal
                0x40242f98        0x0 c:/Espressif/ESP8266_RTOS_SDK/lib\liblwip.a(ip4_addr.o)
 *fill*         0x40242f98        0x0 
 .irom.text     0x40242f98        0x8 c:/Espressif/ESP8266_RTOS_SDK/lib\liblwip.a(ip4_addr.o)
                0x40242f98                ip_addr_any
                0x40242f9c                ip_addr_broadcast
 .irom0.literal
                0x40242fa0        0x0 c:/Espressif/ESP8266_RTOS_SDK/lib\liblwip.a(ip4.o)
 *fill*         0x40242fa0        0x0 
 .irom0.literal
                0x40242fa0        0x0 c:/Espressif/ESP8266_RTOS_SDK/lib\liblwip.a(ip6.o)
 .irom0.text    0x40242fa0        0x0 c:/Espressif/ESP8266_RTOS_SDK/lib\liblwip.a(memp.o)
 *fill*         0x40242fa0        0x0 
 .irom.text     0x40242fa0       0x44 c:/Espressif/ESP8266_RTOS_SDK/lib\liblwip.a(memp.o)
                0x40242fa0                memp_sizes
 .irom0.literal
                0x40242fe4        0x0 c:/Espressif/ESP8266_RTOS_SDK/lib\liblwip.a(mld6.o)
 *fill*         0x40242fe4        0x0 
 .irom0.literal
                0x40242fe4        0x0 c:/Espressif/ESP8266_RTOS_SDK/lib\liblwip.a(nd6.o)
 *fill*         0x40242fe4        0x0 
 .irom0.literal
                0x40242fe4        0x0 c:/Espressif/ESP8266_RTOS_SDK/lib\liblwip.a(netif.o)
 .irom0.literal
                0x40242fe4        0x0 c:/Espressif/ESP8266_RTOS_SDK/lib\liblwip.a(pbuf.o)
 *fill*         0x40242fe4        0x0 
 .irom0.literal
                0x40242fe4        0x0 c:/Espressif/ESP8266_RTOS_SDK/lib\liblwip.a(raw.o)
 *fill*         0x40242fe4        0x0 
 .irom0.literal
                0x40242fe4        0x0 c:/Espressif/ESP8266_RTOS_SDK/lib\liblwip.a(sys_arch.o)
 *fill*         0x40242fe4        0xc 
 .irom.text     0x40242ff0       0x16 c:/Espressif/ESP8266_RTOS_SDK/lib\liblwip.a(sys_arch.o)
 *fill*         0x40243006        0x2 
 .irom0.literal
                0x40243008        0x0 c:/Espressif/ESP8266_RTOS_SDK/lib\liblwip.a(tcp_in.o)
 .irom0.literal
                0x40243008        0x0 c:/Espressif/ESP8266_RTOS_SDK/lib\liblwip.a(tcpip.o)
 *fill*         0x40243008        0x8 
 .irom.text     0x40243010       0x27 c:/Espressif/ESP8266_RTOS_SDK/lib\liblwip.a(tcpip.o)
 *fill*         0x40243037        0x1 
 .irom0.literal
                0x40243038        0x0 c:/Espressif/ESP8266_RTOS_SDK/lib\liblwip.a(tcp.o)
 *fill*         0x40243038        0x8 
 .irom.text     0x40243040       0x2d c:/Espressif/ESP8266_RTOS_SDK/lib\liblwip.a(tcp.o)
                0x40243040                tcp_pcb_lists
                0x40243050                tcp_persist_backoff
                0x40243060                tcp_backoff
 *fill*         0x4024306d        0x3 
 .irom0.literal
                0x40243070        0x0 c:/Espressif/ESP8266_RTOS_SDK/lib\liblwip.a(tcp_out.o)
 *fill*         0x40243070        0x0 
 .irom0.literal
                0x40243070        0x0 c:/Espressif/ESP8266_RTOS_SDK/lib\liblwip.a(timers.o)
 *fill*         0x40243070        0x0 
 .irom0.literal
                0x40243070        0x0 c:/Espressif/ESP8266_RTOS_SDK/lib\liblwip.a(udp.o)
 *fill*         0x40243070        0x0 
 .irom0.literal
                0x40243070        0x0 c:/Espressif/ESP8266_RTOS_SDK/lib\liblwip.a(api_msg.o)
 *fill*         0x40243070        0x0 
 .irom0.literal
                0x40243070        0x0 c:/Espressif/ESP8266_RTOS_SDK/lib\liblwip.a(icmp6.o)
 *fill*         0x40243070        0x0 
 .irom0.literal
                0x40243070        0x0 c:/Espressif/ESP8266_RTOS_SDK/lib\liblwip.a(icmp.o)
 *fill*         0x40243070        0x0 
 .irom0.literal
                0x40243070        0x0 c:/Espressif/ESP8266_RTOS_SDK/lib\liblwip.a(inet_chksum.o)
 .irom0.text    0x40243070      0x360 c:/Espressif/ESP8266_RTOS_SDK/lib\liblwip.a(inet_chksum.o)
                0x40243070                lwip_standard_chksum
                0x40243184                inet_chksum_pseudo
                0x402431bc                ip6_chksum_pseudo
                0x402432c4                inet_chksum_pseudo_partial
                0x402432fc                ip6_chksum_pseudo_partial
                0x4024334c                inet_chksum
                0x40243364                inet_chksum_pbuf
 .irom0.literal
                0x402433d0        0x0 c:/Espressif/ESP8266_RTOS_SDK/lib\liblwip.a(init.o)
 *fill*         0x402433d0        0x0 
 .irom0.literal
                0x402433d0        0x0 c:/Espressif/ESP8266_RTOS_SDK/lib\liblwip.a(ip6_addr.o)
 *fill*         0x402433d0        0x0 
 .irom0.literal
                0x402433d0        0x0 c:/Espressif/ESP8266_RTOS_SDK/lib\liblwip.a(ip6_frag.o)
 *fill*         0x402433d0        0x0 
 .irom0.literal
                0x402433d0        0x0 c:/Espressif/ESP8266_RTOS_SDK/lib\liblwip.a(netbuf.o)
 .irom0.literal
                0x402433d0        0x0 c:/Espressif/ESP8266_RTOS_SDK/lib\liblwip.a(sockets.o)
 *fill*         0x402433d0        0x0 
 .irom.text     0x402433d0       0x44 c:/Espressif/ESP8266_RTOS_SDK/lib\liblwip.a(sockets.o)
 .irom0.literal
                0x40243414        0x0 c:/Espressif/ESP8266_RTOS_SDK/lib\liblwip.a(api_lib.o)
 *fill*         0x40243414        0x0 
 .irom0.literal
                0x40243414        0x0 c:/Espressif/ESP8266_RTOS_SDK/lib\libminic.a(minic.o)
 *fill*         0x40243414        0x0 
 .irom.text     0x40243414       0x25 build/app_app.a(WebSocket.o)
 *fill*         0x40243439        0x3 
 .irom0.text    0x4024343c        0xe c:/Espressif/ESP8266_RTOS_SDK/lib\libmicroc.a(isprint.o)
                0x4024343c                isprint
 *fill*         0x4024344a        0x2 
 .irom0.text    0x4024344c       0x1e c:/Espressif/ESP8266_RTOS_SDK/lib\libmicroc.a(isspace.o)
                0x4024344c                isspace
 *fill*         0x4024346a        0x2 
 .irom0.text    0x4024346c        0xf c:/Espressif/ESP8266_RTOS_SDK/lib\libmicroc.a(tolower.o)
                0x4024346c                tolower
 *fill*         0x4024347b        0x1 
 .irom0.text    0x4024347c        0xf c:/Espressif/ESP8266_RTOS_SDK/lib\libmicroc.a(toupper.o)
                0x4024347c                toupper
 *fill*         0x4024348b        0x1 
 .irom0.text    0x4024348c       0x1b c:/Espressif/ESP8266_RTOS_SDK/lib\libmicroc.a(isxdigit.o)
                0x4024348c                isxdigit
 *fill*         0x402434a7        0x0 
 *fill*         0x402434a7        0x1 
 .irom0.literal
                0x402434a8        0x0 c:/Espressif/ESP8266_RTOS_SDK/lib\libmicroc.a(__fpclassify.o)
 .irom0.text    0x402434a8       0x4f c:/Espressif/ESP8266_RTOS_SDK/lib\libmicroc.a(__fpclassify.o)
                0x402434a8                __fpclassify
                0x402434e8                __fpclassifyd
 *fill*         0x402434f7        0x0 
 *fill*         0x402434f7        0x0 
 *fill*         0x402434f7        0x0 
 *fill*         0x402434f7        0x0 
 *fill*         0x402434f7        0x1 
 .irom0.text    0x402434f8        0x2 c:/Espressif/ESP8266_RTOS_SDK/lib\libmicroc.a(__stdio_exit.o)
                0x402434f8                __stdio_exit_needed
                0x402434f8                __stdio_exit
 *fill*         0x402434fa        0x0 
 *fill*         0x402434fa        0x0 
 *fill*         0x402434fa        0x0 
 *fill*         0x402434fa        0x0 
 *fill*         0x402434fa        0x2 
 .irom0.literal
                0x402434fc        0x0 c:/Espressif/ESP8266_RTOS_SDK/lib\libphy.a(phy.o)
 *fill*         0x402434fc        0x0 
 .irom0.literal
                0x402434fc        0x0 c:/Espressif/ESP8266_RTOS_SDK/lib\libphy.a(phy_chip_v6_ana.o)
 *fill*         0x402434fc        0x4 
 .irom.text     0x40243500       0x65 c:/Espressif/ESP8266_RTOS_SDK/lib\libphy.a(phy_chip_v6_ana.o)
 *fill*         0x40243565        0x3 
 .irom0.literal
                0x40243568        0x0 c:/Espressif/ESP8266_RTOS_SDK/lib\libphy.a(phy_chip_v6.o)
 *fill*         0x40243568        0x8 
 .irom.text     0x40243570      0x148 c:/Espressif/ESP8266_RTOS_SDK/lib\libphy.a(phy_chip_v6.o)
 .irom0.literal
                0x402436b8        0x0 c:/Espressif/ESP8266_RTOS_SDK/lib\libphy.a(phy_chip_v6_cal.o)
 *fill*         0x402436b8        0x8 
 .irom.text     0x402436c0      0x174 c:/Espressif/ESP8266_RTOS_SDK/lib\libphy.a(phy_chip_v6_cal.o)
 .irom0.literal
                0x40243834        0x0 c:/Espressif/ESP8266_RTOS_SDK/lib\libphy.a(phy_chip_v6_unused.o)
 .irom0.text    0x40243834        0xc c:/Espressif/ESP8266_RTOS_SDK/lib\libphy.a(phy_chip_v6_unused.o)
                0x40243834                chip_v6_set_sense
                0x40243838                chip_v6_get_sense
                0x4024383c                chip_v6_unset_chanfreq
 .irom0.literal
                0x40243840        0x0 c:/Espressif/ESP8266_RTOS_SDK/lib\libphy.a(phy_sleep.o)
 *fill*         0x40243840        0x0 
 .irom0.literal
                0x40243840        0x0 c:/Espressif/ESP8266_RTOS_SDK/lib\libphy.a(phy_chip_v5_romfunc.o)
 .irom.text     0x40243840      0x118 c:/Espressif/ESP8266_RTOS_SDK/lib\libphy.a(phy_chip_v5_romfunc.o)
                0x40243840                g_phyFuns_instance
 .irom0.literal
                0x40243958        0x0 c:/Espressif/ESP8266_RTOS_SDK/lib\libphy.a(phy_chip_v5_ana_romfunc.o)
 *fill*         0x40243958        0x0 
 .irom0.literal
                0x40243958        0x0 c:/Espressif/ESP8266_RTOS_SDK/lib\libphy.a(phy_chip_v5_cal_romfunc.o)
 *fill*         0x40243958        0x8 
 .irom.text     0x40243960      0x122 c:/Espressif/ESP8266_RTOS_SDK/lib\libphy.a(phy_chip_v5_cal_romfunc.o)
 *fill*         0x40243a82        0x2 
 .irom0.literal
                0x40243a84        0x0 c:/Espressif/ESP8266_RTOS_SDK/lib\libpp.a(if_hwctrl.o)
 *fill*         0x40243a84        0xc 
 .irom.text     0x40243a90       0x50 c:/Espressif/ESP8266_RTOS_SDK/lib\libpp.a(if_hwctrl.o)
 .irom0.literal
                0x40243ae0        0x0 c:/Espressif/ESP8266_RTOS_SDK/lib\libpp.a(lmac.o)
 .irom0.literal
                0x40243ae0        0x0 c:/Espressif/ESP8266_RTOS_SDK/lib\libpp.a(pm.o)
 *fill*         0x40243ae0        0x0 
 .irom.text     0x40243ae0      0x277 c:/Espressif/ESP8266_RTOS_SDK/lib\libpp.a(pm.o)
 *fill*         0x40243d57        0x1 
 .irom0.literal
                0x40243d58        0x0 c:/Espressif/ESP8266_RTOS_SDK/lib\libpp.a(pm_for_bcn_only_mode.o)
 *fill*         0x40243d58        0x8 
 .irom.text     0x40243d60      0x185 c:/Espressif/ESP8266_RTOS_SDK/lib\libpp.a(pm_for_bcn_only_mode.o)
 *fill*         0x40243ee5        0x3 
 .irom0.literal
                0x40243ee8        0x0 c:/Espressif/ESP8266_RTOS_SDK/lib\libpp.a(pp.o)
 *fill*         0x40243ee8        0x8 
 .irom.text     0x40243ef0       0xb8 c:/Espressif/ESP8266_RTOS_SDK/lib\libpp.a(pp.o)
 .irom0.literal
                0x40243fa8        0x0 c:/Espressif/ESP8266_RTOS_SDK/lib\libpp.a(rate_control.o)
 *fill*         0x40243fa8        0x0 
 .irom0.literal
                0x40243fa8        0x0 c:/Espressif/ESP8266_RTOS_SDK/lib\libpp.a(trc.o)
 *fill*         0x40243fa8        0x8 
 .irom.text     0x40243fb0       0x38 c:/Espressif/ESP8266_RTOS_SDK/lib\libpp.a(trc.o)
 .irom0.literal
                0x40243fe8        0x0 c:/Espressif/ESP8266_RTOS_SDK/lib\libpp.a(wdev.o)
 *fill*         0x40243fe8        0x0 
 .irom0.literal
                0x40243fe8        0x0 c:/Espressif/ESP8266_RTOS_SDK/lib\libpp.a(esf_buf.o)
 *fill*         0x40243fe8        0x0 
 .irom0.literal
                0x40243fe8        0x0 c:/Espressif/ESP8266_RTOS_SDK/lib\libnet80211.a(ieee80211.o)
 *fill*         0x40243fe8        0x8 
 .irom.text     0x40243ff0       0x72 c:/Espressif/ESP8266_RTOS_SDK/lib\libnet80211.a(ieee80211.o)
                0x40243ff0                ieee80211_opcap
 *fill*         0x40244062        0x2 
 .irom0.literal
                0x40244064        0x0 c:/Espressif/ESP8266_RTOS_SDK/lib\libnet80211.a(ieee80211_crypto.o)
 *fill*         0x40244064        0x0 
 .irom0.literal
                0x40244064        0x0 c:/Espressif/ESP8266_RTOS_SDK/lib\libnet80211.a(ieee80211_ets.o)
 *fill*         0x40244064        0x0 
 .irom0.literal
                0x40244064        0x0 c:/Espressif/ESP8266_RTOS_SDK/lib\libnet80211.a(ieee80211_hostap.o)
 *fill*         0x40244064        0xc 
 .irom.text     0x40244070       0xc3 c:/Espressif/ESP8266_RTOS_SDK/lib\libnet80211.a(ieee80211_hostap.o)
 *fill*         0x40244133        0x1 
 .irom0.literal
                0x40244134        0x0 c:/Espressif/ESP8266_RTOS_SDK/lib\libnet80211.a(ieee80211_ht.o)
 *fill*         0x40244134        0xc 
 .irom.text     0x40244140       0x19 c:/Espressif/ESP8266_RTOS_SDK/lib\libnet80211.a(ieee80211_ht.o)
 *fill*         0x40244159        0x3 
 .irom0.literal
                0x4024415c        0x0 c:/Espressif/ESP8266_RTOS_SDK/lib\libnet80211.a(ieee80211_input.o)
 .irom0.literal
                0x4024415c        0x0 c:/Espressif/ESP8266_RTOS_SDK/lib\libnet80211.a(ieee80211_mesh_quick.o)
 *fill*         0x4024415c        0x4 
 .irom.text     0x40244160       0x23 c:/Espressif/ESP8266_RTOS_SDK/lib\libnet80211.a(ieee80211_mesh_quick.o)
 *fill*         0x40244183        0x1 
 .irom0.literal
                0x40244184        0x0 c:/Espressif/ESP8266_RTOS_SDK/lib\libnet80211.a(ieee80211_output.o)
 *fill*         0x40244184        0xc 
 .irom.text     0x40244190       0x1d c:/Espressif/ESP8266_RTOS_SDK/lib\libnet80211.a(ieee80211_output.o)
 *fill*         0x402441ad        0x3 
 .irom0.literal
                0x402441b0        0x0 c:/Espressif/ESP8266_RTOS_SDK/lib\libnet80211.a(ieee80211_phy.o)
 .irom.text     0x402441b0      0x1a8 c:/Espressif/ESP8266_RTOS_SDK/lib\libnet80211.a(ieee80211_phy.o)
 .irom0.literal
                0x40244358        0x0 c:/Espressif/ESP8266_RTOS_SDK/lib\libnet80211.a(ieee80211_power.o)
 *fill*         0x40244358        0x0 
 .irom0.literal
                0x40244358        0x0 c:/Espressif/ESP8266_RTOS_SDK/lib\libnet80211.a(ieee80211_proto.o)
 *fill*         0x40244358        0x8 
 .irom.text     0x40244360       0x1c c:/Espressif/ESP8266_RTOS_SDK/lib\libnet80211.a(ieee80211_proto.o)
 .irom0.literal
                0x4024437c        0x0 c:/Espressif/ESP8266_RTOS_SDK/lib\libnet80211.a(ieee80211_rfid.o)
 *fill*         0x4024437c        0x0 
 .irom0.literal
                0x4024437c        0x0 c:/Espressif/ESP8266_RTOS_SDK/lib\libnet80211.a(ieee80211_scan.o)
 *fill*         0x4024437c        0x4 
 .irom.text     0x40244380       0xa9 c:/Espressif/ESP8266_RTOS_SDK/lib\libnet80211.a(ieee80211_scan.o)
 *fill*         0x40244429        0x3 
 .irom0.literal
                0x4024442c        0x0 c:/Espressif/ESP8266_RTOS_SDK/lib\libnet80211.a(ieee80211_sta.o)
 *fill*         0x4024442c        0x4 
 .irom.text     0x40244430       0x77 c:/Espressif/ESP8266_RTOS_SDK/lib\libnet80211.a(ieee80211_sta.o)
 *fill*         0x402444a7        0x1 
 .irom0.literal
                0x402444a8        0x0 c:/Espressif/ESP8266_RTOS_SDK/lib\libnet80211.a(wl_chm.o)
 *fill*         0x402444a8        0x0 
 .irom0.literal
                0x402444a8        0x0 c:/Espressif/ESP8266_RTOS_SDK/lib\libnet80211.a(wl_cnx.o)
 *fill*         0x402444a8        0x8 
 .irom.text     0x402444b0      0x21b c:/Espressif/ESP8266_RTOS_SDK/lib\libnet80211.a(wl_cnx.o)
 *fill*         0x402446cb        0x1 
 .irom0.literal
                0x402446cc        0x0 c:/Espressif/ESP8266_RTOS_SDK/lib\libnet80211.a(ieee80211_action.o)
 *fill*         0x402446cc        0x0 
 .irom0.literal
                0x402446cc        0x0 c:/Espressif/ESP8266_RTOS_SDK/lib\libnet80211.a(ieee80211_action_vendor.o)
 *fill*         0x402446cc        0x4 
 .irom.text     0x402446d0       0x83 c:/Espressif/ESP8266_RTOS_SDK/lib\libnet80211.a(ieee80211_action_vendor.o)
 *fill*         0x40244753        0x1 
 .irom0.literal
                0x40244754        0x0 c:/Espressif/ESP8266_RTOS_SDK/lib\libnet80211.a(ieee80211_crypto_ccmp.o)
 *fill*         0x40244754        0x0 
 .irom.text     0x40244754       0x18 c:/Espressif/ESP8266_RTOS_SDK/lib\libnet80211.a(ieee80211_crypto_ccmp.o)
                0x40244754                ccmp
 .irom0.literal
                0x4024476c        0x0 c:/Espressif/ESP8266_RTOS_SDK/lib\libnet80211.a(ieee80211_ie_vendor.o)
 *fill*         0x4024476c        0x0 
 .irom0.literal
                0x4024476c        0x0 c:/Espressif/ESP8266_RTOS_SDK/lib\libwpa.a(ap_config.o)
 *fill*         0x4024476c        0x0 
 .irom0.literal
                0x4024476c        0x0 c:/Espressif/ESP8266_RTOS_SDK/lib\libwpa.a(common.o)
 .irom0.literal
                0x4024476c        0x0 c:/Espressif/ESP8266_RTOS_SDK/lib\libwpa.a(os_xtensa.o)
 *fill*         0x4024476c        0x0 
 .irom0.literal
                0x4024476c        0x0 c:/Espressif/ESP8266_RTOS_SDK/lib\libwpa.a(wpa_auth.o)
 *fill*         0x4024476c        0x4 
 .irom.text     0x40244770       0x64 c:/Espressif/ESP8266_RTOS_SDK/lib\libwpa.a(wpa_auth.o)
 .irom0.literal
                0x402447d4        0x0 c:/Espressif/ESP8266_RTOS_SDK/lib\libwpa.a(wpa_auth_ie.o)
 *fill*         0x402447d4        0x0 
 .irom0.literal
                0x402447d4        0x0 c:/Espressif/ESP8266_RTOS_SDK/lib\libwpa.a(wpa.o)
 *fill*         0x402447d4        0xc 
 .irom.text     0x402447e0       0x17 c:/Espressif/ESP8266_RTOS_SDK/lib\libwpa.a(wpa.o)
 *fill*         0x402447f7        0x1 
 .irom0.literal
                0x402447f8        0x0 c:/Espressif/ESP8266_RTOS_SDK/lib\libwpa.a(wpa_common.o)
 *fill*         0x402447f8        0x8 
 .irom.text     0x40244800       0x1c c:/Espressif/ESP8266_RTOS_SDK/lib\libwpa.a(wpa_common.o)
 .irom0.literal
                0x4024481c        0x0 c:/Espressif/ESP8266_RTOS_SDK/lib\libwpa.a(wpa_debug.o)
 .irom0.text    0x4024481c        0x8 c:/Espressif/ESP8266_RTOS_SDK/lib\libwpa.a(wpa_debug.o)
                0x4024481c                eloop_cancel_timeout
                0x40244820                eloop_register_timeout
 .irom0.literal
                0x40244824        0x0 c:/Espressif/ESP8266_RTOS_SDK/lib\libwpa.a(wpa_ie.o)
 *fill*         0x40244824        0x0 
 .irom0.literal
                0x40244824        0x0 c:/Espressif/ESP8266_RTOS_SDK/lib\libwpa.a(wpa_main.o)
 *fill*         0x40244824        0xc 
 .irom.text     0x40244830       0x87 c:/Espressif/ESP8266_RTOS_SDK/lib\libwpa.a(wpa_main.o)
 *fill*         0x402448b7        0x1 
 .irom0.literal
                0x402448b8        0x0 c:/Espressif/ESP8266_RTOS_SDK/lib\libwpa.a(wpas_glue.o)
 *fill*         0x402448b8        0x0 
 .irom0.literal
                0x402448b8        0x0 c:/Espressif/ESP8266_RTOS_SDK/lib\libcrypto.a(aes-unwrap.o)
 .irom0.literal
                0x402448b8        0x0 c:/Espressif/ESP8266_RTOS_SDK/lib\libcrypto.a(aes-wrap.o)
 *fill*         0x402448b8        0x0 
 .irom0.literal
                0x402448b8        0x0 c:/Espressif/ESP8266_RTOS_SDK/lib\libcrypto.a(md5.o)
 *fill*         0x402448b8        0x0 
 .irom0.literal
                0x402448b8        0x0 c:/Espressif/ESP8266_RTOS_SDK/lib\libcrypto.a(md5-internal.o)
 .irom0.literal
                0x402448b8        0x0 c:/Espressif/ESP8266_RTOS_SDK/lib\libcrypto.a(rc4.o)
 .irom0.text    0x402448b8       0xdb c:/Espressif/ESP8266_RTOS_SDK/lib\libcrypto.a(rc4.o)
                0x402448b8                rc4_skip
 *fill*         0x40244993        0x1 
 .irom0.literal
                0x40244994        0x0 c:/Espressif/ESP8266_RTOS_SDK/lib\libcrypto.a(sha1.o)
 *fill*         0x40244994        0x0 
 .irom0.literal
                0x40244994        0x0 c:/Espressif/ESP8266_RTOS_SDK/lib\libcrypto.a(sha1-internal.o)
 *fill*         0x40244994        0x0 
 .irom0.literal
                0x40244994        0x0 c:/Espressif/ESP8266_RTOS_SDK/lib\libcrypto.a(sha1-pbkdf2.o)
 *fill*         0x40244994        0x0 
 .irom0.literal
                0x40244994        0x0 c:/Espressif/ESP8266_RTOS_SDK/lib\libcrypto.a(aes-internal-dec.o)
 *fill*         0x40244994        0x0 
 .irom0.literal
                0x40244994        0x0 c:/Espressif/ESP8266_RTOS_SDK/lib\libcrypto.a(aes-internal-enc.o)
 *fill*         0x40244994        0x0 
 .irom0.literal
                0x40244994        0x0 c:/Espressif/ESP8266_RTOS_SDK/lib\libcrypto.a(aes-internal.o)
 *fill*         0x40244994        0xc 
 .irom.text     0x402449a0      0x910 c:/Espressif/ESP8266_RTOS_SDK/lib\libcrypto.a(aes-internal.o)
                0x402449a0                Te0
                0x40244da0                rcons
                0x40244db0                Td0
                0x402451b0                Td4s_rom
 .irom0.literal
                0x402452b0        0x0 c:/Espressif/ESP8266_RTOS_SDK/lib\liblwip.a(ethernetif.o)
 *fill*         0x402452b0        0x0 
 .irom0.literal
                0x402452b0        0x0 c:/Espressif/ESP8266_RTOS_SDK/lib\liblwip.a(ethip6.o)
 *fill*         0x402452b0        0x0 
 .irom0.literal
                0x402452b0        0x0 c:/Espressif/ESP8266_RTOS_SDK/lib\libnet80211.a(ieee80211_crypto_tkip.o)
 *fill*         0x402452b0        0x0 
 .irom.text     0x402452b0       0x18 c:/Espressif/ESP8266_RTOS_SDK/lib\libnet80211.a(ieee80211_crypto_tkip.o)
                0x402452b0                tkip
 .irom0.literal
                0x402452c8        0x0 c:/Espressif/ESP8266_RTOS_SDK/lib\libnet80211.a(ieee80211_crypto_wep.o)
 .irom.text     0x402452c8       0x18 c:/Espressif/ESP8266_RTOS_SDK/lib\libnet80211.a(ieee80211_crypto_wep.o)
                0x402452c8                wep
 *(.literal.* .text.*)
 .text._ZL12staticOnSentPvP7tcp_pcbt
                0x402452e0       0x20 build/app_app.a(user_main_sming.o)
 .text._Z14globalDelegatev
                0x40245300       0x1d build/app_app.a(user_main_sming.o)
                0x40245308                globalDelegate()
 *fill*         0x4024531d        0x3 
 .text._Z16vBasicTFTPServerPv
                0x40245320       0x7d build/app_app.a(user_main_sming.o)
                                 0xb5 (size before relaxing)
                0x40245338                vBasicTFTPServer(void*)
 *fill*         0x4024539d        0x3 
 .text._ZL11echo_acceptPvP7tcp_pcba
                0x402453a0       0x49 build/app_app.a(user_main_sming.o)
                                 0x69 (size before relaxing)
 *fill*         0x402453e9        0x3 
 .text._ZL10close_connP7tcp_pcb
                0x402453ec       0x2b build/app_app.a(user_main_sming.o)
                                 0x47 (size before relaxing)
 *fill*         0x40245417        0x1 
 .text._ZL9echo_recvPvP7tcp_pcbP4pbufa
                0x40245418       0xca build/app_app.a(user_main_sming.o)
                                0x102 (size before relaxing)
 *fill*         0x402454e2        0x2 
 .text._Z5blinkv
                0x402454e4       0x2d build/app_app.a(user_main_sming.o)
                                 0x31 (size before relaxing)
                0x402454e8                blink()
 *fill*         0x40245511        0x3 
 .text._Z7onIndexR11HttpRequestR12HttpResponse
                0x40245514       0x27 build/app_app.a(user_main_sming.o)
                                 0x2f (size before relaxing)
                0x40245518                onIndex(HttpRequest&, HttpResponse&)
 *fill*         0x4024553b        0x1 
 .text._Z9onDefaultR11HttpRequestR12HttpResponse
                0x4024553c       0x27 build/app_app.a(user_main_sming.o)
                                 0x2f (size before relaxing)
                0x40245540                onDefault(HttpRequest&, HttpResponse&)
 *fill*         0x40245563        0x1 
 .text._ZN14FunctionCallerIPFvR9TcpClientbEvJS1_bEED0Ev
                0x40245564       0x17 build/app_app.a(user_main_sming.o)
                0x40245568                FunctionCaller<void (*)(TcpClient&, bool), void, TcpClient&, bool>::~FunctionCaller()
                0x40245568                FunctionCaller<void (*)(TcpClient&, bool), void, TcpClient&, bool>::~FunctionCaller()
 *fill*         0x4024557b        0x1 
 .text._ZN14FunctionCallerIPFbR9TcpClientPciEbJS1_S2_iEED0Ev
                0x4024557c       0x13 build/app_app.a(user_main_sming.o)
                                 0x17 (size before relaxing)
                0x4024557c                FunctionCaller<bool (*)(TcpClient&, char*, int), bool, TcpClient&, char*, int>::~FunctionCaller()
                0x4024557c                FunctionCaller<bool (*)(TcpClient&, char*, int), bool, TcpClient&, char*, int>::~FunctionCaller()
 *fill*         0x4024558f        0x1 
 .text._ZN14FunctionCallerIPFvP9TcpClientEvJS1_EED0Ev
                0x40245590       0x13 build/app_app.a(user_main_sming.o)
                                 0x17 (size before relaxing)
                0x40245590                FunctionCaller<void (*)(TcpClient*), void, TcpClient*>::~FunctionCaller()
                0x40245590                FunctionCaller<void (*)(TcpClient*), void, TcpClient*>::~FunctionCaller()
 *fill*         0x402455a3        0x1 
 .text._ZN14FunctionCallerIPFvvEvJEED0Ev
                0x402455a4       0x13 build/app_app.a(user_main_sming.o)
                                 0x17 (size before relaxing)
                0x402455a4                FunctionCaller<void (*)(), void>::~FunctionCaller()
                0x402455a4                FunctionCaller<void (*)(), void>::~FunctionCaller()
 *fill*         0x402455b7        0x1 
 .text._ZN14FunctionCallerIPFvR13UdpConnectionPci9IPAddresstEvJS1_S2_iS3_tEED0Ev
                0x402455b8       0x13 build/app_app.a(user_main_sming.o)
                                 0x17 (size before relaxing)
                0x402455b8                FunctionCaller<void (*)(UdpConnection&, char*, int, IPAddress, unsigned short), void, UdpConnection&, char*, int, IPAddress, unsigned short>::~FunctionCaller()
                0x402455b8                FunctionCaller<void (*)(UdpConnection&, char*, int, IPAddress, unsigned short), void, UdpConnection&, char*, int, IPAddress, unsigned short>::~FunctionCaller()
 *fill*         0x402455cb        0x1 
 .text._ZN14FunctionCallerIPFvR11HttpRequestR12HttpResponseEvJS1_S3_EED0Ev
                0x402455cc       0x13 build/app_app.a(user_main_sming.o)
                                 0x17 (size before relaxing)
                0x402455cc                FunctionCaller<void (*)(HttpRequest&, HttpResponse&), void, HttpRequest&, HttpResponse&>::~FunctionCaller()
                0x402455cc                FunctionCaller<void (*)(HttpRequest&, HttpResponse&), void, HttpRequest&, HttpResponse&>::~FunctionCaller()
 *fill*         0x402455df        0x1 
 .text._ZN6VectorI6StringED2Ev
                0x402455e0       0x5a build/app_app.a(user_main_sming.o)
                                 0x62 (size before relaxing)
                0x402455e8                Vector<String>::~Vector()
                0x402455e8                Vector<String>::~Vector()
 *fill*         0x4024563a        0x2 
 .text._ZN6VectorI6StringED0Ev
                0x4024563c       0x1d build/app_app.a(user_main_sming.o)
                                 0x29 (size before relaxing)
                0x4024563c                Vector<String>::~Vector()
 *fill*         0x40245659        0x3 
 .text._ZN6VectorI6StringEixEj
                0x4024565c       0x26 build/app_app.a(user_main_sming.o)
                0x40245660                Vector<String>::operator[](unsigned int)
 *fill*         0x40245682        0x2 
 .text._ZNK6VectorI6StringEixEj
                0x40245684       0x22 build/app_app.a(user_main_sming.o)
                                 0x26 (size before relaxing)
                0x40245684                Vector<String>::operator[](unsigned int) const
 *fill*         0x402456a6        0x2 
 .text._ZN13TcpConnection11getRemoteIpEv$isra$1
                0x402456a8       0x5e build/app_app.a(user_main_sming.o)
                                 0x62 (size before relaxing)
 *fill*         0x40245706        0x2 
 .text._Z24tcpServerClientConnectedP9TcpClient
                0x40245708       0x2f build/app_app.a(user_main_sming.o)
                                 0x47 (size before relaxing)
                0x4024570c                tcpServerClientConnected(TcpClient*)
 *fill*         0x40245737        0x1 
 .text._Z22tcpServerClientReceiveR9TcpClientPci
                0x40245738       0xaa build/app_app.a(user_main_sming.o)
                                 0xee (size before relaxing)
                0x40245754                tcpServerClientReceive(TcpClient&, char*, int)
 *fill*         0x402457e2        0x2 
 .text._Z23tcpServerClientCompleteR9TcpClientb
                0x402457e4       0x2f build/app_app.a(user_main_sming.o)
                                 0x47 (size before relaxing)
                0x402457e8                tcpServerClientComplete(TcpClient&, bool)
 *fill*         0x40245813        0x1 
 .text._ZN12DelegateDemo12callDelegateEv
                0x40245814       0x42 build/app_app.a(user_main_sming.o)
                                 0x4a (size before relaxing)
                0x40245820                DelegateDemo::callDelegate()
 *fill*         0x40245856        0x2 
 .text._Z5task1Pv
                0x40245858       0x75 build/app_app.a(user_main_sming.o)
                                 0x95 (size before relaxing)
                0x40245868                task1(void*)
 *fill*         0x402458cd        0x3 
 .text._Z5task2Pv
                0x402458d0       0x35 build/app_app.a(user_main_sming.o)
                                 0x45 (size before relaxing)
                0x402458d8                task2(void*)
 *fill*         0x40245905        0x3 
 .text._Z9connectOkv
                0x40245908       0x19 build/app_app.a(user_main_sming.o)
                                 0x1d (size before relaxing)
                0x4024590c                connectOk()
 *fill*         0x40245921        0x3 
 .text.startup._GLOBAL__sub_I__Z5task1Pv
                0x40245924      0x1a8 build/app_app.a(user_main_sming.o)
                                0x224 (size before relaxing)
 .text._Z9onReceiveR13UdpConnectionPci9IPAddresst
                0x40245acc      0x1c2 build/app_app.a(user_main_sming.o)
                                0x272 (size before relaxing)
                0x40245b14                onReceive(UdpConnection&, char*, int, IPAddress, unsigned short)
 *fill*         0x40245c8e        0x2 
 .text._Z4initv
                0x40245c90      0x1bd build/app_app.a(user_main_sming.o)
                                0x25d (size before relaxing)
                0x40245cd4                init()
 *fill*         0x40245e4d        0x3 
 .text.user_init
                0x40245e50       0x5d build/app_app.a(user_main_sming.o)
                                 0x85 (size before relaxing)
                0x40245e68                user_init
 *fill*         0x40245ead        0x3 
 .text.exit._GLOBAL__sub_D__Z5task1Pv
                0x40245eb0       0x62 build/app_app.a(user_main_sming.o)
                                 0xd2 (size before relaxing)
 *fill*         0x40245f12        0x2 
 .text._Z10isInputPint
                0x40245f14       0x32 build/app_app.a(Digital.o)
                0x40245f1c                isInputPin(unsigned short)
 *fill*         0x40245f46        0x2 
 .text._Z11digitalReadt
                0x40245f48       0x2d build/app_app.a(Digital.o)
                0x40245f50                digitalRead(unsigned short)
 *fill*         0x40245f75        0x3 
 .text._Z6pullupt
                0x40245f78       0x2a build/app_app.a(Digital.o)
                0x40245f7c                pullup(unsigned short)
 *fill*         0x40245fa2        0x2 
 .text._Z7pinModeth
                0x40245fa4       0xfd build/app_app.a(Digital.o)
                                0x10c (size before relaxing)
                0x40245fb4                pinMode(unsigned short, unsigned char)
 *fill*         0x402460a1        0x3 
 .text._Z8noPullupt
                0x402460a4       0x26 build/app_app.a(Digital.o)
                                 0x2a (size before relaxing)
                0x402460a4                noPullup(unsigned short)
 *fill*         0x402460ca        0x2 
 .text._Z12digitalWriteth
                0x402460cc       0x77 build/app_app.a(Digital.o)
                                 0x8f (size before relaxing)
                0x402460d8                digitalWrite(unsigned short, unsigned char)
 *fill*         0x40246143        0x1 
 .text._Z7pulseInthm
                0x40246144       0xcf build/app_app.a(Digital.o)
                                 0xd7 (size before relaxing)
                0x40246148                pulseIn(unsigned short, unsigned char, unsigned long)
 *fill*         0x40246213        0x1 
 .text._ZN14HardwareSerial5writeEh
                0x40246214       0x19 build/app_app.a(Temp_HardwareSerial.o)
                                 0x1d (size before relaxing)
                0x40246214                HardwareSerial::write(unsigned char)
 *fill*         0x4024622d        0x3 
 .text._ZN14HardwareSerial11setCallbackE8DelegateIFvR6StreamctEEb
                0x40246230       0x61 build/app_app.a(Temp_HardwareSerial.o)
                0x40246234                HardwareSerial::setCallback(Delegate<void (Stream&, char, unsigned short)>, bool)
 *fill*         0x40246291        0x3 
 .text._ZN14HardwareSerial13resetCallbackEv
                0x40246294       0x47 build/app_app.a(Temp_HardwareSerial.o)
                                 0x4b (size before relaxing)
                0x40246294                HardwareSerial::resetCallback()
 *fill*         0x402462db        0x1 
 .text._ZN14HardwareSerialC2Ei
                0x402462dc       0x28 build/app_app.a(Temp_HardwareSerial.o)
                                 0x2c (size before relaxing)
                0x402462e0                HardwareSerial::HardwareSerial(int)
                0x402462e0                HardwareSerial::HardwareSerial(int)
 .text.startup._GLOBAL__sub_I__ZN14HardwareSerial10memberDataE
                0x40246304       0x1b build/app_app.a(Temp_HardwareSerial.o)
                                 0x2b (size before relaxing)
 *fill*         0x4024631f        0x1 
 .text.exit._GLOBAL__sub_D__ZN14HardwareSerial10memberDataE
                0x40246320       0x37 build/app_app.a(Temp_HardwareSerial.o)
                                 0x3b (size before relaxing)
 *fill*         0x40246357        0x1 
 .text._ZN5TimerC2Ev
                0x40246358       0x1e build/app_app.a(Timer.o)
                                 0x26 (size before relaxing)
                0x40246358                Timer::Timer()
                0x40246358                Timer::Timer()
 *fill*         0x40246376        0x2 
 .text._ZN5TimerD2Ev
                0x40246378       0x31 build/app_app.a(Timer.o)
                0x4024637c                Timer::~Timer()
                0x4024637c                Timer::~Timer()
 *fill*         0x402463a9        0x3 
 .text._ZN5Timer13getIntervalUsEv
                0x402463ac       0x27 build/app_app.a(Timer.o)
                                 0x2b (size before relaxing)
                0x402463ac                Timer::getIntervalUs()
 *fill*         0x402463d3        0x1 
 .text._ZN5Timer13getIntervalMsEv
                0x402463d4       0x18 build/app_app.a(Timer.o)
                                 0x24 (size before relaxing)
                0x402463d4                Timer::getIntervalMs()
 .text._ZN11WifiStationD0Ev
                0x402463ec       0x13 build/app_app.a(WifiStation.o)
                                 0x17 (size before relaxing)
                0x402463ec                WifiStation::~WifiStation()
 *fill*         0x402463ff        0x1 
 .text._ZN11WifiStationC2Ev
                0x40246400        0xb build/app_app.a(WifiStation.o)
                0x40246404                WifiStation::WifiStation()
                0x40246404                WifiStation::WifiStation()
 *fill*         0x4024640b        0x1 
 .text._ZN11WifiStation6configEPcS0_
                0x4024640c       0x43 build/app_app.a(WifiStation.o)
                                 0x5b (size before relaxing)
                0x40246410                WifiStation::config(char*, char*)
 *fill*         0x4024644f        0x1 
 .text.startup._GLOBAL__sub_I__ZN11WifiStationC2Ev
                0x40246450        0xa build/app_app.a(WifiStation.o)
                                 0x12 (size before relaxing)
 *fill*         0x4024645a        0x2 
 .text._ZN6CQueueC2Ev
                0x4024645c        0xf build/app_app.a(CQueue.o)
                0x40246460                CQueue::CQueue()
                0x40246460                CQueue::CQueue()
 *fill*         0x4024646b        0x1 
 .text._ZN6CQueue6CreateEmm
                0x4024646c       0x2d build/app_app.a(CQueue.o)
                                 0x31 (size before relaxing)
                0x4024646c                CQueue::Create(unsigned long, unsigned long)
 *fill*         0x40246499        0x3 
 .text._ZN6CQueue6DeleteEv
                0x4024649c       0x21 build/app_app.a(CQueue.o)
                                 0x25 (size before relaxing)
                0x4024649c                CQueue::Delete()
 *fill*         0x402464bd        0x3 
 .text._ZN6CQueueD2Ev
                0x402464c0       0x1b build/app_app.a(CQueue.o)
                                 0x23 (size before relaxing)
                0x402464c0                CQueue::~CQueue()
                0x402464c0                CQueue::~CQueue()
 *fill*         0x402464db        0x1 
 .text._ZN6CQueueD0Ev
                0x402464dc       0x1d build/app_app.a(CQueue.o)
                                 0x29 (size before relaxing)
                0x402464dc                CQueue::~CQueue()
 *fill*         0x402464f9        0x3 
 .text._ZN6CQueue6AttachEPv
                0x402464fc       0x2d build/app_app.a(CQueue.o)
                                 0x31 (size before relaxing)
                0x402464fc                CQueue::Attach(void*)
 *fill*         0x40246529        0x3 
 .text._ZN6CQueueC2EPv
                0x4024652c       0x17 build/app_app.a(CQueue.o)
                                 0x1f (size before relaxing)
                0x4024652c                CQueue::CQueue(void*)
                0x4024652c                CQueue::CQueue(void*)
 *fill*         0x40246543        0x1 
 .text._ZN5CTaskC2Ev
                0x40246544        0xf build/app_app.a(CTask.o)
                0x40246548                CTask::CTask()
                0x40246548                CTask::CTask()
 *fill*         0x40246553        0x1 
 .text._ZN5CTask6CreateEPFvPvEPKctS0_m
                0x40246554       0x41 build/app_app.a(CTask.o)
                                 0x49 (size before relaxing)
                0x40246554                CTask::Create(void (*)(void*), char const*, unsigned short, void*, unsigned long)
 *fill*         0x40246595        0x3 
 .text._ZN5CTask6DeleteEv
                0x40246598       0x23 build/app_app.a(CTask.o)
                                 0x2b (size before relaxing)
                0x40246598                CTask::Delete()
 *fill*         0x402465bb        0x1 
 .text._ZN5CTaskD2Ev
                0x402465bc       0x1b build/app_app.a(CTask.o)
                                 0x23 (size before relaxing)
                0x402465bc                CTask::~CTask()
                0x402465bc                CTask::~CTask()
 *fill*         0x402465d7        0x1 
 .text._ZN5CTaskD0Ev
                0x402465d8       0x1d build/app_app.a(CTask.o)
                                 0x29 (size before relaxing)
                0x402465d8                CTask::~CTask()
 *fill*         0x402465f5        0x3 
 .text._ZN5CTask6AttachEPv
                0x402465f8       0x2d build/app_app.a(CTask.o)
                                 0x31 (size before relaxing)
                0x402465f8                CTask::Attach(void*)
 *fill*         0x40246625        0x3 
 .text._ZN5CTaskC2EPv
                0x40246628       0x17 build/app_app.a(CTask.o)
                                 0x1f (size before relaxing)
                0x40246628                CTask::CTask(void*)
                0x40246628                CTask::CTask(void*)
 *fill*         0x4024663f        0x1 
 .text._ZN9IPAddressC2Ev
                0x40246640       0x17 build/app_app.a(IPAddress.o)
                                 0x1b (size before relaxing)
                0x40246640                IPAddress::IPAddress()
                0x40246640                IPAddress::IPAddress()
 *fill*         0x40246657        0x1 
 .text._ZN9IPAddress10fromStringERK6String
                0x40246658       0x87 build/app_app.a(IPAddress.o)
                                 0xbf (size before relaxing)
                0x4024665c                IPAddress::fromString(String const&)
 *fill*         0x402466df        0x1 
 .text._ZN9IPAddressC2E6String
                0x402466e0        0xf build/app_app.a(IPAddress.o)
                                 0x17 (size before relaxing)
                0x402466e0                IPAddress::IPAddress(String)
                0x402466e0                IPAddress::IPAddress(String)
 *fill*         0x402466ef        0x1 
 .text._ZN9IPAddressaSE6String
                0x402466f0       0x17 build/app_app.a(IPAddress.o)
                                 0x1f (size before relaxing)
                0x402466f0                IPAddress::operator=(String)
 *fill*         0x40246707        0x1 
 .text._ZN9IPAddresseqEPKh
                0x40246708       0x28 build/app_app.a(IPAddress.o)
                0x4024670c                IPAddress::operator==(unsigned char const*)
 .text._ZN9IPAddress8toStringEv
                0x40246730       0x53 build/app_app.a(IPAddress.o)
                                 0x6b (size before relaxing)
                0x40246734                IPAddress::toString()
 *fill*         0x40246783        0x1 
 .text._ZN5Print5writeEPKc
                0x40246784       0x32 build/app_app.a(Print.o)
                0x40246788                Print::write(char const*)
 *fill*         0x402467b6        0x2 
 .text._ZN5Print5printEPKc
                0x402467b8        0xf build/app_app.a(Print.o)
                                 0x17 (size before relaxing)
                0x402467b8                Print::print(char const*)
 *fill*         0x402467c7        0x1 
 .text._ZN5Print7printlnEv
                0x402467c8       0x29 build/app_app.a(Print.o)
                                 0x35 (size before relaxing)
                0x402467c8                Print::println()
 *fill*         0x402467f1        0x3 
 .text._ZN5Print7printlnERK6String
                0x402467f4       0x25 build/app_app.a(Print.o)
                                 0x31 (size before relaxing)
                0x402467f4                Print::println(String const&)
 *fill*         0x40246819        0x3 
 .text._ZN5Print7printlnEc
                0x4024681c       0x27 build/app_app.a(Print.o)
                                 0x33 (size before relaxing)
                0x4024681c                Print::println(char)
 *fill*         0x40246843        0x1 
 .text._ZN5Print7printlnEPKc
                0x40246844       0x25 build/app_app.a(Print.o)
                                 0x31 (size before relaxing)
                0x40246844                Print::println(char const*)
 *fill*         0x40246869        0x3 
 .text._ZN5Print7printlnERK9Printable
                0x4024686c       0x25 build/app_app.a(Print.o)
                                 0x31 (size before relaxing)
                0x4024686c                Print::println(Printable const&)
 *fill*         0x40246891        0x3 
 .text._ZN5Print6printfEPKcz
                0x40246894       0x91 build/app_app.a(Print.o)
                                 0x95 (size before relaxing)
                0x40246894                Print::printf(char const*, ...)
 *fill*         0x40246925        0x3 
 .text._ZN5Print11printNumberEmh
                0x40246928       0x74 build/app_app.a(Print.o)
                                 0x80 (size before relaxing)
                0x40246928                Print::printNumber(unsigned long, unsigned char)
 .text._ZN5Print5printEmi
                0x4024699c       0x21 build/app_app.a(Print.o)
                                 0x28 (size before relaxing)
                0x4024699c                Print::print(unsigned long, int)
 *fill*         0x402469bd        0x3 
 .text._ZN5Print5printEji
                0x402469c0        0xf build/app_app.a(Print.o)
                                 0x17 (size before relaxing)
                0x402469c0                Print::print(unsigned int, int)
 *fill*         0x402469cf        0x1 
 .text._ZN5Print7printlnEji
                0x402469d0       0x25 build/app_app.a(Print.o)
                                 0x31 (size before relaxing)
                0x402469d0                Print::println(unsigned int, int)
 *fill*         0x402469f5        0x3 
 .text._ZN5Print5printEhi
                0x402469f8       0x15 build/app_app.a(Print.o)
                                 0x19 (size before relaxing)
                0x402469f8                Print::print(unsigned char, int)
 *fill*         0x40246a0d        0x3 
 .text._ZN5Print7printlnEhi
                0x40246a10       0x27 build/app_app.a(Print.o)
                                 0x33 (size before relaxing)
                0x40246a10                Print::println(unsigned char, int)
 *fill*         0x40246a37        0x1 
 .text._ZN5Print7printlnEmi
                0x40246a38       0x25 build/app_app.a(Print.o)
                                 0x31 (size before relaxing)
                0x40246a38                Print::println(unsigned long, int)
 *fill*         0x40246a5d        0x3 
 .text._ZN5Print5printEli
                0x40246a60       0x5b build/app_app.a(Print.o)
                                 0x6b (size before relaxing)
                0x40246a60                Print::print(long, int)
 *fill*         0x40246abb        0x1 
 .text._ZN5Print5printEii
                0x40246abc        0xf build/app_app.a(Print.o)
                                 0x17 (size before relaxing)
                0x40246abc                Print::print(int, int)
 *fill*         0x40246acb        0x1 
 .text._ZN5Print7printlnEii
                0x40246acc       0x25 build/app_app.a(Print.o)
                                 0x31 (size before relaxing)
                0x40246acc                Print::println(int, int)
 *fill*         0x40246af1        0x3 
 .text._ZN5Print7printlnEli
                0x40246af4       0x25 build/app_app.a(Print.o)
                                 0x31 (size before relaxing)
                0x40246af4                Print::println(long, int)
 *fill*         0x40246b19        0x3 
 .text._ZN5Print10printFloatEdh
                0x40246b1c      0x195 build/app_app.a(Print.o)
                                0x209 (size before relaxing)
                0x40246b40                Print::printFloat(double, unsigned char)
 *fill*         0x40246cb1        0x3 
 .text._ZN5Print5printEdi
                0x40246cb4       0x15 build/app_app.a(Print.o)
                                 0x19 (size before relaxing)
                0x40246cb4                Print::print(double, int)
 *fill*         0x40246cc9        0x3 
 .text._ZN5Print7printlnEdi
                0x40246ccc       0x25 build/app_app.a(Print.o)
                                 0x31 (size before relaxing)
                0x40246ccc                Print::println(double, int)
 *fill*         0x40246cf1        0x3 
 .text._ZN6StringD2Ev
                0x40246cf4       0x14 build/app_app.a(WString.o)
                                 0x18 (size before relaxing)
                0x40246cf4                String::~String()
                0x40246cf4                String::~String()
 .text._ZN6String7reserveEj
                0x40246d08       0x39 build/app_app.a(WString.o)
                0x40246d0c                String::reserve(unsigned int)
 *fill*         0x40246d41        0x3 
 .text._ZN6String4copyEPKcj
                0x40246d44       0x50 build/app_app.a(WString.o)
                                 0x5c (size before relaxing)
                0x40246d48                String::copy(char const*, unsigned int)
 .text._ZN6StringC2Ec
                0x40246d94       0x28 build/app_app.a(WString.o)
                0x40246d98                String::String(char)
                0x40246d98                String::String(char)
 .text._ZN6StringC2Ehh
                0x40246dbc       0x31 build/app_app.a(WString.o)
                                 0x3d (size before relaxing)
                0x40246dbc                String::String(unsigned char, unsigned char)
                0x40246dbc                String::String(unsigned char, unsigned char)
 *fill*         0x40246ded        0x3 
 .text._ZN6StringC2Eih
                0x40246df0       0x33 build/app_app.a(WString.o)
                                 0x3b (size before relaxing)
                0x40246df0                String::String(int, unsigned char)
                0x40246df0                String::String(int, unsigned char)
 *fill*         0x40246e23        0x1 
 .text._ZN6StringC2Ejh
                0x40246e24       0x33 build/app_app.a(WString.o)
                                 0x3b (size before relaxing)
                0x40246e24                String::String(unsigned int, unsigned char)
                0x40246e24                String::String(unsigned int, unsigned char)
 *fill*         0x40246e57        0x1 
 .text._ZN6StringC2Elh
                0x40246e58       0x33 build/app_app.a(WString.o)
                                 0x3b (size before relaxing)
                0x40246e58                String::String(long, unsigned char)
                0x40246e58                String::String(long, unsigned char)
 *fill*         0x40246e8b        0x1 
 .text._ZN6StringC2Emh
                0x40246e8c       0x33 build/app_app.a(WString.o)
                                 0x3b (size before relaxing)
                0x40246e8c                String::String(unsigned long, unsigned char)
                0x40246e8c                String::String(unsigned long, unsigned char)
 *fill*         0x40246ebf        0x1 
 .text._ZN6StringC2Efh
                0x40246ec0       0x45 build/app_app.a(WString.o)
                                 0x51 (size before relaxing)
                0x40246ec0                String::String(float, unsigned char)
                0x40246ec0                String::String(float, unsigned char)
 *fill*         0x40246f05        0x3 
 .text._ZN6StringC2Edh
                0x40246f08       0x35 build/app_app.a(WString.o)
                                 0x3d (size before relaxing)
                0x40246f08                String::String(double, unsigned char)
                0x40246f08                String::String(double, unsigned char)
 *fill*         0x40246f3d        0x3 
 .text._ZN6String9setStringEPKci
                0x40246f40       0x2a build/app_app.a(WString.o)
                                 0x35 (size before relaxing)
                0x40246f40                String::setString(char const*, int)
 *fill*         0x40246f6a        0x2 
 .text._ZN6String4moveERS_
                0x40246f6c       0x3d build/app_app.a(WString.o)
                                 0x41 (size before relaxing)
                0x40246f6c                String::move(String&)
 *fill*         0x40246fa9        0x3 
 .text._ZN6StringaSEOS_
                0x40246fac       0x1d build/app_app.a(WString.o)
                                 0x21 (size before relaxing)
                0x40246fac                String::operator=(String&&)
 *fill*         0x40246fc9        0x3 
 .text._ZN6StringaSEO15StringSumHelper
                0x40246fcc       0x1d build/app_app.a(WString.o)
                                 0x21 (size before relaxing)
                0x40246fcc                String::operator=(StringSumHelper&&)
 *fill*         0x40246fe9        0x3 
 .text._ZN6String6concatERKS_
                0x40246fec       0x1b build/app_app.a(WString.o)
                0x40246ff0                String::concat(String const&)
 *fill*         0x40247007        0x1 
 .text._ZN6String6concatEPKc
                0x40247008       0x2d build/app_app.a(WString.o)
                                 0x35 (size before relaxing)
                0x40247008                String::concat(char const*)
 *fill*         0x40247035        0x3 
 .text._ZN6String6concatEc
                0x40247038       0x1f build/app_app.a(WString.o)
                                 0x23 (size before relaxing)
                0x40247038                String::concat(char)
 *fill*         0x40247057        0x1 
 .text._ZN6String6concatEh
                0x40247058       0x33 build/app_app.a(WString.o)
                                 0x3f (size before relaxing)
                0x40247058                String::concat(unsigned char)
 *fill*         0x4024708b        0x1 
 .text._ZN6String6concatEi
                0x4024708c       0x32 build/app_app.a(WString.o)
                                 0x3e (size before relaxing)
                0x4024708c                String::concat(int)
 *fill*         0x402470be        0x2 
 .text._ZN6String6concatEj
                0x402470c0       0x32 build/app_app.a(WString.o)
                                 0x3e (size before relaxing)
                0x402470c0                String::concat(unsigned int)
 *fill*         0x402470f2        0x2 
 .text._ZN6String6concatEl
                0x402470f4       0x32 build/app_app.a(WString.o)
                                 0x3e (size before relaxing)
                0x402470f4                String::concat(long)
 *fill*         0x40247126        0x2 
 .text._ZN6String6concatEm
                0x40247128       0x32 build/app_app.a(WString.o)
                                 0x3e (size before relaxing)
                0x40247128                String::concat(unsigned long)
 *fill*         0x4024715a        0x2 
 .text._ZN6String6concatEf
                0x4024715c       0x3b build/app_app.a(WString.o)
                                 0x4f (size before relaxing)
                0x4024715c                String::concat(float)
 *fill*         0x40247197        0x1 
 .text._ZN6String6concatEd
                0x40247198       0x37 build/app_app.a(WString.o)
                                 0x47 (size before relaxing)
                0x40247198                String::concat(double)
 *fill*         0x402471cf        0x1 
 .text._ZplRK15StringSumHelperRK6String
                0x402471d0       0x29 build/app_app.a(WString.o)
                                 0x31 (size before relaxing)
                0x402471d0                operator+(StringSumHelper const&, String const&)
 *fill*         0x402471f9        0x3 
 .text._ZplRK15StringSumHelperPKc
                0x402471fc       0x37 build/app_app.a(WString.o)
                                 0x43 (size before relaxing)
                0x402471fc                operator+(StringSumHelper const&, char const*)
 *fill*         0x40247233        0x1 
 .text._ZplRK15StringSumHelperc
                0x40247234       0x27 build/app_app.a(WString.o)
                                 0x2f (size before relaxing)
                0x40247234                operator+(StringSumHelper const&, char)
 *fill*         0x4024725b        0x1 
 .text._ZplRK15StringSumHelperh
                0x4024725c       0x27 build/app_app.a(WString.o)
                                 0x2f (size before relaxing)
                0x4024725c                operator+(StringSumHelper const&, unsigned char)
 *fill*         0x40247283        0x1 
 .text._ZplRK15StringSumHelperi
                0x40247284       0x21 build/app_app.a(WString.o)
                                 0x2d (size before relaxing)
                0x40247284                operator+(StringSumHelper const&, int)
 *fill*         0x402472a5        0x3 
 .text._ZplRK15StringSumHelperj
                0x402472a8       0x21 build/app_app.a(WString.o)
                                 0x2d (size before relaxing)
                0x402472a8                operator+(StringSumHelper const&, unsigned int)
 *fill*         0x402472c9        0x3 
 .text._ZplRK15StringSumHelperl
                0x402472cc       0x21 build/app_app.a(WString.o)
                                 0x2d (size before relaxing)
                0x402472cc                operator+(StringSumHelper const&, long)
 *fill*         0x402472ed        0x3 
 .text._ZplRK15StringSumHelperm
                0x402472f0       0x21 build/app_app.a(WString.o)
                                 0x2d (size before relaxing)
                0x402472f0                operator+(StringSumHelper const&, unsigned long)
 *fill*         0x40247311        0x3 
 .text._ZplRK15StringSumHelperf
                0x40247314       0x21 build/app_app.a(WString.o)
                                 0x2d (size before relaxing)
                0x40247314                operator+(StringSumHelper const&, float)
 *fill*         0x40247335        0x3 
 .text._ZplRK15StringSumHelperd
                0x40247338       0x21 build/app_app.a(WString.o)
                                 0x2d (size before relaxing)
                0x40247338                operator+(StringSumHelper const&, double)
 *fill*         0x40247359        0x3 
 .text._ZNK6StringltERKS_
                0x4024735c       0x1a build/app_app.a(WString.o)
                0x40247360                String::operator<(String const&) const
 *fill*         0x40247376        0x2 
 .text._ZNK6StringgtERKS_
                0x40247378       0x1c build/app_app.a(WString.o)
                                 0x20 (size before relaxing)
                0x40247378                String::operator>(String const&) const
 .text._ZNK6StringleERKS_
                0x40247394       0x1b build/app_app.a(WString.o)
                                 0x1f (size before relaxing)
                0x40247394                String::operator<=(String const&) const
 *fill*         0x402473af        0x1 
 .text._ZNK6StringgeERKS_
                0x402473b0       0x1b build/app_app.a(WString.o)
                                 0x1f (size before relaxing)
                0x402473b0                String::operator>=(String const&) const
 *fill*         0x402473cb        0x1 
 .text._ZNK6String16equalsIgnoreCaseERKS_
                0x402473cc       0x53 build/app_app.a(WString.o)
                                 0x5f (size before relaxing)
                0x402473cc                String::equalsIgnoreCase(String const&) const
 *fill*         0x4024741f        0x1 
 .text._ZNK6String10startsWithERKS_j
                0x40247420       0x40 build/app_app.a(WString.o)
                0x40247424                String::startsWith(String const&, unsigned int) const
 .text._ZNK6String10startsWithERKS_
                0x40247460       0x21 build/app_app.a(WString.o)
                                 0x25 (size before relaxing)
                0x40247460                String::startsWith(String const&) const
 *fill*         0x40247481        0x3 
 .text._ZNK6String8endsWithERKS_
                0x40247484       0x3b build/app_app.a(WString.o)
                                 0x3f (size before relaxing)
                0x40247484                String::endsWith(String const&) const
 *fill*         0x402474bf        0x1 
 .text._ZNK6String8getBytesEPhjj
                0x402474c0       0x53 build/app_app.a(WString.o)
                                 0x57 (size before relaxing)
                0x402474c0                String::getBytes(unsigned char*, unsigned int, unsigned int) const
 *fill*         0x40247513        0x1 
 .text._ZNK6String7indexOfEcj
                0x40247514       0x2f build/app_app.a(WString.o)
                                 0x33 (size before relaxing)
                0x40247514                String::indexOf(char, unsigned int) const
 *fill*         0x40247543        0x1 
 .text._ZNK6String7indexOfERKS_j
                0x40247544       0x33 build/app_app.a(WString.o)
                0x40247548                String::indexOf(String const&, unsigned int) const
 *fill*         0x40247577        0x1 
 .text._ZNK6String11lastIndexOfEci
                0x40247578       0x54 build/app_app.a(WString.o)
                                 0x58 (size before relaxing)
                0x40247578                String::lastIndexOf(char, int) const
 .text._ZNK6String11lastIndexOfEc
                0x402475cc       0x17 build/app_app.a(WString.o)
                                 0x1f (size before relaxing)
                0x402475cc                String::lastIndexOf(char) const
 *fill*         0x402475e3        0x1 
 .text._ZNK6String11lastIndexOfERKS_i
                0x402475e4       0x77 build/app_app.a(WString.o)
                                 0x7b (size before relaxing)
                0x402475e4                String::lastIndexOf(String const&, int) const
 *fill*         0x4024765b        0x1 
 .text._ZNK6String11lastIndexOfERKS_
                0x4024765c       0x1b build/app_app.a(WString.o)
                                 0x1f (size before relaxing)
                0x4024765c                String::lastIndexOf(String const&) const
 *fill*         0x40247677        0x1 
 .text._ZNK6String9substringEjj
                0x40247678       0x6d build/app_app.a(WString.o)
                                 0x75 (size before relaxing)
                0x4024767c                String::substring(unsigned int, unsigned int) const
 *fill*         0x402476e5        0x3 
 .text._ZN6String7replaceERKS_S1_
                0x402476e8      0x177 build/app_app.a(WString.o)
                                0x19b (size before relaxing)
                0x402476f0                String::replace(String const&, String const&)
 *fill*         0x4024785f        0x1 
 .text._ZN6String6removeEjj
                0x40247860       0x4b build/app_app.a(WString.o)
                                 0x4f (size before relaxing)
                0x40247860                String::remove(unsigned int, unsigned int)
 *fill*         0x402478ab        0x1 
 .text._ZN6String6removeEj
                0x402478ac       0x18 build/app_app.a(WString.o)
                                 0x1f (size before relaxing)
                0x402478ac                String::remove(unsigned int)
 *fill*         0x402478c4        0x0 
 .text._ZN6String11toLowerCaseEv
                0x402478c4       0x25 build/app_app.a(WString.o)
                                 0x2d (size before relaxing)
                0x402478c4                String::toLowerCase()
 *fill*         0x402478e9        0x3 
 .text._ZN6String11toUpperCaseEv
                0x402478ec       0x29 build/app_app.a(WString.o)
                                 0x2d (size before relaxing)
                0x402478ec                String::toUpperCase()
 *fill*         0x40247915        0x3 
 .text._ZN6String4trimEv
                0x40247918       0x8b build/app_app.a(WString.o)
                                 0x97 (size before relaxing)
                0x40247918                String::trim()
 *fill*         0x402479a3        0x1 
 .text._ZNK6String5toIntEv
                0x402479a4       0x1b build/app_app.a(WString.o)
                                 0x1f (size before relaxing)
                0x402479a4                String::toInt() const
 *fill*         0x402479bf        0x1 
 .text._ZNK6String7toFloatEv
                0x402479c0       0x21 build/app_app.a(WString.o)
                                 0x2d (size before relaxing)
                0x402479c0                String::toFloat() const
 *fill*         0x402479e1        0x3 
 .text._ZN12HttpResponseD2Ev
                0x402479e4       0xa8 build/app_app.a(HttpResponse.o)
                                 0xcc (size before relaxing)
                0x402479e8                HttpResponse::~HttpResponse()
                0x402479e8                HttpResponse::~HttpResponse()
 .text._ZN12HttpResponseD0Ev
                0x40247a8c       0x1d build/app_app.a(HttpResponse.o)
                                 0x29 (size before relaxing)
                0x40247a8c                HttpResponse::~HttpResponse()
 *fill*         0x40247aa9        0x3 
 .text._ZN11ContentTypeL16fromFullFileNameE6String
                0x40247aac      0x169 build/app_app.a(HttpResponse.o)
                                0x1d1 (size before relaxing)
 *fill*         0x40247c15        0x3 
 .text._ZN12HttpResponseC2Ev
                0x40247c18       0x62 build/app_app.a(HttpResponse.o)
                                 0x72 (size before relaxing)
                0x40247c20                HttpResponse::HttpResponse()
                0x40247c20                HttpResponse::HttpResponse()
 *fill*         0x40247c7a        0x2 
 .text._ZN12HttpResponse18switchingProtocolsEv
                0x40247c7c       0x1b build/app_app.a(HttpResponse.o)
                                 0x1f (size before relaxing)
                0x40247c80                HttpResponse::switchingProtocols()
 *fill*         0x40247c97        0x1 
 .text._ZN12HttpResponse10badRequestEv
                0x40247c98       0x1b build/app_app.a(HttpResponse.o)
                                 0x1f (size before relaxing)
                0x40247c9c                HttpResponse::badRequest()
 *fill*         0x40247cb3        0x1 
 .text._ZN12HttpResponse8notFoundEv
                0x40247cb4       0x1b build/app_app.a(HttpResponse.o)
                                 0x1f (size before relaxing)
                0x40247cb8                HttpResponse::notFound()
 *fill*         0x40247ccf        0x1 
 .text._ZN12HttpResponse9forbiddenEv
                0x40247cd0       0x1b build/app_app.a(HttpResponse.o)
                                 0x1f (size before relaxing)
                0x40247cd4                HttpResponse::forbidden()
 *fill*         0x40247ceb        0x1 
 .text._ZN12HttpResponse21authorizationRequiredEv
                0x40247cec       0x1b build/app_app.a(HttpResponse.o)
                                 0x1f (size before relaxing)
                0x40247cf0                HttpResponse::authorizationRequired()
 *fill*         0x40247d07        0x1 
 .text._ZN12HttpResponse13getStatusNameEv
                0x40247d08       0x1c build/app_app.a(HttpResponse.o)
                                 0x20 (size before relaxing)
                0x40247d08                HttpResponse::getStatusName()
 .text._ZN12HttpResponse13getStatusCodeEv
                0x40247d24       0x5d build/app_app.a(HttpResponse.o)
                                 0x71 (size before relaxing)
                0x40247d28                HttpResponse::getStatusCode()
 *fill*         0x40247d81        0x3 
 .text._ZN12HttpResponse10sendStringEPKc
                0x40247d84       0x92 build/app_app.a(HttpResponse.o)
                                 0xa2 (size before relaxing)
                0x40247d88                HttpResponse::sendString(char const*)
 *fill*         0x40247e16        0x2 
 .text._ZN12HttpResponse10sendStringE6String
                0x40247e18       0x14 build/app_app.a(HttpResponse.o)
                                 0x18 (size before relaxing)
                0x40247e18                HttpResponse::sendString(String)
 .text._ZN12HttpResponse10sendHeaderER20HttpServerConnection
                0x40247e2c      0x108 build/app_app.a(HttpResponse.o)
                                0x188 (size before relaxing)
                0x40247e38                HttpResponse::sendHeader(HttpServerConnection&)
 .text._ZN12HttpResponse8sendBodyER20HttpServerConnection
                0x40247f34       0x6c build/app_app.a(HttpResponse.o)
                                 0x80 (size before relaxing)
                0x40247f38                HttpResponse::sendBody(HttpServerConnection&)
 .text._ZNK7HashMapI6StringS0_E8containsES0_
                0x40247fa0       0x87 build/app_app.a(HttpResponse.o)
                                 0x9f (size before relaxing)
                0x40247fa4                HashMap<String, String>::contains(String) const
 *fill*         0x40248027        0x1 
 .text._ZN12HttpResponse9hasHeaderE6String
                0x40248028       0x2d build/app_app.a(HttpResponse.o)
                                 0x3d (size before relaxing)
                0x40248028                HttpResponse::hasHeader(String)
 *fill*         0x40248055        0x3 
 .text._ZN7HashMapI6StringS0_E8allocateEi
                0x40248058       0xeb build/app_app.a(HttpResponse.o)
                                0x10f (size before relaxing)
                0x4024805c                HashMap<String, String>::allocate(int)
 *fill*         0x40248143        0x1 
 .text._ZN12HttpResponse9setHeaderE6StringS0_
                0x40248144      0x140 build/app_app.a(HttpResponse.o)
                                0x190 (size before relaxing)
                0x40248148                HttpResponse::setHeader(String, String)
 .text._ZN12HttpResponse8redirectE6String
                0x40248284       0x55 build/app_app.a(HttpResponse.o)
                                 0x75 (size before relaxing)
                0x4024828c                HttpResponse::redirect(String)
 *fill*         0x402482d9        0x3 
 .text._ZN12HttpResponse14setContentTypeE6String
                0x402482dc       0x45 build/app_app.a(HttpResponse.o)
                                 0x61 (size before relaxing)
                0x402482e0                HttpResponse::setContentType(String)
 *fill*         0x40248321        0x3 
 .text._ZN12HttpResponse12sendTemplateEP18TemplateFileStream
                0x40248324       0xa9 build/app_app.a(HttpResponse.o)
                                 0xf9 (size before relaxing)
                0x40248324                HttpResponse::sendTemplate(TemplateFileStream*)
 *fill*         0x402483cd        0x3 
 .text._ZN12HttpResponse14sendJsonObjectEP16JsonObjectStream
                0x402483d0       0x73 build/app_app.a(HttpResponse.o)
                                 0xa3 (size before relaxing)
                0x402483d4                HttpResponse::sendJsonObject(JsonObjectStream*)
 *fill*         0x40248443        0x1 
 .text._ZN12HttpResponse9setCookieE6StringS0_
                0x40248444       0x6d build/app_app.a(HttpResponse.o)
                                 0xa5 (size before relaxing)
                0x4024844c                HttpResponse::setCookie(String, String)
 *fill*         0x402484b1        0x3 
 .text._ZN12HttpResponse8setCacheEib
                0x402484b4       0xba build/app_app.a(HttpResponse.o)
                                0x11e (size before relaxing)
                0x402484c8                HttpResponse::setCache(int, bool)
 *fill*         0x4024856e        0x2 
 .text._ZN12HttpResponse25setAllowCrossDomainOriginE6String
                0x40248570       0x45 build/app_app.a(HttpResponse.o)
                                 0x61 (size before relaxing)
                0x40248574                HttpResponse::setAllowCrossDomainOrigin(String)
 *fill*         0x402485b5        0x3 
 .text._ZN12HttpResponse8sendFileE6Stringb
                0x402485b8      0x198 build/app_app.a(HttpResponse.o)
                                0x268 (size before relaxing)
                0x402485c8                HttpResponse::sendFile(String, bool)
 .text.startup._GLOBAL__sub_I__ZN12HttpResponseC2Ev
                0x40248750       0x21 build/app_app.a(HttpResponse.o)
                                 0x25 (size before relaxing)
 *fill*         0x40248771        0x3 
 .text._ZN12MethodCallerIM10HttpServerFvR20HttpServerConnectionEED0Ev
                0x40248774       0x13 build/app_app.a(HttpServer.o)
                                 0x17 (size before relaxing)
                0x40248774                MethodCaller<void (HttpServer::*)(HttpServerConnection&)>::~MethodCaller()
 *fill*         0x40248787        0x1 
 .text._ZN6VectorI9WebSocketEixEj
                0x40248788       0x22 build/app_app.a(HttpServer.o)
                                 0x26 (size before relaxing)
                0x40248788                Vector<WebSocket>::operator[](unsigned int)
 *fill*         0x402487aa        0x2 
 .text._ZNK6VectorI9WebSocketEixEj
                0x402487ac       0x22 build/app_app.a(HttpServer.o)
                                 0x26 (size before relaxing)
                0x402487ac                Vector<WebSocket>::operator[](unsigned int) const
 *fill*         0x402487ce        0x2 
 .text._ZN6VectorI9WebSocketED2Ev
                0x402487d0       0x56 build/app_app.a(HttpServer.o)
                                 0x62 (size before relaxing)
                0x402487d4                Vector<WebSocket>::~Vector()
                0x402487d4                Vector<WebSocket>::~Vector()
 *fill*         0x40248826        0x2 
 .text._ZN6VectorI9WebSocketED0Ev
                0x40248828       0x1d build/app_app.a(HttpServer.o)
                                 0x29 (size before relaxing)
                0x40248828                Vector<WebSocket>::~Vector()
 *fill*         0x40248845        0x3 
 .text._ZN10HttpServer12createClientEP7tcp_pcb
                0x40248848       0x33 build/app_app.a(HttpServer.o)
                                 0x3b (size before relaxing)
                0x40248848                HttpServer::createClient(tcp_pcb*)
 *fill*         0x4024887b        0x1 
 .text._ZN10HttpServer13initWebSocketER20HttpServerConnectionR11HttpRequestR12HttpResponse
                0x4024887c      0x16a build/app_app.a(HttpServer.o)
                                0x1da (size before relaxing)
                0x40248890                HttpServer::initWebSocket(HttpServerConnection&, HttpRequest&, HttpResponse&)
 *fill*         0x402489e6        0x2 
 .text._ZN10HttpServer22enableHeaderProcessingE6String
                0x402489e8       0xa7 build/app_app.a(HttpServer.o)
                                 0xc7 (size before relaxing)
                0x402489e8                HttpServer::enableHeaderProcessing(String)
 *fill*         0x40248a8f        0x1 
 .text._ZN10HttpServerC2Ev
                0x40248a90      0x13b build/app_app.a(HttpServer.o)
                                0x1bf (size before relaxing)
                0x40248aa8                HttpServer::HttpServer()
                0x40248aa8                HttpServer::HttpServer()
 *fill*         0x40248bcb        0x1 
 .text._ZN10HttpServer25isHeaderProcessingEnabledE6String
                0x40248bcc       0x4a build/app_app.a(HttpServer.o)
                                 0x52 (size before relaxing)
                0x40248bcc                HttpServer::isHeaderProcessingEnabled(String)
 *fill*         0x40248c16        0x2 
 .text._ZN10HttpServer12getWebSocketER20HttpServerConnection
                0x40248c18       0x3f build/app_app.a(HttpServer.o)
                                 0x43 (size before relaxing)
                0x40248c18                HttpServer::getWebSocket(HttpServerConnection&)
 *fill*         0x40248c57        0x1 
 .text._ZN10HttpServer21processWebSocketFrameEP4pbufR20HttpServerConnection
                0x40248c58       0xb3 build/app_app.a(HttpServer.o)
                                 0xdf (size before relaxing)
                0x40248c64                HttpServer::processWebSocketFrame(pbuf*, HttpServerConnection&)
 *fill*         0x40248d0b        0x1 
 .text._ZN10HttpServer15removeWebSocketER20HttpServerConnection
                0x40248d0c       0x8d build/app_app.a(HttpServer.o)
                                 0xa5 (size before relaxing)
                0x40248d10                HttpServer::removeWebSocket(HttpServerConnection&)
 *fill*         0x40248d99        0x3 
 .text._ZN10HttpServer16onCloseWebSocketER20HttpServerConnection
                0x40248d9c       0x47 build/app_app.a(HttpServer.o)
                                 0x57 (size before relaxing)
                0x40248da0                HttpServer::onCloseWebSocket(HttpServerConnection&)
 *fill*         0x40248de3        0x1 
 .text._ZN10HttpServer16enableWebSocketsEb
                0x40248de4       0x51 build/app_app.a(HttpServer.o)
                                 0x75 (size before relaxing)
                0x40248dec                HttpServer::enableWebSockets(bool)
 *fill*         0x40248e35        0x3 
 .text._ZN10HttpServer17commandProcessingEb6String
                0x40248e38       0x1b build/app_app.a(HttpServer.o)
                                 0x1f (size before relaxing)
                0x40248e38                HttpServer::commandProcessing(bool, String)
 *fill*         0x40248e53        0x1 
 .text._ZNK7HashMapI6String8DelegateIFvR11HttpRequestR12HttpResponseEEE8containsES0_
                0x40248e54       0x83 build/app_app.a(HttpServer.o)
                                 0x9f (size before relaxing)
                0x40248e54                HashMap<String, Delegate<void (HttpRequest&, HttpResponse&)> >::contains(String) const
 *fill*         0x40248ed7        0x1 
 .text._ZN7HashMapI6String8DelegateIFvR11HttpRequestR12HttpResponseEEE5clearEv
                0x40248ed8       0x8d build/app_app.a(HttpServer.o)
                                 0xa5 (size before relaxing)
                0x40248ed8                HashMap<String, Delegate<void (HttpRequest&, HttpResponse&)> >::clear()
 *fill*         0x40248f65        0x3 
 .text._ZN10HttpServerD2Ev
                0x40248f68       0xad build/app_app.a(HttpServer.o)
                                 0xd5 (size before relaxing)
                0x40248f68                HttpServer::~HttpServer()
                0x40248f68                HttpServer::~HttpServer()
 *fill*         0x40249015        0x3 
 .text._ZN10HttpServerD0Ev
                0x40249018       0x1d build/app_app.a(HttpServer.o)
                                 0x29 (size before relaxing)
                0x40249018                HttpServer::~HttpServer()
 *fill*         0x40249035        0x3 
 .text._ZN7HashMapI6String8DelegateIFvR11HttpRequestR12HttpResponseEEE8allocateEi
                0x40249038       0xdf build/app_app.a(HttpServer.o)
                                0x103 (size before relaxing)
                0x40249038                HashMap<String, Delegate<void (HttpRequest&, HttpResponse&)> >::allocate(int)
 *fill*         0x40249117        0x1 
 .text._ZN10HttpServer17setDefaultHandlerE8DelegateIFvR11HttpRequestR12HttpResponseEE
                0x40249118       0x22 build/app_app.a(HttpServer.o)
                                 0x2a (size before relaxing)
                0x4024911c                HttpServer::setDefaultHandler(Delegate<void (HttpRequest&, HttpResponse&)>)
 *fill*         0x4024913a        0x2 
 .text._ZN7HashMapI6String8DelegateIFvR11HttpRequestR12HttpResponseEEEixES0_
                0x4024913c      0x117 build/app_app.a(HttpServer.o)
                                0x163 (size before relaxing)
                0x4024913c                HashMap<String, Delegate<void (HttpRequest&, HttpResponse&)> >::operator[](String)
 *fill*         0x40249253        0x1 
 .text._ZN10HttpServer14processRequestER20HttpServerConnectionR11HttpRequestR12HttpResponse
                0x40249254      0x11e build/app_app.a(HttpServer.o)
                                0x18e (size before relaxing)
                0x40249264                HttpServer::processRequest(HttpServerConnection&, HttpRequest&, HttpResponse&)
 *fill*         0x40249372        0x2 
 .text._ZN10HttpServer7addPathE6String8DelegateIFvR11HttpRequestR12HttpResponseEE
                0x40249374       0xcf build/app_app.a(HttpServer.o)
                                0x13f (size before relaxing)
                0x40249378                HttpServer::addPath(String, Delegate<void (HttpRequest&, HttpResponse&)>)
 *fill*         0x40249443        0x1 
 .text._ZN10HttpServer29setWebSocketConnectionHandlerE8DelegateIFvR9WebSocketEE
                0x40249444       0x15 build/app_app.a(HttpServer.o)
                                 0x19 (size before relaxing)
                0x40249444                HttpServer::setWebSocketConnectionHandler(Delegate<void (WebSocket&)>)
 *fill*         0x40249459        0x3 
 .text._ZN10HttpServer32setWebSocketDisconnectionHandlerE8DelegateIFvR9WebSocketEE
                0x4024945c       0x15 build/app_app.a(HttpServer.o)
                                 0x19 (size before relaxing)
                0x4024945c                HttpServer::setWebSocketDisconnectionHandler(Delegate<void (WebSocket&)>)
 *fill*         0x40249471        0x3 
 .text.startup._GLOBAL__sub_I__ZN10HttpServerC2Ev
                0x40249474       0x21 build/app_app.a(HttpServer.o)
                                 0x25 (size before relaxing)
 *fill*         0x40249495        0x3 
 .text._ZN20HttpServerConnection13beginSendDataEv
                0x40249498       0xc9 build/app_app.a(HttpServerConnection.o)
                                 0xf9 (size before relaxing)
                0x402494a4                HttpServerConnection::beginSendData()
 *fill*         0x40249561        0x3 
 .text._ZN20HttpServerConnection9sendErrorEPKc
                0x40249564       0x8b build/app_app.a(HttpServerConnection.o)
                                 0xcb (size before relaxing)
                0x40249574                HttpServerConnection::sendError(char const*)
 *fill*         0x402495ef        0x1 
 .text._ZN20HttpServerConnectionC2EP10HttpServerP7tcp_pcb
                0x402495f0       0x85 build/app_app.a(HttpServerConnection.o)
                                 0xb5 (size before relaxing)
                0x40249600                HttpServerConnection::HttpServerConnection(HttpServer*, tcp_pcb*)
                0x40249600                HttpServerConnection::HttpServerConnection(HttpServer*, tcp_pcb*)
 *fill*         0x40249675        0x3 
 .text.startup._GLOBAL__sub_I__ZN20HttpServerConnectionC2EP10HttpServerP7tcp_pcb
                0x40249678       0x21 build/app_app.a(HttpServerConnection.o)
                                 0x25 (size before relaxing)
 *fill*         0x40249699        0x3 
 .text._ZN20HttpServerConnectionD2Ev
                0x4024969c       0x49 build/app_app.a(HttpServerConnection.o)
                                 0x65 (size before relaxing)
                0x4024969c                HttpServerConnection::~HttpServerConnection()
                0x4024969c                HttpServerConnection::~HttpServerConnection()
 *fill*         0x402496e5        0x3 
 .text._ZN20HttpServerConnectionD0Ev
                0x402496e8       0x1d build/app_app.a(HttpServerConnection.o)
                                 0x29 (size before relaxing)
                0x402496e8                HttpServerConnection::~HttpServerConnection()
 *fill*         0x40249705        0x3 
 .text._ZN20HttpServerConnection9onReceiveEP4pbuf
                0x40249708      0x1c5 build/app_app.a(HttpServerConnection.o)
                                0x251 (size before relaxing)
                0x40249730                HttpServerConnection::onReceive(pbuf*)
 *fill*         0x402498cd        0x3 
 .text._ZN20HttpServerConnection17onReadyToSendDataE18TcpConnectionEvent
                0x402498d0       0x51 build/app_app.a(HttpServerConnection.o)
                                 0x65 (size before relaxing)
                0x402498d4                HttpServerConnection::onReadyToSendData(TcpConnectionEvent)
 *fill*         0x40249921        0x3 
 .text._ZN20HttpServerConnection5closeEv
                0x40249924       0x45 build/app_app.a(HttpServerConnection.o)
                                 0x55 (size before relaxing)
                0x40249924                HttpServerConnection::close()
 *fill*         0x40249969        0x3 
 .text._ZN20HttpServerConnection7onErrorEa
                0x4024996c       0x51 build/app_app.a(HttpServerConnection.o)
                                 0x61 (size before relaxing)
                0x4024996c                HttpServerConnection::onError(signed char)
 *fill*         0x402499bd        0x3 
 .text._ZN9TcpClientD2Ev
                0x402499c0       0x93 build/app_app.a(TcpClient.o)
                                 0x9f (size before relaxing)
                0x402499c4                TcpClient::~TcpClient()
                0x402499c4                TcpClient::~TcpClient()
 *fill*         0x40249a53        0x1 
 .text._ZN9TcpClientD0Ev
                0x40249a54       0x1d build/app_app.a(TcpClient.o)
                                 0x29 (size before relaxing)
                0x40249a54                TcpClient::~TcpClient()
 *fill*         0x40249a71        0x3 
 .text._ZN9TcpClientC2Eb
                0x40249a74       0x33 build/app_app.a(TcpClient.o)
                                 0x3f (size before relaxing)
                0x40249a74                TcpClient::TcpClient(bool)
                0x40249a74                TcpClient::TcpClient(bool)
 *fill*         0x40249aa7        0x1 
 .text._ZN9TcpClient4sendEPKchb
                0x40249aa8       0x5c build/app_app.a(TcpClient.o)
                                 0x68 (size before relaxing)
                0x40249aa8                TcpClient::send(char const*, unsigned char, bool)
 .text._ZN9TcpClient10sendStringE6Stringb
                0x40249b04       0x17 build/app_app.a(TcpClient.o)
                                 0x1f (size before relaxing)
                0x40249b04                TcpClient::sendString(String, bool)
 *fill*         0x40249b1b        0x1 
 .text._ZN9TcpClient13pushAsyncPartEv
                0x40249b1c       0x49 build/app_app.a(TcpClient.o)
                                 0x59 (size before relaxing)
                0x40249b20                TcpClient::pushAsyncPart()
 *fill*         0x40249b65        0x3 
 .text._ZN9TcpClientC2EP7tcp_pcb8DelegateIFbRS_PciEES2_IFvS3_bEE
                0x40249b68       0x51 build/app_app.a(TcpClient.o)
                                 0x69 (size before relaxing)
                0x40249b68                TcpClient::TcpClient(tcp_pcb*, Delegate<bool (TcpClient&, char*, int)>, Delegate<void (TcpClient&, bool)>)
                0x40249b68                TcpClient::TcpClient(tcp_pcb*, Delegate<bool (TcpClient&, char*, int)>, Delegate<void (TcpClient&, bool)>)
 *fill*         0x40249bb9        0x3 
 .text._ZN9TcpClientC2E8DelegateIFvRS_bEES0_IFbS1_PciEE
                0x40249bbc       0x4e build/app_app.a(TcpClient.o)
                                 0x66 (size before relaxing)
                0x40249bbc                TcpClient::TcpClient(Delegate<void (TcpClient&, bool)>, Delegate<bool (TcpClient&, char*, int)>)
                0x40249bbc                TcpClient::TcpClient(Delegate<void (TcpClient&, bool)>, Delegate<bool (TcpClient&, char*, int)>)
 *fill*         0x40249c0a        0x2 
 .text._ZN9TcpClientC2E8DelegateIFbRS_PciEE
                0x40249c0c       0x41 build/app_app.a(TcpClient.o)
                                 0x51 (size before relaxing)
                0x40249c0c                TcpClient::TcpClient(Delegate<bool (TcpClient&, char*, int)>)
                0x40249c0c                TcpClient::TcpClient(Delegate<bool (TcpClient&, char*, int)>)
 *fill*         0x40249c4d        0x3 
 .text._ZN9TcpClientC2E8DelegateIFvRS_bEES0_IFvS1_18TcpConnectionEventEES0_IFbS1_PciEE
                0x40249c50       0x78 build/app_app.a(TcpClient.o)
                                 0x90 (size before relaxing)
                0x40249c50                TcpClient::TcpClient(Delegate<void (TcpClient&, bool)>, Delegate<void (TcpClient&, TcpConnectionEvent)>, Delegate<bool (TcpClient&, char*, int)>)
                0x40249c50                TcpClient::TcpClient(Delegate<void (TcpClient&, bool)>, Delegate<void (TcpClient&, TcpConnectionEvent)>, Delegate<bool (TcpClient&, char*, int)>)
 .text.startup._GLOBAL__sub_I__ZN9TcpClientC2EP7tcp_pcb8DelegateIFbRS_PciEES2_IFvS3_bEE
                0x40249cc8       0x21 build/app_app.a(TcpClient.o)
                                 0x25 (size before relaxing)
 *fill*         0x40249ce9        0x3 
 .text._ZN9TcpClient7connectE6Stringi
                0x40249cec       0x43 build/app_app.a(TcpClient.o)
                                 0x53 (size before relaxing)
                0x40249cec                TcpClient::connect(String, int)
 *fill*         0x40249d2f        0x1 
 .text._ZN9TcpClient7connectE9IPAddresst
                0x40249d30       0x27 build/app_app.a(TcpClient.o)
                                 0x2f (size before relaxing)
                0x40249d30                TcpClient::connect(IPAddress, unsigned short)
 *fill*         0x40249d57        0x1 
 .text._ZN9TcpClient11onConnectedEa
                0x40249d58       0x3d build/app_app.a(TcpClient.o)
                                 0x45 (size before relaxing)
                0x40249d58                TcpClient::onConnected(signed char)
 *fill*         0x40249d95        0x3 
 .text._ZN9TcpClient9onReceiveEP4pbuf
                0x40249d98       0x83 build/app_app.a(TcpClient.o)
                                 0xa3 (size before relaxing)
                0x40249d98                TcpClient::onReceive(pbuf*)
 *fill*         0x40249e1b        0x1 
 .text._ZN9TcpClient17onReadyToSendDataE18TcpConnectionEvent
                0x40249e1c       0x2f build/app_app.a(TcpClient.o)
                                 0x3f (size before relaxing)
                0x40249e1c                TcpClient::onReadyToSendData(TcpConnectionEvent)
 *fill*         0x40249e4b        0x1 
 .text._ZN9TcpClient5closeEv
                0x40249e4c       0x45 build/app_app.a(TcpClient.o)
                                 0x49 (size before relaxing)
                0x40249e4c                TcpClient::close()
 *fill*         0x40249e91        0x3 
 .text._ZN9TcpClient6onSentEt
                0x40249e94       0x43 build/app_app.a(TcpClient.o)
                                 0x4f (size before relaxing)
                0x40249e94                TcpClient::onSent(unsigned short)
 *fill*         0x40249ed7        0x1 
 .text._ZN9TcpClient7onErrorEa
                0x40249ed8       0x31 build/app_app.a(TcpClient.o)
                                 0x39 (size before relaxing)
                0x40249ed8                TcpClient::onError(signed char)
 *fill*         0x40249f09        0x3 
 .text._ZN13TcpConnection7onErrorEa
                0x40249f0c       0x1f build/app_app.a(TcpConnection.o)
                                 0x23 (size before relaxing)
                0x40249f10                TcpConnection::onError(signed char)
 *fill*         0x40249f2b        0x1 
 .text._ZN13TcpConnection17onReadyToSendDataE18TcpConnectionEvent
                0x40249f2c       0x1c build/app_app.a(TcpConnection.o)
                                 0x20 (size before relaxing)
                0x40249f30                TcpConnection::onReadyToSendData(TcpConnectionEvent)
 .text._ZN13TcpConnection5writeEPKcih
                0x40249f48       0x45 build/app_app.a(TcpConnection.o)
                                 0x49 (size before relaxing)
                0x40249f48                TcpConnection::write(char const*, int, unsigned char)
 *fill*         0x40249f8d        0x3 
 .text._ZN13TcpConnection5closeEv
                0x40249f90       0x31 build/app_app.a(TcpConnection.o)
                                 0x39 (size before relaxing)
                0x40249f94                TcpConnection::close()
 *fill*         0x40249fc1        0x3 
 .text._ZN13TcpConnectionD2Ev
                0x40249fc4       0x28 build/app_app.a(TcpConnection.o)
                                 0x30 (size before relaxing)
                0x40249fcc                TcpConnection::~TcpConnection()
                0x40249fcc                TcpConnection::~TcpConnection()
 .text._ZN13TcpConnectionD0Ev
                0x40249fec       0x1d build/app_app.a(TcpConnection.o)
                                 0x29 (size before relaxing)
                0x40249fec                TcpConnection::~TcpConnection()
 *fill*         0x4024a009        0x3 
 .text._ZN13TcpConnection6onPollEv
                0x4024a00c       0x58 build/app_app.a(TcpConnection.o)
                                 0x60 (size before relaxing)
                0x4024a010                TcpConnection::onPoll()
 .text._ZN13TcpConnection6onSentEt
                0x4024a064       0x3d build/app_app.a(TcpConnection.o)
                                 0x41 (size before relaxing)
                0x4024a068                TcpConnection::onSent(unsigned short)
 *fill*         0x4024a0a1        0x3 
 .text._ZN13TcpConnection9onReceiveEP4pbuf
                0x4024a0a4       0x4f build/app_app.a(TcpConnection.o)
                                 0x57 (size before relaxing)
                0x4024a0ac                TcpConnection::onReceive(pbuf*)
 *fill*         0x4024a0f3        0x1 
 .text._ZN13TcpConnection11onConnectedEa
                0x4024a0f4       0x61 build/app_app.a(TcpConnection.o)
                                 0x69 (size before relaxing)
                0x4024a0fc                TcpConnection::onConnected(signed char)
 *fill*         0x4024a155        0x3 
 .text._ZN13TcpConnection17staticOnConnectedEPvP7tcp_pcba
                0x4024a158       0x67 build/app_app.a(TcpConnection.o)
                                 0x77 (size before relaxing)
                0x4024a160                TcpConnection::staticOnConnected(void*, tcp_pcb*, signed char)
 *fill*         0x4024a1bf        0x1 
 .text._ZN13TcpConnection12staticOnSentEPvP7tcp_pcbt
                0x4024a1c0       0x49 build/app_app.a(TcpConnection.o)
                                 0x51 (size before relaxing)
                0x4024a1c4                TcpConnection::staticOnSent(void*, tcp_pcb*, unsigned short)
 *fill*         0x4024a209        0x3 
 .text._ZN13TcpConnection13staticOnErrorEPva
                0x4024a20c       0x40 build/app_app.a(TcpConnection.o)
                                 0x4c (size before relaxing)
                0x4024a210                TcpConnection::staticOnError(void*, signed char)
 .text._ZN13TcpConnection10setTimeOutEt
                0x4024a24c       0x2e build/app_app.a(TcpConnection.o)
                                 0x32 (size before relaxing)
                0x4024a250                TcpConnection::setTimeOut(unsigned short)
 *fill*         0x4024a27a        0x2 
 .text._ZN13TcpConnection11writeStringEPKch
                0x4024a27c       0x33 build/app_app.a(TcpConnection.o)
                                 0x37 (size before relaxing)
                0x4024a27c                TcpConnection::writeString(char const*, unsigned char)
 *fill*         0x4024a2af        0x1 
 .text._ZN13TcpConnection11writeStringE6Stringh
                0x4024a2b0       0x17 build/app_app.a(TcpConnection.o)
                                 0x1b (size before relaxing)
                0x4024a2b0                TcpConnection::writeString(String, unsigned char)
 *fill*         0x4024a2c7        0x1 
 .text._ZN13TcpConnection10initializeEP7tcp_pcb
                0x4024a2c8       0x6f build/app_app.a(TcpConnection.o)
                                 0x9b (size before relaxing)
                0x4024a2dc                TcpConnection::initialize(tcp_pcb*)
 *fill*         0x4024a337        0x1 
 .text._ZN13TcpConnectionC2Eb
                0x4024a338       0x35 build/app_app.a(TcpConnection.o)
                                 0x45 (size before relaxing)
                0x4024a338                TcpConnection::TcpConnection(bool)
                0x4024a338                TcpConnection::TcpConnection(bool)
 *fill*         0x4024a36d        0x3 
 .text._ZN13TcpConnectionC2EP7tcp_pcbb
                0x4024a370       0x29 build/app_app.a(TcpConnection.o)
                                 0x31 (size before relaxing)
                0x4024a370                TcpConnection::TcpConnection(tcp_pcb*, bool)
                0x4024a370                TcpConnection::TcpConnection(tcp_pcb*, bool)
 *fill*         0x4024a399        0x3 
 .text._ZN13TcpConnection18closeTcpConnectionEP7tcp_pcb
                0x4024a39c       0x72 build/app_app.a(TcpConnection.o)
                                 0xb6 (size before relaxing)
                0x4024a3a4                TcpConnection::closeTcpConnection(tcp_pcb*)
 *fill*         0x4024a40e        0x2 
 .text._ZN13TcpConnection15staticOnReceiveEPvP7tcp_pcbP4pbufa
                0x4024a410       0xe6 build/app_app.a(TcpConnection.o)
                                0x126 (size before relaxing)
                0x4024a418                TcpConnection::staticOnReceive(void*, tcp_pcb*, pbuf*, signed char)
 *fill*         0x4024a4f6        0x2 
 .text._ZN13TcpConnection12staticOnPollEPvP7tcp_pcb
                0x4024a4f8       0x51 build/app_app.a(TcpConnection.o)
                                 0x65 (size before relaxing)
                0x4024a4fc                TcpConnection::staticOnPoll(void*, tcp_pcb*)
 *fill*         0x4024a549        0x3 
 .text._ZN13TcpConnection5flushEv
                0x4024a54c       0x19 build/app_app.a(TcpConnection.o)
                                 0x1d (size before relaxing)
                0x4024a54c                TcpConnection::flush()
 *fill*         0x4024a565        0x3 
 .text._ZN13TcpConnection5writeEP17IDataSourceStream
                0x4024a568       0xdc build/app_app.a(TcpConnection.o)
                                 0xec (size before relaxing)
                0x4024a56c                TcpConnection::write(IDataSourceStream*)
 .text._ZN13TcpConnection18internalTcpConnectE9IPAddresst
                0x4024a644       0x4b build/app_app.a(TcpConnection.o)
                                 0x5f (size before relaxing)
                0x4024a64c                TcpConnection::internalTcpConnect(IPAddress, unsigned short)
 *fill*         0x4024a68f        0x1 
 .text._ZN13TcpConnection7connectE6Stringi
                0x4024a690       0xa3 build/app_app.a(TcpConnection.o)
                                 0xd3 (size before relaxing)
                0x4024a698                TcpConnection::connect(String, int)
 *fill*         0x4024a733        0x1 
 .text._ZN13TcpConnection7connectE9IPAddresst
                0x4024a734       0x17 build/app_app.a(TcpConnection.o)
                                 0x1b (size before relaxing)
                0x4024a734                TcpConnection::connect(IPAddress, unsigned short)
 *fill*         0x4024a74b        0x1 
 .text._ZN13TcpConnection17staticDnsResponseEPKcP7ip_addrPv
                0x4024a74c       0x82 build/app_app.a(TcpConnection.o)
                                 0x9e (size before relaxing)
                0x4024a754                TcpConnection::staticDnsResponse(char const*, ip_addr*, void*)
 *fill*         0x4024a7ce        0x2 
 .text.startup._GLOBAL__sub_I__ZN13TcpConnectionC2Eb
                0x4024a7d0       0x21 build/app_app.a(TcpConnection.o)
                                 0x25 (size before relaxing)
 *fill*         0x4024a7f1        0x3 
 .text._ZN12MethodCallerIM9TcpServerFvR9TcpClientbEED0Ev
                0x4024a7f4       0x13 build/app_app.a(TcpServer.o)
                                 0x17 (size before relaxing)
                0x4024a7f4                MethodCaller<void (TcpServer::*)(TcpClient&, bool)>::~MethodCaller()
 *fill*         0x4024a807        0x1 
 .text._ZN12MethodCallerIM9TcpServerFbR9TcpClientPciEED0Ev
                0x4024a808       0x13 build/app_app.a(TcpServer.o)
                                 0x17 (size before relaxing)
                0x4024a808                MethodCaller<bool (TcpServer::*)(TcpClient&, char*, int)>::~MethodCaller()
 *fill*         0x4024a81b        0x1 
 .text._ZN9TcpServerD2Ev
                0x4024a81c       0x59 build/app_app.a(TcpServer.o)
                                 0x61 (size before relaxing)
                0x4024a820                TcpServer::~TcpServer()
                0x4024a820                TcpServer::~TcpServer()
 *fill*         0x4024a875        0x3 
 .text._ZN9TcpServerD0Ev
                0x4024a878       0x1d build/app_app.a(TcpServer.o)
                                 0x29 (size before relaxing)
                0x4024a878                TcpServer::~TcpServer()
 *fill*         0x4024a895        0x3 
 .text._ZN9TcpServer12createClientEP7tcp_pcb
                0x4024a898       0xb5 build/app_app.a(TcpServer.o)
                                 0xcd (size before relaxing)
                0x4024a8a8                TcpServer::createClient(tcp_pcb*)
 *fill*         0x4024a94d        0x3 
 .text._ZN9TcpServer12staticAcceptEPvP7tcp_pcba
                0x4024a950       0x42 build/app_app.a(TcpServer.o)
                                 0x4e (size before relaxing)
                0x4024a954                TcpServer::staticAccept(void*, tcp_pcb*, signed char)
 *fill*         0x4024a992        0x2 
 .text._ZN13TcpConnection11getRemoteIpEv$isra$3
                0x4024a994       0x5e build/app_app.a(TcpServer.o)
                                 0x62 (size before relaxing)
 *fill*         0x4024a9f2        0x2 
 .text._ZN9TcpServer8onClientEP9TcpClient
                0x4024a9f4       0x50 build/app_app.a(TcpServer.o)
                                 0x68 (size before relaxing)
                0x4024a9f8                TcpServer::onClient(TcpClient*)
 .text._ZN9TcpServer16onClientCompleteER9TcpClientb
                0x4024aa44       0x59 build/app_app.a(TcpServer.o)
                                 0x71 (size before relaxing)
                0x4024aa48                TcpServer::onClientComplete(TcpClient&, bool)
 *fill*         0x4024aa9d        0x3 
 .text._ZN9TcpServer15onClientReceiveER9TcpClientPci
                0x4024aaa0       0x6d build/app_app.a(TcpServer.o)
                                 0x89 (size before relaxing)
                0x4024aaa8                TcpServer::onClientReceive(TcpClient&, char*, int)
 *fill*         0x4024ab0d        0x3 
 .text._ZN9TcpServer6listenEi
                0x4024ab10       0x51 build/app_app.a(TcpServer.o)
                                 0x6d (size before relaxing)
                0x4024ab18                TcpServer::listen(int)
 *fill*         0x4024ab61        0x3 
 .text._ZN9TcpServerC2Ev
                0x4024ab64       0x39 build/app_app.a(TcpServer.o)
                                 0x4d (size before relaxing)
                0x4024ab64                TcpServer::TcpServer()
                0x4024ab64                TcpServer::TcpServer()
 *fill*         0x4024ab9d        0x3 
 .text._Z8list_memv
                0x4024aba0       0x24 build/app_app.a(TcpServer.o)
                                 0x34 (size before relaxing)
                0x4024aba4                list_mem()
 .text._ZN9TcpServer8onAcceptEP7tcp_pcba
                0x4024abc4       0x8f build/app_app.a(TcpServer.o)
                                 0xb3 (size before relaxing)
                0x4024abd0                TcpServer::onAccept(tcp_pcb*, signed char)
 *fill*         0x4024ac53        0x1 
 .text._ZN9TcpServer10setTimeOutEt
                0x4024ac54       0x2e build/app_app.a(TcpServer.o)
                                 0x32 (size before relaxing)
                0x4024ac58                TcpServer::setTimeOut(unsigned short)
 *fill*         0x4024ac82        0x2 
 .text._ZN9TcpServerC2E8DelegateIFbR9TcpClientPciEE
                0x4024ac84       0x45 build/app_app.a(TcpServer.o)
                                 0x61 (size before relaxing)
                0x4024ac84                TcpServer::TcpServer(Delegate<bool (TcpClient&, char*, int)>)
                0x4024ac84                TcpServer::TcpServer(Delegate<bool (TcpClient&, char*, int)>)
 *fill*         0x4024acc9        0x3 
 .text._ZN9TcpServerC2E8DelegateIFvP9TcpClientEES0_IFbRS1_PciEES0_IFvS5_bEE
                0x4024accc       0x67 build/app_app.a(TcpServer.o)
                                 0x8b (size before relaxing)
                0x4024accc                TcpServer::TcpServer(Delegate<void (TcpClient*)>, Delegate<bool (TcpClient&, char*, int)>, Delegate<void (TcpClient&, bool)>)
                0x4024accc                TcpServer::TcpServer(Delegate<void (TcpClient*)>, Delegate<bool (TcpClient&, char*, int)>, Delegate<void (TcpClient&, bool)>)
 *fill*         0x4024ad33        0x1 
 .text._ZN9TcpServerC2E8DelegateIFbR9TcpClientPciEES0_IFvS2_bEE
                0x4024ad34       0x52 build/app_app.a(TcpServer.o)
                                 0x76 (size before relaxing)
                0x4024ad34                TcpServer::TcpServer(Delegate<bool (TcpClient&, char*, int)>, Delegate<void (TcpClient&, bool)>)
                0x4024ad34                TcpServer::TcpServer(Delegate<bool (TcpClient&, char*, int)>, Delegate<void (TcpClient&, bool)>)
 *fill*         0x4024ad86        0x2 
 .text.startup._GLOBAL__sub_I__ZN9TcpServer16totalConnectionsE
                0x4024ad88       0x1d build/app_app.a(TcpServer.o)
                                 0x25 (size before relaxing)
 *fill*         0x4024ada5        0x3 
 .text._ZN12TelnetServerD2Ev
                0x4024ada8       0x1b build/app_app.a(TelnetServer.o)
                                 0x1f (size before relaxing)
                0x4024adac                TelnetServer::~TelnetServer()
                0x4024adac                TelnetServer::~TelnetServer()
 *fill*         0x4024adc3        0x1 
 .text._ZN12TelnetServerD0Ev
                0x4024adc4       0x1d build/app_app.a(TelnetServer.o)
                                 0x29 (size before relaxing)
                0x4024adc4                TelnetServer::~TelnetServer()
 *fill*         0x4024ade1        0x3 
 .text._ZN13TcpConnection11getRemoteIpEv$isra$1
                0x4024ade4       0x5e build/app_app.a(TelnetServer.o)
                                 0x62 (size before relaxing)
 *fill*         0x4024ae42        0x2 
 .text._ZN12TelnetServer15onClientReceiveER9TcpClientPci
                0x4024ae44       0x5f build/app_app.a(TelnetServer.o)
                                 0x83 (size before relaxing)
                0x4024ae4c                TelnetServer::onClientReceive(TcpClient&, char*, int)
 *fill*         0x4024aea3        0x1 
 .text._ZN12TelnetServerC2Ev
                0x4024aea4       0x22 build/app_app.a(TelnetServer.o)
                                 0x2e (size before relaxing)
                0x4024aea4                TelnetServer::TelnetServer()
                0x4024aea4                TelnetServer::TelnetServer()
 *fill*         0x4024aec6        0x2 
 .text._ZN12TelnetServer13enableCommandEb
                0x4024aec8       0x5f build/app_app.a(TelnetServer.o)
                                 0x6f (size before relaxing)
                0x4024aec8                TelnetServer::enableCommand(bool)
 *fill*         0x4024af27        0x1 
 .text.startup._GLOBAL__sub_I__ZN12TelnetServerC2Ev
                0x4024af28       0x1d build/app_app.a(TelnetServer.o)
                                 0x25 (size before relaxing)
 *fill*         0x4024af45        0x3 
 .text._ZN12TelnetServer8onClientEP9TcpClient
                0x4024af48       0xc3 build/app_app.a(TelnetServer.o)
                                0x127 (size before relaxing)
                0x4024af58                TelnetServer::onClient(TcpClient*)
 *fill*         0x4024b00b        0x1 
 .text._ZN12TelnetServer16onClientCompleteER9TcpClientb
                0x4024b00c       0x9f build/app_app.a(TelnetServer.o)
                                 0xe7 (size before relaxing)
                0x4024b014                TelnetServer::onClientComplete(TcpClient&, bool)
 *fill*         0x4024b0ab        0x1 
 .text._ZN13UdpConnection5closeEv
                0x4024b0ac       0x26 build/app_app.a(UdpConnection.o)
                                 0x32 (size before relaxing)
                0x4024b0ac                UdpConnection::close()
 *fill*         0x4024b0d2        0x2 
 .text._ZN13UdpConnectionD2Ev
                0x4024b0d4       0x36 build/app_app.a(UdpConnection.o)
                                 0x3a (size before relaxing)
                0x4024b0d8                UdpConnection::~UdpConnection()
                0x4024b0d8                UdpConnection::~UdpConnection()
 *fill*         0x4024b10a        0x2 
 .text._ZN13UdpConnectionD0Ev
                0x4024b10c       0x1d build/app_app.a(UdpConnection.o)
                                 0x29 (size before relaxing)
                0x4024b10c                UdpConnection::~UdpConnection()
 *fill*         0x4024b129        0x3 
 .text._ZN13UdpConnection4sendEPKci
                0x4024b12c       0x57 build/app_app.a(UdpConnection.o)
                                 0x73 (size before relaxing)
                0x4024b130                UdpConnection::send(char const*, int)
 *fill*         0x4024b183        0x1 
 .text._ZN13UdpConnection6sendToE9IPAddresstPKci
                0x4024b184       0x6f build/app_app.a(UdpConnection.o)
                                 0x9b (size before relaxing)
                0x4024b188                UdpConnection::sendTo(IPAddress, unsigned short, char const*, int)
 *fill*         0x4024b1f3        0x1 
 .text._ZN13UdpConnection9onReceiveEP4pbuf9IPAddresst
                0x4024b1f4       0x78 build/app_app.a(UdpConnection.o)
                                 0x90 (size before relaxing)
                0x4024b1f8                UdpConnection::onReceive(pbuf*, IPAddress, unsigned short)
 .text._ZN13UdpConnection15staticOnReceiveEPvP7udp_pcbP4pbufP7ip_addrt
                0x4024b26c       0x4d build/app_app.a(UdpConnection.o)
                                 0x5d (size before relaxing)
                0x4024b26c                UdpConnection::staticOnReceive(void*, udp_pcb*, pbuf*, ip_addr*, unsigned short)
 *fill*         0x4024b2b9        0x3 
 .text._ZN13UdpConnection10initializeEP7udp_pcb
                0x4024b2bc       0x2e build/app_app.a(UdpConnection.o)
                                 0x36 (size before relaxing)
                0x4024b2c0                UdpConnection::initialize(udp_pcb*)
 *fill*         0x4024b2ea        0x2 
 .text._ZN13UdpConnection6listenEi
                0x4024b2ec       0x57 build/app_app.a(UdpConnection.o)
                                 0x6b (size before relaxing)
                0x4024b2f0                UdpConnection::listen(int)
 *fill*         0x4024b343        0x1 
 .text._ZN13UdpConnection7connectE9IPAddresst
                0x4024b344       0x7c build/app_app.a(UdpConnection.o)
                                 0xa8 (size before relaxing)
                0x4024b34c                UdpConnection::connect(IPAddress, unsigned short)
 .text._ZN13UdpConnectionC2Ev
                0x4024b3c0       0x1b build/app_app.a(UdpConnection.o)
                                 0x23 (size before relaxing)
                0x4024b3c0                UdpConnection::UdpConnection()
                0x4024b3c0                UdpConnection::UdpConnection()
 *fill*         0x4024b3db        0x1 
 .text._ZN13UdpConnectionC2E8DelegateIFvRS_Pci9IPAddresstEE
                0x4024b3dc       0x27 build/app_app.a(UdpConnection.o)
                                 0x33 (size before relaxing)
                0x4024b3dc                UdpConnection::UdpConnection(Delegate<void (UdpConnection&, char*, int, IPAddress, unsigned short)>)
                0x4024b3dc                UdpConnection::UdpConnection(Delegate<void (UdpConnection&, char*, int, IPAddress, unsigned short)>)
 *fill*         0x4024b403        0x1 
 .text._ZN13UdpConnection10sendStringEPKc
                0x4024b404       0x2a build/app_app.a(UdpConnection.o)
                                 0x2e (size before relaxing)
                0x4024b404                UdpConnection::sendString(char const*)
 *fill*         0x4024b42e        0x2 
 .text._ZN13UdpConnection10sendStringE6String
                0x4024b430       0x14 build/app_app.a(UdpConnection.o)
                                 0x18 (size before relaxing)
                0x4024b430                UdpConnection::sendString(String)
 .text._ZN13UdpConnection12sendStringToE9IPAddresstPKc
                0x4024b444       0x37 build/app_app.a(UdpConnection.o)
                                 0x3b (size before relaxing)
                0x4024b444                UdpConnection::sendStringTo(IPAddress, unsigned short, char const*)
 *fill*         0x4024b47b        0x1 
 .text._ZN13UdpConnection12sendStringToE9IPAddresst6String
                0x4024b47c       0x19 build/app_app.a(UdpConnection.o)
                                 0x1d (size before relaxing)
                0x4024b47c                UdpConnection::sendStringTo(IPAddress, unsigned short, String)
 *fill*         0x4024b495        0x3 
 .text.startup._GLOBAL__sub_I__ZN13UdpConnectionC2Ev
                0x4024b498       0x21 build/app_app.a(UdpConnection.o)
                                 0x25 (size before relaxing)
 *fill*         0x4024b4b9        0x3 
 .text.sha1mix  0x4024b4bc      0x234 build/app_app.a(WebSocket.o)
                                0x244 (size before relaxing)
 .text._ZN9WebSocket4sendEPKci11wsFrameType
                0x4024b6f0       0x6b build/app_app.a(WebSocket.o)
                                 0x83 (size before relaxing)
                0x4024b6f0                WebSocket::send(char const*, int, wsFrameType)
 *fill*         0x4024b75b        0x1 
 .text._ZN9WebSocketC2EP20HttpServerConnection
                0x4024b75c       0x11 build/app_app.a(WebSocket.o)
                0x4024b760                WebSocket::WebSocket(HttpServerConnection*)
                0x4024b760                WebSocket::WebSocket(HttpServerConnection*)
 *fill*         0x4024b76d        0x3 
 .text._ZN9WebSocket10initializeER11HttpRequestR12HttpResponse
                0x4024b770      0x2d4 build/app_app.a(WebSocket.o)
                                0x3d0 (size before relaxing)
                0x4024b794                WebSocket::initialize(HttpRequest&, HttpResponse&)
 .text.startup._GLOBAL__sub_I__ZN9WebSocketC2EP20HttpServerConnection
                0x4024ba44       0x21 build/app_app.a(WebSocket.o)
                                 0x25 (size before relaxing)
 *fill*         0x4024ba65        0x3 
 .text._ZN15CommandExecutorC2Ev
                0x4024ba68       0x1b build/app_app.a(CommandExecutor.o)
                                 0x23 (size before relaxing)
                0x4024ba6c                CommandExecutor::CommandExecutor()
                0x4024ba6c                CommandExecutor::CommandExecutor()
 *fill*         0x4024ba83        0x1 
 .text._ZN15CommandExecutorC2EP9TcpClient
                0x4024ba84       0x43 build/app_app.a(CommandExecutor.o)
                                 0x6b (size before relaxing)
                0x4024ba88                CommandExecutor::CommandExecutor(TcpClient*)
                0x4024ba88                CommandExecutor::CommandExecutor(TcpClient*)
 *fill*         0x4024bac7        0x1 
 .text._ZN15CommandExecutorC2EP6Stream
                0x4024bac8       0x43 build/app_app.a(CommandExecutor.o)
                                 0x6b (size before relaxing)
                0x4024bacc                CommandExecutor::CommandExecutor(Stream*)
                0x4024bacc                CommandExecutor::CommandExecutor(Stream*)
 *fill*         0x4024bb0b        0x1 
 .text._ZN15CommandExecutorC2EP9WebSocket
                0x4024bb0c       0x59 build/app_app.a(CommandExecutor.o)
                                 0x81 (size before relaxing)
                0x4024bb10                CommandExecutor::CommandExecutor(WebSocket*)
                0x4024bb10                CommandExecutor::CommandExecutor(WebSocket*)
 *fill*         0x4024bb65        0x3 
 .text._ZN15CommandExecutor18processCommandLineE6String
                0x4024bb68      0x146 build/app_app.a(CommandExecutor.o)
                                0x1d6 (size before relaxing)
                0x4024bb7c                CommandExecutor::processCommandLine(String)
 *fill*         0x4024bcae        0x2 
 .text._ZN15CommandExecutor15executorReceiveEc
                0x4024bcb0       0xa5 build/app_app.a(CommandExecutor.o)
                                 0xe1 (size before relaxing)
                0x4024bcb4                CommandExecutor::executorReceive(char)
 *fill*         0x4024bd55        0x3 
 .text._ZN15CommandExecutor15executorReceiveEPci
                0x4024bd58       0x3f build/app_app.a(CommandExecutor.o)
                                 0x43 (size before relaxing)
                0x4024bd58                CommandExecutor::executorReceive(char*, int)
 *fill*         0x4024bd97        0x1 
 .text._ZN15CommandExecutor15executorReceiveE6String
                0x4024bd98       0x45 build/app_app.a(CommandExecutor.o)
                                 0x49 (size before relaxing)
                0x4024bd9c                CommandExecutor::executorReceive(String)
 *fill*         0x4024bddd        0x3 
 .text.startup._GLOBAL__sub_I__ZN15CommandExecutorC2Ev
                0x4024bde0       0x21 build/app_app.a(CommandExecutor.o)
                                 0x25 (size before relaxing)
 *fill*         0x4024be01        0x3 
 .text._ZN12MethodCallerIM14CommandHandlerFv6StringP13CommandOutputEE6invokeES1_S3_
                0x4024be04       0x44 build/app_app.a(CommandHandler.o)
                                 0x4c (size before relaxing)
                0x4024be04                MethodCaller<void (CommandHandler::*)(String, CommandOutput*)>::invoke(String, CommandOutput*)
 .text._ZN12MethodCallerIM14CommandHandlerFv6StringP13CommandOutputEED0Ev
                0x4024be48       0x13 build/app_app.a(CommandHandler.o)
                                 0x17 (size before relaxing)
                0x4024be48                MethodCaller<void (CommandHandler::*)(String, CommandOutput*)>::~MethodCaller()
 *fill*         0x4024be5b        0x1 
 .text._ZN14CommandHandler17procesEchoCommandE6StringP13CommandOutput
                0x4024be5c       0x47 build/app_app.a(CommandHandler.o)
                                 0x63 (size before relaxing)
                0x4024be68                CommandHandler::procesEchoCommand(String, CommandOutput*)
 *fill*         0x4024bea3        0x1 
 .text._ZN14CommandHandler19procesStatusCommandE6StringP13CommandOutput
                0x4024bea4       0x9f build/app_app.a(CommandHandler.o)
                                0x103 (size before relaxing)
                0x4024bec4                CommandHandler::procesStatusCommand(String, CommandOutput*)
 *fill*         0x4024bf43        0x1 
 .text._ZN14CommandHandler20procesDebugOnCommandE6StringP13CommandOutput
                0x4024bf44       0x29 build/app_app.a(CommandHandler.o)
                                 0x39 (size before relaxing)
                0x4024bf48                CommandHandler::procesDebugOnCommand(String, CommandOutput*)
 *fill*         0x4024bf6d        0x3 
 .text._ZN14CommandHandler21procesDebugOffCommandE6StringP13CommandOutput
                0x4024bf70       0x29 build/app_app.a(CommandHandler.o)
                                 0x39 (size before relaxing)
                0x4024bf74                CommandHandler::procesDebugOffCommand(String, CommandOutput*)
 *fill*         0x4024bf99        0x3 
 .text._ZN14CommandHandler21processCommandOptionsE6StringP13CommandOutput
                0x4024bf9c      0x17a build/app_app.a(CommandHandler.o)
                                0x20a (size before relaxing)
                0x4024bfd0                CommandHandler::processCommandOptions(String, CommandOutput*)
 *fill*         0x4024c116        0x2 
 .text._ZN14CommandHandlerC2Ev
                0x4024c118       0x5f build/app_app.a(CommandHandler.o)
                                 0x73 (size before relaxing)
                0x4024c120                CommandHandler::CommandHandler()
                0x4024c120                CommandHandler::CommandHandler()
 *fill*         0x4024c177        0x1 
 .text._ZN14CommandHandlerD2Ev
                0x4024c178       0x1f build/app_app.a(CommandHandler.o)
                                 0x2b (size before relaxing)
                0x4024c178                CommandHandler::~CommandHandler()
                0x4024c178                CommandHandler::~CommandHandler()
 *fill*         0x4024c197        0x1 
 .text._ZN14CommandHandler16getCommandPromptEv
                0x4024c198       0x1c build/app_app.a(CommandHandler.o)
                                 0x20 (size before relaxing)
                0x4024c198                CommandHandler::getCommandPrompt()
 .text._ZN14CommandHandler16setCommandPromptE6String
                0x4024c1b4       0x14 build/app_app.a(CommandHandler.o)
                                 0x18 (size before relaxing)
                0x4024c1b4                CommandHandler::setCommandPrompt(String)
 .text._ZN14CommandHandler24getCommandWelcomeMessageEv
                0x4024c1c8       0x1d build/app_app.a(CommandHandler.o)
                                 0x21 (size before relaxing)
                0x4024c1c8                CommandHandler::getCommandWelcomeMessage()
 *fill*         0x4024c1e5        0x3 
 .text._ZN14CommandHandler24setCommandWelcomeMessageE6String
                0x4024c1e8       0x15 build/app_app.a(CommandHandler.o)
                                 0x19 (size before relaxing)
                0x4024c1e8                CommandHandler::setCommandWelcomeMessage(String)
 *fill*         0x4024c1fd        0x3 
 .text._ZNK7HashMapI6String15CommandDelegateE8containsES0_
                0x4024c200       0x83 build/app_app.a(CommandHandler.o)
                                 0x9f (size before relaxing)
                0x4024c200                HashMap<String, CommandDelegate>::contains(String) const
 *fill*         0x4024c283        0x1 
 .text._ZN15CommandDelegateC2ERKS_
                0x4024c284       0x43 build/app_app.a(CommandHandler.o)
                                 0x57 (size before relaxing)
                0x4024c284                CommandDelegate::CommandDelegate(CommandDelegate const&)
                0x4024c284                CommandDelegate::CommandDelegate(CommandDelegate const&)
 *fill*         0x4024c2c7        0x1 
 .text._ZN14CommandHandler17procesHelpCommandE6StringP13CommandOutput
                0x4024c2c8       0xaf build/app_app.a(CommandHandler.o)
                                0x11b (size before relaxing)
                0x4024c2d0                CommandHandler::procesHelpCommand(String, CommandOutput*)
 *fill*         0x4024c377        0x1 
 .text._ZN15CommandDelegateaSERKS_
                0x4024c378       0x41 build/app_app.a(CommandHandler.o)
                                 0x55 (size before relaxing)
                0x4024c378                CommandDelegate::operator=(CommandDelegate const&)
 *fill*         0x4024c3b9        0x3 
 .text._ZNK7HashMapI6String15CommandDelegateE7indexOfES0_
                0x4024c3bc       0x85 build/app_app.a(CommandHandler.o)
                                 0x9d (size before relaxing)
                0x4024c3bc                HashMap<String, CommandDelegate>::indexOf(String) const
 *fill*         0x4024c441        0x3 
 .text._ZN7HashMapI6String15CommandDelegateE6removeES0_
                0x4024c444       0x8b build/app_app.a(CommandHandler.o)
                                 0xbb (size before relaxing)
                0x4024c444                HashMap<String, CommandDelegate>::remove(String)
 *fill*         0x4024c4cf        0x1 
 .text._ZN14CommandHandler17unregisterCommandE15CommandDelegate
                0x4024c4d0       0x51 build/app_app.a(CommandHandler.o)
                                 0x75 (size before relaxing)
                0x4024c4d0                CommandHandler::unregisterCommand(CommandDelegate)
 *fill*         0x4024c521        0x3 
 .text._ZN7HashMapI6String15CommandDelegateE8allocateEi
                0x4024c524       0xe3 build/app_app.a(CommandHandler.o)
                                0x10b (size before relaxing)
                0x4024c528                HashMap<String, CommandDelegate>::allocate(int)
 *fill*         0x4024c607        0x1 
 .text._ZN7HashMapI6String15CommandDelegateEixES0_
                0x4024c608       0xa5 build/app_app.a(CommandHandler.o)
                                 0xdd (size before relaxing)
                0x4024c608                HashMap<String, CommandDelegate>::operator[](String)
 *fill*         0x4024c6ad        0x3 
 .text._ZN14CommandHandler18getCommandDelegateE6String
                0x4024c6b0       0xd6 build/app_app.a(CommandHandler.o)
                                0x12e (size before relaxing)
                0x4024c6b8                CommandHandler::getCommandDelegate(String)
 *fill*         0x4024c786        0x2 
 .text._ZN14CommandHandler15registerCommandE15CommandDelegate
                0x4024c788       0x7b build/app_app.a(CommandHandler.o)
                                 0xaf (size before relaxing)
                0x4024c790                CommandHandler::registerCommand(CommandDelegate)
 *fill*         0x4024c803        0x1 
 .text._ZN14CommandHandler22registerSystemCommandsEv
                0x4024c804      0x394 build/app_app.a(CommandHandler.o)
                                0x4fc (size before relaxing)
                0x4024c850                CommandHandler::registerSystemCommands()
 .text.startup._GLOBAL__sub_I__ZN14CommandHandlerC2Ev
                0x4024cb98       0x24 build/app_app.a(CommandHandler.o)
                                 0x38 (size before relaxing)
 .text.exit._GLOBAL__sub_D__ZN14CommandHandlerC2Ev
                0x4024cbbc       0x15 build/app_app.a(CommandHandler.o)
                                 0x1d (size before relaxing)
 *fill*         0x4024cbd1        0x3 
 .text._ZN13CommandOutputD2Ev
                0x4024cbd4       0x2f build/app_app.a(CommandOutput.o)
                                 0x3b (size before relaxing)
                0x4024cbdc                CommandOutput::~CommandOutput()
                0x4024cbdc                CommandOutput::~CommandOutput()
 *fill*         0x4024cc03        0x1 
 .text._ZN13CommandOutputD0Ev
                0x4024cc04       0x1d build/app_app.a(CommandOutput.o)
                                 0x29 (size before relaxing)
                0x4024cc04                CommandOutput::~CommandOutput()
 *fill*         0x4024cc21        0x3 
 .text._ZN13CommandOutput5writeEh
                0x4024cc24       0x97 build/app_app.a(CommandOutput.o)
                                 0xc7 (size before relaxing)
                0x4024cc28                CommandOutput::write(unsigned char)
 *fill*         0x4024ccbb        0x1 
 .text._ZN13CommandOutputC2EP9TcpClient
                0x4024ccbc       0x27 build/app_app.a(CommandOutput.o)
                                 0x33 (size before relaxing)
                0x4024ccbc                CommandOutput::CommandOutput(TcpClient*)
                0x4024ccbc                CommandOutput::CommandOutput(TcpClient*)
 *fill*         0x4024cce3        0x1 
 .text._ZN13CommandOutputC2EP6Stream
                0x4024cce4       0x27 build/app_app.a(CommandOutput.o)
                                 0x33 (size before relaxing)
                0x4024cce4                CommandOutput::CommandOutput(Stream*)
                0x4024cce4                CommandOutput::CommandOutput(Stream*)
 *fill*         0x4024cd0b        0x1 
 .text._ZN13CommandOutputC2EP9WebSocket
                0x4024cd0c       0x27 build/app_app.a(CommandOutput.o)
                                 0x33 (size before relaxing)
                0x4024cd0c                CommandOutput::CommandOutput(WebSocket*)
                0x4024cd0c                CommandOutput::CommandOutput(WebSocket*)
 *fill*         0x4024cd33        0x1 
 .text.startup._GLOBAL__sub_I__ZN13CommandOutputC2EP9TcpClient
                0x4024cd34       0x21 build/app_app.a(CommandOutput.o)
                                 0x25 (size before relaxing)
 *fill*         0x4024cd55        0x3 
 .text.base64encode
                0x4024cd58       0x65 build/app_app.a(base64.o)
                0x4024cd5c                base64encode
 *fill*         0x4024cdbd        0x3 
 .text.base64decode
                0x4024cdc0       0x74 build/app_app.a(base64.o)
                0x4024cdc4                base64decode
 .text.base64_decode
                0x4024ce34       0xab build/app_app.a(base64.o)
                                 0xb3 (size before relaxing)
                0x4024ce34                base64_decode
 *fill*         0x4024cedf        0x1 
 .text.base64_encode
                0x4024cee0       0x88 build/app_app.a(base64.o)
                                 0x8c (size before relaxing)
                0x4024cee0                base64_encode
 .text._Z11wsMakeFramePKhjPhPj11wsFrameType
                0x4024cf68       0x6f build/app_app.a(websocket.o)
                                 0x77 (size before relaxing)
                0x4024cf68                wsMakeFrame(unsigned char const*, unsigned int, unsigned char*, unsigned int*, wsFrameType)
 *fill*         0x4024cfd7        0x1 
 .text._Z20setMPrintfPrinterCbcPFvcE
                0x4024cfd8        0xb build/app_app.a(m_printf.o)
                0x4024cfdc                setMPrintfPrinterCbc(void (*)(char))
 *fill*         0x4024cfe3        0x1 
 .text._Z11m_vsnprintfPcjPKc13__va_list_tag
                0x4024cfe4      0x311 build/app_app.a(m_printf.o)
                                0x325 (size before relaxing)
                0x4024cfe4                m_vsnprintf(char*, unsigned int, char const*, __va_list_tag)
 *fill*         0x4024d2f5        0x3 
 .text._Z8m_printfPKcz
                0x4024d2f8       0x6e build/app_app.a(m_printf.o)
                                 0x76 (size before relaxing)
                0x4024d2f8                m_printf(char const*, ...)
 *fill*         0x4024d366        0x2 
 .text.uart_tx_one_char
                0x4024d368       0x39 build/app_app.a(uart.o)
                0x4024d370                uart_tx_one_char
 *fill*         0x4024d3a1        0x3 
 .text.uart0_write_char
                0x4024d3a4       0x31 build/app_app.a(uart.o)
                                 0x3d (size before relaxing)
                0x4024d3a4                uart0_write_char
 *fill*         0x4024d3d5        0x3 
 .text.uart1_write_char
                0x4024d3d8       0x31 build/app_app.a(uart.o)
                                 0x3d (size before relaxing)
 *fill*         0x4024d409        0x3 
 .text.UART_SetWordLength
                0x4024d40c       0x29 build/app_app.a(uart.o)
                0x4024d410                UART_SetWordLength
 *fill*         0x4024d435        0x3 
 .text.UART_SetStopBits
                0x4024d438       0x26 build/app_app.a(uart.o)
                                 0x2a (size before relaxing)
                0x4024d438                UART_SetStopBits
 *fill*         0x4024d45e        0x2 
 .text.UART_SetLineInverse
                0x4024d460       0x31 build/app_app.a(uart.o)
                                 0x35 (size before relaxing)
                0x4024d464                UART_SetLineInverse
 *fill*         0x4024d491        0x3 
 .text.UART_SetParity
                0x4024d494       0x34 build/app_app.a(uart.o)
                                 0x38 (size before relaxing)
                0x4024d494                UART_SetParity
 .text.UART_SetBaudrate
                0x4024d4c8       0x29 build/app_app.a(uart.o)
                                 0x31 (size before relaxing)
                0x4024d4cc                UART_SetBaudrate
 *fill*         0x4024d4f1        0x3 
 .text.UART_SetFlowCtrl
                0x4024d4f4       0xe9 build/app_app.a(uart.o)
                                 0xfd (size before relaxing)
                0x4024d504                UART_SetFlowCtrl
 *fill*         0x4024d5dd        0x3 
 .text.UART_WaitTxFifoEmpty
                0x4024d5e0       0x1b build/app_app.a(uart.o)
                                 0x23 (size before relaxing)
                0x4024d5e0                UART_WaitTxFifoEmpty
 *fill*         0x4024d5fb        0x1 
 .text.UART_ResetFifo
                0x4024d5fc       0x38 build/app_app.a(uart.o)
                                 0x3c (size before relaxing)
                0x4024d604                UART_ResetFifo
 .text.UART_ClearIntrStatus
                0x4024d634       0x19 build/app_app.a(uart.o)
                0x4024d638                UART_ClearIntrStatus
 *fill*         0x4024d64d        0x3 
 .text.UART_SetIntrEna
                0x4024d650       0x21 build/app_app.a(uart.o)
                0x4024d654                UART_SetIntrEna
 *fill*         0x4024d671        0x3 
 .text.UART_intr_handler_register
                0x4024d674       0x18 build/app_app.a(uart.o)
                                 0x1c (size before relaxing)
                0x4024d674                UART_intr_handler_register
 .text.UART_SetPrintPort
                0x4024d68c       0x25 build/app_app.a(uart.o)
                                 0x2c (size before relaxing)
                0x4024d694                UART_SetPrintPort
 *fill*         0x4024d6b1        0x3 
 .text.UART_ParamConfig
                0x4024d6b4       0xed build/app_app.a(uart.o)
                                0x109 (size before relaxing)
                0x4024d6c0                UART_ParamConfig
 *fill*         0x4024d7a1        0x3 
 .text.UART_IntrConfig
                0x4024d7a4       0x93 build/app_app.a(uart.o)
                                 0xa3 (size before relaxing)
                0x4024d7a8                UART_IntrConfig
 *fill*         0x4024d837        0x1 
 .text.uart_init_new
                0x4024d838       0x75 build/app_app.a(uart.o)
                                 0x99 (size before relaxing)
                0x4024d840                uart_init_new
 *fill*         0x4024d8ad        0x3 
 .text._ZThn8_N16MemoryDataStream10isFinishedEv
                0x4024d8b0       0x15 build/app_app.a(DataSourceStream.o)
                                 0x19 (size before relaxing)
                0x4024d8b0                non-virtual thunk to MemoryDataStream::isFinished()
 *fill*         0x4024d8c5        0x3 
 .text._ZN16MemoryDataStreamD2Ev
                0x4024d8c8       0x14 build/app_app.a(DataSourceStream.o)
                                 0x18 (size before relaxing)
                0x4024d8c8                MemoryDataStream::~MemoryDataStream()
                0x4024d8c8                MemoryDataStream::~MemoryDataStream()
 .text._ZThn8_N16MemoryDataStreamD1Ev
                0x4024d8dc       0x15 build/app_app.a(DataSourceStream.o)
                                 0x19 (size before relaxing)
                0x4024d8dc                non-virtual thunk to MemoryDataStream::~MemoryDataStream()
 *fill*         0x4024d8f1        0x3 
 .text._ZN16JsonObjectStreamD2Ev
                0x4024d8f4       0x4b build/app_app.a(DataSourceStream.o)
                                 0x53 (size before relaxing)
                0x4024d900                JsonObjectStream::~JsonObjectStream()
                0x4024d900                JsonObjectStream::~JsonObjectStream()
 *fill*         0x4024d93f        0x1 
 .text._ZThn8_N16JsonObjectStreamD1Ev
                0x4024d940       0x15 build/app_app.a(DataSourceStream.o)
                                 0x19 (size before relaxing)
                0x4024d940                non-virtual thunk to JsonObjectStream::~JsonObjectStream()
 *fill*         0x4024d955        0x3 
 .text._ZN16MemoryDataStreamD0Ev
                0x4024d958       0x1d build/app_app.a(DataSourceStream.o)
                                 0x29 (size before relaxing)
                0x4024d958                MemoryDataStream::~MemoryDataStream()
 *fill*         0x4024d975        0x3 
 .text._ZThn8_N16MemoryDataStreamD0Ev
                0x4024d978       0x15 build/app_app.a(DataSourceStream.o)
                                 0x19 (size before relaxing)
                0x4024d978                non-virtual thunk to MemoryDataStream::~MemoryDataStream()
 *fill*         0x4024d98d        0x3 
 .text._ZN16JsonObjectStreamD0Ev
                0x4024d990       0x1d build/app_app.a(DataSourceStream.o)
                                 0x29 (size before relaxing)
                0x4024d990                JsonObjectStream::~JsonObjectStream()
 *fill*         0x4024d9ad        0x3 
 .text._ZThn8_N16JsonObjectStreamD0Ev
                0x4024d9b0       0x15 build/app_app.a(DataSourceStream.o)
                                 0x19 (size before relaxing)
                0x4024d9b0                non-virtual thunk to JsonObjectStream::~JsonObjectStream()
 *fill*         0x4024d9c5        0x3 
 .text._ZN16MemoryDataStream15readMemoryBlockEPci
                0x4024d9c8       0x30 build/app_app.a(DataSourceStream.o)
                                 0x34 (size before relaxing)
                0x4024d9c8                MemoryDataStream::readMemoryBlock(char*, int)
 .text._ZThn8_N16MemoryDataStream15readMemoryBlockEPci
                0x4024d9f8       0x15 build/app_app.a(DataSourceStream.o)
                                 0x19 (size before relaxing)
                0x4024d9f8                non-virtual thunk to MemoryDataStream::readMemoryBlock(char*, int)
 *fill*         0x4024da0d        0x3 
 .text._ZN16MemoryDataStream5writeEPKhj
                0x4024da10       0x9f build/app_app.a(DataSourceStream.o)
                                 0xaf (size before relaxing)
                0x4024da18                MemoryDataStream::write(unsigned char const*, unsigned int)
 *fill*         0x4024daaf        0x1 
 .text._ZN10FileStreamD2Ev
                0x4024dab0       0x1b build/app_app.a(DataSourceStream.o)
                                 0x23 (size before relaxing)
                0x4024dab4                FileStream::~FileStream()
                0x4024dab4                FileStream::~FileStream()
 *fill*         0x4024dacb        0x1 
 .text._ZN10FileStreamD0Ev
                0x4024dacc       0x1d build/app_app.a(DataSourceStream.o)
                                 0x29 (size before relaxing)
                0x4024dacc                FileStream::~FileStream()
 *fill*         0x4024dae9        0x3 
 .text._ZN10FileStream15readMemoryBlockEPci
                0x4024daec       0x3e build/app_app.a(DataSourceStream.o)
                                 0x4a (size before relaxing)
                0x4024daec                FileStream::readMemoryBlock(char*, int)
 *fill*         0x4024db2a        0x2 
 .text._ZN10FileStream10isFinishedEv
                0x4024db2c       0x15 build/app_app.a(DataSourceStream.o)
                                 0x19 (size before relaxing)
                0x4024db2c                FileStream::isFinished()
 *fill*         0x4024db41        0x3 
 .text._ZN18TemplateFileStreamD2Ev
                0x4024db44       0x9c build/app_app.a(DataSourceStream.o)
                                 0xcc (size before relaxing)
                0x4024db48                TemplateFileStream::~TemplateFileStream()
                0x4024db48                TemplateFileStream::~TemplateFileStream()
 .text._ZN18TemplateFileStreamD0Ev
                0x4024dbe0       0x1d build/app_app.a(DataSourceStream.o)
                                 0x29 (size before relaxing)
                0x4024dbe0                TemplateFileStream::~TemplateFileStream()
 *fill*         0x4024dbfd        0x3 
 .text._ZN16JsonObjectStream15readMemoryBlockEPci
                0x4024dc00       0x83 build/app_app.a(DataSourceStream.o)
                                 0x8f (size before relaxing)
                0x4024dc0c                JsonObjectStream::readMemoryBlock(char*, int)
 *fill*         0x4024dc83        0x1 
 .text._ZThn8_N16JsonObjectStream15readMemoryBlockEPci
                0x4024dc84       0x15 build/app_app.a(DataSourceStream.o)
                                 0x19 (size before relaxing)
                0x4024dc84                non-virtual thunk to JsonObjectStream::readMemoryBlock(char*, int)
 *fill*         0x4024dc99        0x3 
 .text._ZN10FileStream4seekEi
                0x4024dc9c       0x36 build/app_app.a(DataSourceStream.o)
                                 0x3a (size before relaxing)
                0x4024dc9c                FileStream::seek(int)
 *fill*         0x4024dcd2        0x2 
 .text._ZN18TemplateFileStream4seekEi
                0x4024dcd4       0x3e build/app_app.a(DataSourceStream.o)
                                 0x45 (size before relaxing)
                0x4024dcd4                TemplateFileStream::seek(int)
 *fill*         0x4024dd12        0x2 
 .text._ZN11ArduinoJson9Internals15BlockJsonBufferINS0_16DefaultAllocatorEE5allocEj
                0x4024dd14       0x6b build/app_app.a(DataSourceStream.o)
                                 0x6f (size before relaxing)
                0x4024dd14                ArduinoJson::Internals::BlockJsonBuffer<ArduinoJson::Internals::DefaultAllocator>::alloc(unsigned int)
 *fill*         0x4024dd7f        0x1 
 .text._ZN16MemoryDataStreamC2Ev
                0x4024dd80       0x20 build/app_app.a(DataSourceStream.o)
                0x4024dd88                MemoryDataStream::MemoryDataStream()
                0x4024dd88                MemoryDataStream::MemoryDataStream()
 .text._ZN10FileStreamC2E6String
                0x4024dda0       0x87 build/app_app.a(DataSourceStream.o)
                                 0xbb (size before relaxing)
                0x4024dda8                FileStream::FileStream(String)
                0x4024dda8                FileStream::FileStream(String)
 *fill*         0x4024de27        0x1 
 .text._ZN10FileStream8fileNameEv
                0x4024de28       0x29 build/app_app.a(DataSourceStream.o)
                                 0x31 (size before relaxing)
                0x4024de28                FileStream::fileName()
 *fill*         0x4024de51        0x3 
 .text._ZN18TemplateFileStreamC2E6String
                0x4024de54       0x60 build/app_app.a(DataSourceStream.o)
                                 0x80 (size before relaxing)
                0x4024de58                TemplateFileStream::TemplateFileStream(String)
                0x4024de58                TemplateFileStream::TemplateFileStream(String)
 .text._ZN16JsonObjectStreamC2Ev
                0x4024deb4       0x38 build/app_app.a(DataSourceStream.o)
                                 0x50 (size before relaxing)
                0x4024deb4                JsonObjectStream::JsonObjectStream()
                0x4024deb4                JsonObjectStream::JsonObjectStream()
 .text._ZN7HashMapI6StringS0_EixES0_
                0x4024deec      0x118 build/app_app.a(DataSourceStream.o)
                                0x163 (size before relaxing)
                0x4024deec                HashMap<String, String>::operator[](String)
 *fill*         0x4024e004        0x0 
 .text._ZN18TemplateFileStream15readMemoryBlockEPci
                0x4024e004      0x26a build/app_app.a(DataSourceStream.o)
                                0x312 (size before relaxing)
                0x4024e024                TemplateFileStream::readMemoryBlock(char*, int)
 *fill*         0x4024e26e        0x2 
 .text._ZN18TemplateFileStream6setVarE6StringS0_
                0x4024e270       0x37 build/app_app.a(DataSourceStream.o)
                                 0x4b (size before relaxing)
                0x4024e270                TemplateFileStream::setVar(String, String)
 *fill*         0x4024e2a7        0x1 
 .text._ZN7HashMapI6StringS0_E11setMultipleERKS1_
                0x4024e2a8       0x6b build/app_app.a(DataSourceStream.o)
                                 0x8f (size before relaxing)
                0x4024e2a8                HashMap<String, String>::setMultiple(HashMap<String, String> const&)
 *fill*         0x4024e313        0x1 
 .text._ZN18TemplateFileStream18setVarsFromRequestERK11HttpRequest
                0x4024e314       0x30 build/app_app.a(DataSourceStream.o)
                                 0x3b (size before relaxing)
                0x4024e314                TemplateFileStream::setVarsFromRequest(HttpRequest const&)
 *fill*         0x4024e344        0x0 
 .text.startup._GLOBAL__sub_I__ZN16MemoryDataStreamC2Ev
                0x4024e344       0x21 build/app_app.a(DataSourceStream.o)
                                 0x25 (size before relaxing)
 *fill*         0x4024e365        0x3 
 .text._Z9fileCloses
                0x4024e368       0x1f build/app_app.a(FileSystem.o)
                                 0x23 (size before relaxing)
                0x4024e36c                fileClose(short)
 *fill*         0x4024e387        0x1 
 .text._Z9fileWritesPKvj
                0x4024e388       0x41 build/app_app.a(FileSystem.o)
                                 0x59 (size before relaxing)
                0x4024e38c                fileWrite(short, void const*, unsigned int)
 *fill*         0x4024e3c9        0x3 
 .text._Z8fileReadsPvj
                0x4024e3cc       0x41 build/app_app.a(FileSystem.o)
                                 0x59 (size before relaxing)
                0x4024e3d0                fileRead(short, void*, unsigned int)
 *fill*         0x4024e40d        0x3 
 .text._Z8fileSeeksi15SeekOriginFlags
                0x4024e410       0x1f build/app_app.a(FileSystem.o)
                                 0x27 (size before relaxing)
                0x4024e410                fileSeek(short, int, SeekOriginFlags)
 *fill*         0x4024e42f        0x1 
 .text._Z9fileIsEOFs
                0x4024e430       0x24 build/app_app.a(FileSystem.o)
                                 0x2c (size before relaxing)
                0x4024e430                fileIsEOF(short)
 .text._Z8fileTells
                0x4024e454       0x1b build/app_app.a(FileSystem.o)
                                 0x23 (size before relaxing)
                0x4024e454                fileTell(short)
 *fill*         0x4024e46f        0x1 
 .text._Z9fileFlushs
                0x4024e470       0x1b build/app_app.a(FileSystem.o)
                                 0x23 (size before relaxing)
                0x4024e470                fileFlush(short)
 *fill*         0x4024e48b        0x1 
 .text._Z9fileStats6StringP11spiffs_stat
                0x4024e48c       0x19 build/app_app.a(FileSystem.o)
                                 0x21 (size before relaxing)
                0x4024e48c                fileStats(String, spiffs_stat*)
 *fill*         0x4024e4a5        0x3 
 .text._Z9fileStatssP11spiffs_stat
                0x4024e4a8       0x1d build/app_app.a(FileSystem.o)
                                 0x25 (size before relaxing)
                0x4024e4a8                fileStats(short, spiffs_stat*)
 *fill*         0x4024e4c5        0x3 
 .text._Z10fileDelete6String
                0x4024e4c8       0x17 build/app_app.a(FileSystem.o)
                                 0x1f (size before relaxing)
                0x4024e4c8                fileDelete(String)
 *fill*         0x4024e4df        0x1 
 .text._Z10fileDeletes
                0x4024e4e0       0x1b build/app_app.a(FileSystem.o)
                                 0x23 (size before relaxing)
                0x4024e4e0                fileDelete(short)
 *fill*         0x4024e4fb        0x1 
 .text._Z9fileExist6String
                0x4024e4fc       0x4f build/app_app.a(FileSystem.o)
                                 0x6b (size before relaxing)
                0x4024e4fc                fileExist(String)
 *fill*         0x4024e54b        0x1 
 .text._Z8fileOpen6String13FileOpenFlags
                0x4024e54c       0x84 build/app_app.a(FileSystem.o)
                                 0xbc (size before relaxing)
                0x4024e550                fileOpen(String, FileOpenFlags)
 .text._Z13fileLastErrors
                0x4024e5d0       0x15 build/app_app.a(FileSystem.o)
                                 0x1d (size before relaxing)
                0x4024e5d0                fileLastError(short)
 *fill*         0x4024e5e5        0x3 
 .text._Z18fileClearLastErrors
                0x4024e5e8       0x15 build/app_app.a(FileSystem.o)
                                 0x1d (size before relaxing)
                0x4024e5e8                fileClearLastError(short)
 *fill*         0x4024e5fd        0x3 
 .text._Z14fileSetContent6StringPKc
                0x4024e600       0x45 build/app_app.a(FileSystem.o)
                                 0x69 (size before relaxing)
                0x4024e600                fileSetContent(String, char const*)
 *fill*         0x4024e645        0x3 
 .text._Z14fileSetContent6StringRKS_
                0x4024e648       0x2b build/app_app.a(FileSystem.o)
                                 0x3b (size before relaxing)
                0x4024e648                fileSetContent(String, String const&)
 *fill*         0x4024e673        0x1 
 .text._Z11fileGetSize6String
                0x4024e674       0x43 build/app_app.a(FileSystem.o)
                                 0x6b (size before relaxing)
                0x4024e674                fileGetSize(String)
 *fill*         0x4024e6b7        0x1 
 .text._Z10fileRename6StringS_
                0x4024e6b8       0x19 build/app_app.a(FileSystem.o)
                                 0x21 (size before relaxing)
                0x4024e6b8                fileRename(String, String)
 *fill*         0x4024e6d1        0x3 
 .text._Z8fileListv
                0x4024e6d4       0xda build/app_app.a(FileSystem.o)
                                0x11d (size before relaxing)
                0x4024e6d8                fileList()
 *fill*         0x4024e7ae        0x2 
 .text._Z14fileGetContent6String
                0x4024e7b0       0xb3 build/app_app.a(FileSystem.o)
                                0x107 (size before relaxing)
                0x4024e7b8                fileGetContent(String)
 *fill*         0x4024e863        0x1 
 .text._Z14fileGetContent6StringPci
                0x4024e864       0x93 build/app_app.a(FileSystem.o)
                                 0xce (size before relaxing)
                0x4024e864                fileGetContent(String, char*, int)
 *fill*         0x4024e8f7        0x1 
 .text._ZN16SystemClockClass3nowE8TimeZone
                0x4024e8f8       0xa5 build/app_app.a(SystemClock.o)
                                 0xc5 (size before relaxing)
                0x4024e900                SystemClockClass::now(TimeZone)
 *fill*         0x4024e99d        0x3 
 .text._ZN16SystemClockClass7setTimeEl8TimeZone
                0x4024e9a0       0x79 build/app_app.a(SystemClock.o)
                                 0x9d (size before relaxing)
                0x4024e9a4                SystemClockClass::setTime(long, TimeZone)
 *fill*         0x4024ea19        0x3 
 .text._ZN16SystemClockClass19getSystemTimeStringE8TimeZone
                0x4024ea1c       0x51 build/app_app.a(SystemClock.o)
                                 0x6d (size before relaxing)
                0x4024ea1c                SystemClockClass::getSystemTimeString(TimeZone)
 *fill*         0x4024ea6d        0x3 
 .text._ZN16SystemClockClass11setTimeZoneEd
                0x4024ea70       0x6c build/app_app.a(SystemClock.o)
                                 0x78 (size before relaxing)
                0x4024ea7c                SystemClockClass::setTimeZone(double)
 .text.startup._GLOBAL__sub_I__ZN16SystemClockClass3nowE8TimeZone
                0x4024eadc       0x3f build/app_app.a(SystemClock.o)
                                 0x57 (size before relaxing)
 *fill*         0x4024eb1b        0x1 
 .text.ltoa_w   0x4024eb1c       0xde build/app_app.a(stringconversion.o)
                                 0xee (size before relaxing)
                0x4024eb28                ltoa_w
 *fill*         0x4024ebfa        0x2 
 .text.ltoa     0x4024ebfc       0x14 build/app_app.a(stringconversion.o)
                                 0x18 (size before relaxing)
                0x4024ebfc                ltoa
 .text.ultoa_w  0x4024ec10       0xbe build/app_app.a(stringconversion.o)
                                 0xd6 (size before relaxing)
                0x4024ec14                ultoa_w
 *fill*         0x4024ecce        0x2 
 .text.ultoa    0x4024ecd0       0x14 build/app_app.a(stringconversion.o)
                                 0x18 (size before relaxing)
                0x4024ecd0                ultoa
 .text.dtostrf  0x4024ece4      0x2a2 build/app_app.a(stringconversion.o)
                                0x32a (size before relaxing)
                0x4024ecf4                dtostrf
 *fill*         0x4024ef86        0x2 
 .text._ZN6VectorIlE10addElementERKl
                0x4024ef88       0x80 build/app_app.a(SplitString.o)
                                 0x94 (size before relaxing)
                0x4024ef88                Vector<long>::addElement(long const&)
 .text._Z11splitStringR6StringiR6VectorIlE
                0x4024f008       0xdd build/app_app.a(SplitString.o)
                                0x12d (size before relaxing)
                0x4024f008                splitString(String&, int, Vector<long>&)
 *fill*         0x4024f0e5        0x3 
 .text._ZN6VectorIiE10addElementERKi
                0x4024f0e8       0x80 build/app_app.a(SplitString.o)
                                 0x94 (size before relaxing)
                0x4024f0e8                Vector<int>::addElement(int const&)
 .text._Z11splitStringR6StringiR6VectorIiE
                0x4024f168       0xdd build/app_app.a(SplitString.o)
                                0x12d (size before relaxing)
                0x4024f168                splitString(String&, int, Vector<int>&)
 *fill*         0x4024f245        0x3 
 .text._ZN6VectorI6StringE10addElementERKS0_
                0x4024f248       0x87 build/app_app.a(SplitString.o)
                                 0x9f (size before relaxing)
                0x4024f248                Vector<String>::addElement(String const&)
 *fill*         0x4024f2cf        0x1 
 .text._Z11splitStringR6StringiR6VectorIS_E
                0x4024f2d0       0xc3 build/app_app.a(SplitString.o)
                                0x113 (size before relaxing)
                0x4024f2d0                splitString(String&, int, Vector<String>&)
 *fill*         0x4024f393        0x1 
 .text._ZN8RtcClassC2Ev
                0x4024f394       0x23 build/app_app.a(RTC.o)
                                 0x2b (size before relaxing)
                0x4024f394                RtcClass::RtcClass()
                0x4024f394                RtcClass::RtcClass()
 *fill*         0x4024f3b7        0x1 
 .text._ZN8RtcClass10updateTimeER7RtcData
                0x4024f3b8       0x76 build/app_app.a(RTC.o)
                                 0x92 (size before relaxing)
                0x4024f3b8                RtcClass::updateTime(RtcData&)
 *fill*         0x4024f42e        0x2 
 .text._ZN8RtcClass8saveTimeER7RtcData
                0x4024f430       0x1b build/app_app.a(RTC.o)
                0x4024f434                RtcClass::saveTime(RtcData&)
 *fill*         0x4024f44b        0x1 
 .text._ZN8RtcClass8loadTimeER7RtcData
                0x4024f44c       0x3d build/app_app.a(RTC.o)
                                 0x45 (size before relaxing)
                0x4024f454                RtcClass::loadTime(RtcData&)
 *fill*         0x4024f489        0x3 
 .text._ZN8RtcClass13getRtcSecondsEv
                0x4024f48c       0x37 build/app_app.a(RTC.o)
                                 0x57 (size before relaxing)
                0x4024f48c                RtcClass::getRtcSeconds()
 *fill*         0x4024f4c3        0x1 
 .text._ZN8RtcClass13setRtcSecondsEj
                0x4024f4c4       0x41 build/app_app.a(RTC.o)
                                 0x61 (size before relaxing)
                0x4024f4c4                RtcClass::setRtcSeconds(unsigned int)
 *fill*         0x4024f505        0x3 
 .text.startup._GLOBAL__sub_I__ZN8RtcClassC2Ev
                0x4024f508       0x15 build/app_app.a(RTC.o)
                                 0x1d (size before relaxing)
 *fill*         0x4024f51d        0x3 
 .text._ZN11HttpRequestC2Ev
                0x4024f520       0x4a build/app_app.a(HttpRequest.o)
                                 0x52 (size before relaxing)
                0x4024f528                HttpRequest::HttpRequest()
                0x4024f528                HttpRequest::HttpRequest()
 *fill*         0x4024f56a        0x2 
 .text._ZN7HashMapI6StringS0_ED2Ev
                0x4024f56c       0x89 build/app_app.a(HttpRequest.o)
                                 0xa9 (size before relaxing)
                0x4024f56c                HashMap<String, String>::~HashMap()
                0x4024f56c                HashMap<String, String>::~HashMap()
 *fill*         0x4024f5f5        0x3 
 .text._ZN11HttpRequestD2Ev
                0x4024f5f8       0x7b build/app_app.a(HttpRequest.o)
                                 0xab (size before relaxing)
                0x4024f5f8                HttpRequest::~HttpRequest()
                0x4024f5f8                HttpRequest::~HttpRequest()
 *fill*         0x4024f673        0x1 
 .text._ZN11HttpRequestD0Ev
                0x4024f674       0x1d build/app_app.a(HttpRequest.o)
                                 0x29 (size before relaxing)
                0x4024f674                HttpRequest::~HttpRequest()
 *fill*         0x4024f691        0x3 
 .text._ZN7HashMapI6StringS0_EC2EPFbS0_S0_E
                0x4024f694       0x33 build/app_app.a(HttpRequest.o)
                                 0x3b (size before relaxing)
                0x4024f694                HashMap<String, String>::HashMap(bool (*)(String, String))
                0x4024f694                HashMap<String, String>::HashMap(bool (*)(String, String))
 *fill*         0x4024f6c7        0x1 
 .text._ZN11HttpRequest17getQueryParameterE6StringS0_
                0x4024f6c8       0x77 build/app_app.a(HttpRequest.o)
                                 0xa3 (size before relaxing)
                0x4024f6c8                HttpRequest::getQueryParameter(String, String)
 *fill*         0x4024f73f        0x1 
 .text._ZN11HttpRequest16getPostParameterE6StringS0_
                0x4024f740       0x77 build/app_app.a(HttpRequest.o)
                                 0xa3 (size before relaxing)
                0x4024f740                HttpRequest::getPostParameter(String, String)
 *fill*         0x4024f7b7        0x1 
 .text._ZN11HttpRequest9getHeaderE6StringS0_
                0x4024f7b8       0x76 build/app_app.a(HttpRequest.o)
                                 0xa2 (size before relaxing)
                0x4024f7b8                HttpRequest::getHeader(String, String)
 *fill*         0x4024f82e        0x2 
 .text._ZN11HttpRequest16getContentLengthEv
                0x4024f830       0x60 build/app_app.a(HttpRequest.o)
                                 0x8c (size before relaxing)
                0x4024f834                HttpRequest::getContentLength()
 .text._ZN11HttpRequest14getContentTypeEv
                0x4024f890       0x4b build/app_app.a(HttpRequest.o)
                                 0x6b (size before relaxing)
                0x4024f894                HttpRequest::getContentType()
 *fill*         0x4024f8db        0x1 
 .text._ZN11HttpRequest6isAjaxEv
                0x4024f8dc       0x6d build/app_app.a(HttpRequest.o)
                                 0xad (size before relaxing)
                0x4024f8e4                HttpRequest::isAjax()
 *fill*         0x4024f949        0x3 
 .text._ZN11HttpRequest11isWebSocketEv
                0x4024f94c       0x6d build/app_app.a(HttpRequest.o)
                                 0xad (size before relaxing)
                0x4024f954                HttpRequest::isWebSocket()
 *fill*         0x4024f9b9        0x3 
 .text._ZN11HttpRequest9getCookieE6StringS0_
                0x4024f9bc       0x77 build/app_app.a(HttpRequest.o)
                                 0xa3 (size before relaxing)
                0x4024f9bc                HttpRequest::getCookie(String, String)
 *fill*         0x4024fa33        0x1 
 .text._ZN11HttpRequest23extractParsingItemsListEP4pbufiiccP7HashMapI6StringS3_E
                0x4024fa34      0x162 build/app_app.a(HttpRequest.o)
                                0x1e6 (size before relaxing)
                0x4024fa3c                HttpRequest::extractParsingItemsList(pbuf*, int, int, char, char, HashMap<String, String>*)
 *fill*         0x4024fb96        0x2 
 .text._ZN11HttpRequest11parseHeaderEP10HttpServerP4pbuf
                0x4024fb98      0x296 build/app_app.a(HttpRequest.o)
                                0x39a (size before relaxing)
                0x4024fbc0                HttpRequest::parseHeader(HttpServer*, pbuf*)
 *fill*         0x4024fe2e        0x2 
 .text._ZN11HttpRequest13parsePostDataEP10HttpServerP4pbuf
                0x4024fe30      0x166 build/app_app.a(HttpRequest.o)
                                0x1ea (size before relaxing)
                0x4024fe34                HttpRequest::parsePostData(HttpServer*, pbuf*)
 *fill*         0x4024ff96        0x2 
 .text.startup._GLOBAL__sub_I__ZN11HttpRequestC2Ev
                0x4024ff98       0x21 build/app_app.a(HttpRequest.o)
                                 0x25 (size before relaxing)
 *fill*         0x4024ffb9        0x3 
 .text._ZN8NetUtils11pbufFindStrEP4pbufPKci
                0x4024ffbc       0x59 build/app_app.a(NetUtils.o)
                                 0x69 (size before relaxing)
                0x4024ffbc                NetUtils::pbufFindStr(pbuf*, char const*, int)
 *fill*         0x40250015        0x3 
 .text._ZN8NetUtils19pbufAllocateStrCopyEP4pbufii
                0x40250018       0x42 build/app_app.a(NetUtils.o)
                                 0x4e (size before relaxing)
                0x40250018                NetUtils::pbufAllocateStrCopy(pbuf*, int, int)
 *fill*         0x4025005a        0x2 
 .text._ZN8NetUtils11pbufStrCopyEP4pbufii
                0x4025005c       0x5b build/app_app.a(NetUtils.o)
                                 0x6b (size before relaxing)
                0x4025005c                NetUtils::pbufStrCopy(pbuf*, int, int)
 *fill*         0x402500b7        0x1 
 .text._ZN11ArduinoJson9Internals20DynamicStringBuilder5writeEh
                0x402500b8       0x19 build/app_app.a(ArduinoJson.o)
                                 0x1d (size before relaxing)
                0x402500b8                ArduinoJson::Internals::DynamicStringBuilder::write(unsigned char)
 *fill*         0x402500d1        0x3 
 .text._ZN11ArduinoJson9Internals10JsonWriter11writeStringEPKc
                0x402500d4       0x7c build/app_app.a(ArduinoJson.o)
                                 0x90 (size before relaxing)
                0x402500dc                ArduinoJson::Internals::JsonWriter::writeString(char const*)
 .text._ZN11ArduinoJson9Internals10JsonParser11parseStringEv
                0x40250150       0xab build/app_app.a(ArduinoJson.o)
                0x40250154                ArduinoJson::Internals::JsonParser::parseString()
 *fill*         0x402501fb        0x1 
 .text._ZN11ArduinoJson9Internals4ListINS_8JsonPairEE10addNewNodeEv
                0x402501fc       0x37 build/app_app.a(ArduinoJson.o)
                                 0x3f (size before relaxing)
                0x402501fc                ArduinoJson::Internals::List<ArduinoJson::JsonPair>::addNewNode()
 *fill*         0x40250233        0x1 
 .text._ZN11ArduinoJson9Internals4ListINS_11JsonVariantEE10addNewNodeEv
                0x40250234       0x37 build/app_app.a(ArduinoJson.o)
                                 0x3f (size before relaxing)
                0x40250234                ArduinoJson::Internals::List<ArduinoJson::JsonVariant>::addNewNode()
 *fill*         0x4025026b        0x1 
 .text._ZN11ArduinoJson9Internals10Prettyfier14indentIfNeededEv
                0x4025026c       0x41 build/app_app.a(ArduinoJson.o)
                                 0x49 (size before relaxing)
                0x4025026c                ArduinoJson::Internals::Prettyfier::indentIfNeeded()
 *fill*         0x402502ad        0x3 
 .text._ZN11ArduinoJson9Internals10Prettyfier16handleNormalCharEh
                0x402502b0       0x2f build/app_app.a(ArduinoJson.o)
                                 0x37 (size before relaxing)
                0x402502b0                ArduinoJson::Internals::Prettyfier::handleNormalChar(unsigned char)
 *fill*         0x402502df        0x1 
 .text._ZN11ArduinoJson9Internals10Prettyfier16unindentIfNeededEv
                0x402502e0       0x3d build/app_app.a(ArduinoJson.o)
                                 0x45 (size before relaxing)
                0x402502e0                ArduinoJson::Internals::Prettyfier::unindentIfNeeded()
 *fill*         0x4025031d        0x3 
 .text._ZN11ArduinoJson9Internals10Prettyfier16handleMarkupCharEh
                0x40250320       0xa8 build/app_app.a(ArduinoJson.o)
                                 0xc0 (size before relaxing)
                0x40250320                ArduinoJson::Internals::Prettyfier::handleMarkupChar(unsigned char)
 .text._ZN11ArduinoJson9Internals10Prettyfier5writeEh
                0x402503c8       0x4f build/app_app.a(ArduinoJson.o)
                                 0x57 (size before relaxing)
                0x402503c8                ArduinoJson::Internals::Prettyfier::write(unsigned char)
 *fill*         0x40250417        0x1 
 .text._ZN11ArduinoJson9Internals10JsonParser4skipEc
                0x40250418       0x31 build/app_app.a(ArduinoJson.o)
                                 0x41 (size before relaxing)
                0x40250418                ArduinoJson::Internals::JsonParser::skip(char)
 *fill*         0x40250449        0x3 
 .text._ZN11ArduinoJson9JsonArray8removeAtEj
                0x4025044c       0x1f build/app_app.a(ArduinoJson.o)
                                 0x2b (size before relaxing)
                0x4025044c                ArduinoJson::JsonArray::removeAt(unsigned int)
 *fill*         0x4025046b        0x1 
 .text._ZN11ArduinoJson10JsonBuffer11createArrayEv
                0x4025046c       0x2c build/app_app.a(ArduinoJson.o)
                                 0x34 (size before relaxing)
                0x40250470                ArduinoJson::JsonBuffer::createArray()
 .text._ZN11ArduinoJson9JsonArray17createNestedArrayEv
                0x40250498       0x37 build/app_app.a(ArduinoJson.o)
                                 0x47 (size before relaxing)
                0x40250498                ArduinoJson::JsonArray::createNestedArray()
 *fill*         0x402504cf        0x1 
 .text._ZN11ArduinoJson10JsonBuffer12createObjectEv
                0x402504d0       0x28 build/app_app.a(ArduinoJson.o)
                                 0x34 (size before relaxing)
                0x402504d0                ArduinoJson::JsonBuffer::createObject()
 .text._ZN11ArduinoJson9JsonArray18createNestedObjectEv
                0x402504f8       0x37 build/app_app.a(ArduinoJson.o)
                                 0x47 (size before relaxing)
                0x402504f8                ArduinoJson::JsonArray::createNestedObject()
 *fill*         0x4025052f        0x1 
 .text._ZN11ArduinoJson10JsonBuffer6strdupEPKcj
                0x40250530       0x33 build/app_app.a(ArduinoJson.o)
                                 0x37 (size before relaxing)
                0x40250530                ArduinoJson::JsonBuffer::strdup(char const*, unsigned int)
 *fill*         0x40250563        0x1 
 .text._ZNK11ArduinoJson10JsonObject9getNodeAtENS_13JsonObjectKeyE
                0x40250564       0x31 build/app_app.a(ArduinoJson.o)
                0x40250568                ArduinoJson::JsonObject::getNodeAt(ArduinoJson::JsonObjectKey) const
 *fill*         0x40250595        0x3 
 .text._ZN11ArduinoJson10JsonObject17getOrCreateNodeAtENS_13JsonObjectKeyE
                0x40250598       0x1f build/app_app.a(ArduinoJson.o)
                                 0x2b (size before relaxing)
                0x40250598                ArduinoJson::JsonObject::getOrCreateNodeAt(ArduinoJson::JsonObjectKey)
 *fill*         0x402505b7        0x1 
 .text._ZN11ArduinoJson9Internals10JsonParser11parseObjectEv
                0x402505b8       0xa9 build/app_app.a(ArduinoJson.o)
                                 0xe9 (size before relaxing)
                0x402505b8                ArduinoJson::Internals::JsonParser::parseObject()
 *fill*         0x40250661        0x3 
 .text._ZN11ArduinoJson9Internals10JsonParser15parseAnythingToEPNS_11JsonVariantE
                0x40250664       0xb3 build/app_app.a(ArduinoJson.o)
                                 0xc3 (size before relaxing)
                0x40250664                ArduinoJson::Internals::JsonParser::parseAnythingTo(ArduinoJson::JsonVariant*)
 *fill*         0x40250717        0x1 
 .text._ZN11ArduinoJson9Internals10JsonParser10parseArrayEv
                0x40250718       0x83 build/app_app.a(ArduinoJson.o)
                                 0xb7 (size before relaxing)
                0x40250718                ArduinoJson::Internals::JsonParser::parseArray()
 *fill*         0x4025079b        0x1 
 .text._ZN11ArduinoJson10JsonBuffer10parseArrayEPch
                0x4025079c       0x27 build/app_app.a(ArduinoJson.o)
                                 0x2b (size before relaxing)
                0x402507a0                ArduinoJson::JsonBuffer::parseArray(char*, unsigned char)
 *fill*         0x402507c3        0x1 
 .text._ZN11ArduinoJson10JsonBuffer11parseObjectEPch
                0x402507c4       0x23 build/app_app.a(ArduinoJson.o)
                                 0x2b (size before relaxing)
                0x402507c4                ArduinoJson::JsonBuffer::parseObject(char*, unsigned char)
 *fill*         0x402507e7        0x1 
 .text._ZN11ArduinoJson10JsonObject13createArrayAtIPKcEERNS_9JsonArrayET_
                0x402507e8       0x41 build/app_app.a(ArduinoJson.o)
                                 0x51 (size before relaxing)
                0x402507e8                ArduinoJson::JsonArray& ArduinoJson::JsonObject::createArrayAt<char const*>(char const*)
 *fill*         0x40250829        0x3 
 .text._ZN11ArduinoJson10JsonObject14createObjectAtIPKcEERS0_T_
                0x4025082c       0x41 build/app_app.a(ArduinoJson.o)
                                 0x51 (size before relaxing)
                0x4025082c                ArduinoJson::JsonObject& ArduinoJson::JsonObject::createObjectAt<char const*>(char const*)
 *fill*         0x4025086d        0x3 
 .text._ZN11ArduinoJson10JsonObject13createArrayAtIRK6StringEERNS_9JsonArrayET_
                0x40250870       0x4d build/app_app.a(ArduinoJson.o)
                                 0x65 (size before relaxing)
                0x40250870                ArduinoJson::JsonArray& ArduinoJson::JsonObject::createArrayAt<String const&>(String const&)
 *fill*         0x402508bd        0x3 
 .text._ZN11ArduinoJson10JsonObject14createObjectAtIRK6StringEERS0_T_
                0x402508c0       0x4d build/app_app.a(ArduinoJson.o)
                                 0x65 (size before relaxing)
                0x402508c0                ArduinoJson::JsonObject& ArduinoJson::JsonObject::createObjectAt<String const&>(String const&)
 *fill*         0x4025090d        0x3 
 .text._ZNK11ArduinoJson11JsonVariant2asIPKcEET_v
                0x40250910       0x33 build/app_app.a(ArduinoJson.o)
                                 0x3b (size before relaxing)
                0x40250910                char const* ArduinoJson::JsonVariant::as<char const*>() const
 *fill*         0x40250943        0x1 
 .text._ZNK11ArduinoJson11JsonVariant2asIdEET_v
                0x40250944       0x4b build/app_app.a(ArduinoJson.o)
                                 0x5b (size before relaxing)
                0x40250944                double ArduinoJson::JsonVariant::as<double>() const
 *fill*         0x4025098f        0x1 
 .text._ZNK11ArduinoJson11JsonVariant2asIlEET_v
                0x40250990       0x5d build/app_app.a(ArduinoJson.o)
                                 0x69 (size before relaxing)
                0x40250994                long ArduinoJson::JsonVariant::as<long>() const
 *fill*         0x402509ed        0x3 
 .text._ZNK11ArduinoJson11JsonVariant2isIlEEbv
                0x402509f0       0x51 build/app_app.a(ArduinoJson.o)
                                 0x5d (size before relaxing)
                0x402509f0                bool ArduinoJson::JsonVariant::is<long>() const
 *fill*         0x40250a41        0x3 
 .text._ZNK11ArduinoJson11JsonVariant2isIdEEbv
                0x40250a44       0x5f build/app_app.a(ArduinoJson.o)
                                 0x73 (size before relaxing)
                0x40250a44                bool ArduinoJson::JsonVariant::is<double>() const
 *fill*         0x40250aa3        0x1 
 .text._ZNK11ArduinoJson11JsonVariant7writeToERNS_9Internals10JsonWriterE
                0x40250aa4       0x91 build/app_app.a(ArduinoJson.o)
                                 0xb9 (size before relaxing)
                0x40250aa8                ArduinoJson::JsonVariant::writeTo(ArduinoJson::Internals::JsonWriter&) const
 *fill*         0x40250b35        0x3 
 .text._ZNK11ArduinoJson9JsonArray7writeToERNS_9Internals10JsonWriterE
                0x40250b38       0x45 build/app_app.a(ArduinoJson.o)
                                 0x5d (size before relaxing)
                0x40250b38                ArduinoJson::JsonArray::writeTo(ArduinoJson::Internals::JsonWriter&) const
 *fill*         0x40250b7d        0x3 
 .text._ZNK11ArduinoJson10JsonObject7writeToERNS_9Internals10JsonWriterE
                0x40250b80       0x57 build/app_app.a(ArduinoJson.o)
                                 0x7f (size before relaxing)
                0x40250b80                ArduinoJson::JsonObject::writeTo(ArduinoJson::Internals::JsonWriter&) const
 *fill*         0x40250bd7        0x1 
 .text._ZNK11ArduinoJson11JsonVariant2asI6StringEET_v
                0x40250bd8       0x9d build/app_app.a(ArduinoJson.o)
                                 0xc5 (size before relaxing)
                0x40250bdc                String ArduinoJson::JsonVariant::as<String>() const
 *fill*         0x40250c75        0x3 
 .text.startup._GLOBAL__sub_I__ZN11ArduinoJson9Internals13IndentedPrint5writeEh
                0x40250c78       0x12 build/app_app.a(ArduinoJson.o)
                                 0x1a (size before relaxing)
 *fill*         0x40250c8a        0x2 
 .text._ZN15CommandDelegateC2Ev
                0x40250c8c       0x3f build/app_app.a(CommandDelegate.o)
                                 0x4b (size before relaxing)
                0x40250c90                CommandDelegate::CommandDelegate()
                0x40250c90                CommandDelegate::CommandDelegate()
 *fill*         0x40250ccb        0x1 
 .text._ZN15CommandDelegateC2E6StringS0_S0_8DelegateIFvS0_P13CommandOutputEE
                0x40250ccc       0x53 build/app_app.a(CommandDelegate.o)
                                 0x5f (size before relaxing)
                0x40250ccc                CommandDelegate::CommandDelegate(String, String, String, Delegate<void (String, CommandOutput*)>)
                0x40250ccc                CommandDelegate::CommandDelegate(String, String, String, Delegate<void (String, CommandOutput*)>)
 *fill*         0x40250d1f        0x1 
 .text._ZN15CommandDelegateD2Ev
                0x40250d20       0x36 build/app_app.a(CommandDelegate.o)
                                 0x4a (size before relaxing)
                0x40250d20                CommandDelegate::~CommandDelegate()
                0x40250d20                CommandDelegate::~CommandDelegate()
 *fill*         0x40250d56        0x2 
 .text.startup._GLOBAL__sub_I__ZN15CommandDelegateC2Ev
                0x40250d58       0x21 build/app_app.a(CommandDelegate.o)
                                 0x25 (size before relaxing)
 *fill*         0x40250d79        0x3 
 .text._ZN8DateTime13parseHttpDateE6String
                0x40250d7c      0x257 build/app_app.a(DateTime.o)
                                0x2bf (size before relaxing)
                0x40250dac                DateTime::parseHttpDate(String)
 *fill*         0x40250fd3        0x1 
 .text._ZN8DateTime17toShortDateStringEv
                0x40250fd4       0x45 build/app_app.a(DateTime.o)
                                 0x51 (size before relaxing)
                0x40250fd8                DateTime::toShortDateString()
 *fill*         0x40251019        0x3 
 .text._ZN8DateTime17toShortTimeStringEb
                0x4025101c       0x6d build/app_app.a(DateTime.o)
                                 0x81 (size before relaxing)
                0x40251024                DateTime::toShortTimeString(bool)
 *fill*         0x40251089        0x3 
 .text._ZN8DateTime20toFullDateTimeStringEv
                0x4025108c       0x6a build/app_app.a(DateTime.o)
                                 0xa2 (size before relaxing)
                0x40251090                DateTime::toFullDateTimeString()
 *fill*         0x402510f6        0x2 
 .text._ZN8DateTime19convertFromUnixTimeElPaS0_S0_S0_S0_S0_Ps
                0x402510f8       0xf9 build/app_app.a(DateTime.o)
                                0x119 (size before relaxing)
                0x40251100                DateTime::convertFromUnixTime(long, signed char*, signed char*, signed char*, signed char*, signed char*, signed char*, short*)
 *fill*         0x402511f1        0x3 
 .text._ZN8DateTime7setTimeEl
                0x402511f4       0x2e build/app_app.a(DateTime.o)
                                 0x36 (size before relaxing)
                0x402511f4                DateTime::setTime(long)
 *fill*         0x40251222        0x2 
 .text._ZN8DateTimeC2El
                0x40251224        0xf build/app_app.a(DateTime.o)
                                 0x17 (size before relaxing)
                0x40251224                DateTime::DateTime(long)
                0x40251224                DateTime::DateTime(long)
 *fill*         0x40251233        0x1 
 .text._ZN8DateTime17convertToUnixTimeEaaaaas
                0x40251234       0xd1 build/app_app.a(DateTime.o)
                                 0xd9 (size before relaxing)
                0x4025123c                DateTime::convertToUnixTime(signed char, signed char, signed char, signed char, signed char, short)
 *fill*         0x40251305        0x3 
 .text._ZN8DateTime10toUnixTimeEv
                0x40251308       0x70 build/app_app.a(DateTime.o)
                                 0x78 (size before relaxing)
                0x40251308                DateTime::toUnixTime()
 .text._ZN8DateTime15addMillisecondsEl
                0x40251378       0x44 build/app_app.a(DateTime.o)
                                 0x5c (size before relaxing)
                0x40251378                DateTime::addMilliseconds(long)
 .text.spiffs_stat_pix
                0x402513bc       0xea build/app_app.a(spiffs_hydrogen.o)
                                0x10a (size before relaxing)
 *fill*         0x402514a6        0x2 
 .text.spiffs_read_dir_v
                0x402514a8       0xd2 build/app_app.a(spiffs_hydrogen.o)
                                 0xe6 (size before relaxing)
 *fill*         0x4025157a        0x2 
 .text.spiffs_hydro_write$isra$0
                0x4025157c       0x6a build/app_app.a(spiffs_hydrogen.o)
                                 0x76 (size before relaxing)
 *fill*         0x402515e6        0x2 
 .text.spiffs_fflush_cache
                0x402515e8       0x87 build/app_app.a(spiffs_hydrogen.o)
                                 0x97 (size before relaxing)
 *fill*         0x4025166f        0x1 
 .text.SPIFFS_format
                0x40251670       0x75 build/app_app.a(spiffs_hydrogen.o)
                                 0x79 (size before relaxing)
                0x40251680                SPIFFS_format
 *fill*         0x402516e5        0x3 
 .text.SPIFFS_mount
                0x402516e8       0xf0 build/app_app.a(spiffs_hydrogen.o)
                                0x114 (size before relaxing)
                0x402516e8                SPIFFS_mount
 .text.SPIFFS_unmount
                0x402517d8       0x55 build/app_app.a(spiffs_hydrogen.o)
                                 0x65 (size before relaxing)
                0x402517d8                SPIFFS_unmount
 *fill*         0x4025182d        0x3 
 .text.SPIFFS_creat
                0x40251830       0x69 build/app_app.a(spiffs_hydrogen.o)
                                 0x79 (size before relaxing)
                0x40251834                SPIFFS_creat
 *fill*         0x40251899        0x3 
 .text.SPIFFS_open
                0x4025189c      0x145 build/app_app.a(spiffs_hydrogen.o)
                                0x189 (size before relaxing)
                0x402518a4                SPIFFS_open
 *fill*         0x402519e1        0x3 
 .text.SPIFFS_open_by_dirent
                0x402519e4       0xb1 build/app_app.a(spiffs_hydrogen.o)
                                 0xd9 (size before relaxing)
                0x402519e4                SPIFFS_open_by_dirent
 *fill*         0x40251a95        0x3 
 .text.SPIFFS_read
                0x40251a98       0xc9 build/app_app.a(spiffs_hydrogen.o)
                                 0xed (size before relaxing)
                0x40251aa0                SPIFFS_read
 *fill*         0x40251b61        0x3 
 .text.SPIFFS_write
                0x40251b64      0x1df build/app_app.a(spiffs_hydrogen.o)
                                0x21b (size before relaxing)
                0x40251b68                SPIFFS_write
 *fill*         0x40251d43        0x1 
 .text.SPIFFS_lseek
                0x40251d44      0x108 build/app_app.a(spiffs_hydrogen.o)
                                0x12c (size before relaxing)
                0x40251d48                SPIFFS_lseek
 .text.SPIFFS_remove
                0x40251e4c       0xb4 build/app_app.a(spiffs_hydrogen.o)
                                 0xe8 (size before relaxing)
                0x40251e4c                SPIFFS_remove
 .text.SPIFFS_fremove
                0x40251f00       0x77 build/app_app.a(spiffs_hydrogen.o)
                                 0x97 (size before relaxing)
                0x40251f00                SPIFFS_fremove
 *fill*         0x40251f77        0x1 
 .text.SPIFFS_stat
                0x40251f78       0x57 build/app_app.a(spiffs_hydrogen.o)
                                 0x6f (size before relaxing)
                0x40251f78                SPIFFS_stat
 *fill*         0x40251fcf        0x1 
 .text.SPIFFS_fstat
                0x40251fd0       0x6a build/app_app.a(spiffs_hydrogen.o)
                                 0x86 (size before relaxing)
                0x40251fd0                SPIFFS_fstat
 *fill*         0x4025203a        0x2 
 .text.SPIFFS_fflush
                0x4025203c       0x42 build/app_app.a(spiffs_hydrogen.o)
                                 0x55 (size before relaxing)
                0x4025203c                SPIFFS_fflush
 *fill*         0x4025207e        0x2 
 .text.SPIFFS_close
                0x40252080       0x5b build/app_app.a(spiffs_hydrogen.o)
                                 0x6f (size before relaxing)
                0x40252080                SPIFFS_close
 *fill*         0x402520db        0x1 
 .text.SPIFFS_rename
                0x402520dc       0xdf build/app_app.a(spiffs_hydrogen.o)
                                0x117 (size before relaxing)
                0x402520e4                SPIFFS_rename
 *fill*         0x402521bb        0x1 
 .text.SPIFFS_opendir
                0x402521bc       0x2d build/app_app.a(spiffs_hydrogen.o)
                                 0x39 (size before relaxing)
                0x402521bc                SPIFFS_opendir
 *fill*         0x402521e9        0x3 
 .text.SPIFFS_readdir
                0x402521ec       0x6c build/app_app.a(spiffs_hydrogen.o)
                                 0x78 (size before relaxing)
                0x402521f0                SPIFFS_readdir
 .text.SPIFFS_closedir
                0x40252258       0x23 build/app_app.a(spiffs_hydrogen.o)
                                 0x2f (size before relaxing)
                0x40252258                SPIFFS_closedir
 *fill*         0x4025227b        0x1 
 .text.SPIFFS_check
                0x4025227c       0x47 build/app_app.a(spiffs_hydrogen.o)
                                 0x6f (size before relaxing)
                0x4025227c                SPIFFS_check
 *fill*         0x402522c3        0x1 
 .text.SPIFFS_info
                0x402522c4       0x8f build/app_app.a(spiffs_hydrogen.o)
                                 0xa3 (size before relaxing)
                0x402522c4                SPIFFS_info
 *fill*         0x40252353        0x1 
 .text.SPIFFS_gc_quick
                0x40252354       0x47 build/app_app.a(spiffs_hydrogen.o)
                                 0x57 (size before relaxing)
                0x40252354                SPIFFS_gc_quick
 *fill*         0x4025239b        0x1 
 .text.SPIFFS_gc
                0x4025239c       0x43 build/app_app.a(spiffs_hydrogen.o)
                                 0x53 (size before relaxing)
                0x4025239c                SPIFFS_gc
 *fill*         0x402523df        0x1 
 .text.SPIFFS_eof
                0x402523e0       0x6d build/app_app.a(spiffs_hydrogen.o)
                                 0x81 (size before relaxing)
                0x402523e0                SPIFFS_eof
 *fill*         0x4025244d        0x3 
 .text.SPIFFS_tell
                0x40252450       0x61 build/app_app.a(spiffs_hydrogen.o)
                                 0x75 (size before relaxing)
                0x40252450                SPIFFS_tell
 *fill*         0x402524b1        0x3 
 .text.spiffs_obj_lu_find_id_and_span_v
                0x402524b4       0xc1 build/app_app.a(spiffs_nucleus.o)
                                 0xd5 (size before relaxing)
 *fill*         0x40252575        0x3 
 .text.spiffs_page_data_check
                0x40252578       0xe2 build/app_app.a(spiffs_nucleus.o)
                                 0xfe (size before relaxing)
 *fill*         0x4025265a        0x2 
 .text.spiffs_page_index_check
                0x4025265c       0xda build/app_app.a(spiffs_nucleus.o)
                                0x102 (size before relaxing)
 *fill*         0x40252736        0x2 
 .text.spiffs_object_find_object_index_header_by_name_v
                0x40252738       0xb1 build/app_app.a(spiffs_nucleus.o)
                                 0xd1 (size before relaxing)
 *fill*         0x402527e9        0x3 
 .text.spiffs_obj_lu_find_free_obj_id_bitmap_v
                0x402527ec       0xf2 build/app_app.a(spiffs_nucleus.o)
                                0x10e (size before relaxing)
 *fill*         0x402528de        0x2 
 .text.spiffs_obj_lu_scan_v
                0x402528e0       0x31 build/app_app.a(spiffs_nucleus.o)
                                 0x39 (size before relaxing)
 *fill*         0x40252911        0x3 
 .text.spiffs_obj_lu_find_free_obj_id_compact_v
                0x40252914       0xe0 build/app_app.a(spiffs_nucleus.o)
                                0x104 (size before relaxing)
 .text.spiffs_phys_cpy
                0x402529f4       0x7c build/app_app.a(spiffs_nucleus.o)
                                 0x88 (size before relaxing)
                0x402529f4                spiffs_phys_cpy
 .text.spiffs_obj_lu_find_entry_visitor
                0x40252a70      0x258 build/app_app.a(spiffs_nucleus.o)
                                0x280 (size before relaxing)
                0x40252a7c                spiffs_obj_lu_find_entry_visitor
 .text.spiffs_erase_block
                0x40252cc8       0xa3 build/app_app.a(spiffs_nucleus.o)
                                 0xb7 (size before relaxing)
                0x40252cc8                spiffs_erase_block
 *fill*         0x40252d6b        0x1 
 .text.spiffs_obj_lu_scan
                0x40252d6c      0x104 build/app_app.a(spiffs_nucleus.o)
                                0x124 (size before relaxing)
                0x40252d74                spiffs_obj_lu_scan
 .text.spiffs_obj_lu_find_id
                0x40252e70       0x30 build/app_app.a(spiffs_nucleus.o)
                                 0x3c (size before relaxing)
                0x40252e70                spiffs_obj_lu_find_id
 .text.spiffs_obj_lu_find_free
                0x40252ea0       0x9b build/app_app.a(spiffs_nucleus.o)
                                 0xa7 (size before relaxing)
                0x40252ea8                spiffs_obj_lu_find_free
 *fill*         0x40252f3b        0x1 
 .text.spiffs_obj_lu_find_id_and_span
                0x40252f3c       0xbe build/app_app.a(spiffs_nucleus.o)
                                 0xd6 (size before relaxing)
                0x40252f40                spiffs_obj_lu_find_id_and_span
 *fill*         0x40252ffa        0x2 
 .text.spiffs_obj_lu_find_id_and_span_by_phdr
                0x40252ffc       0xb9 build/app_app.a(spiffs_nucleus.o)
                                 0xd5 (size before relaxing)
                0x40252ffc                spiffs_obj_lu_find_id_and_span_by_phdr
 *fill*         0x402530b5        0x3 
 .text.spiffs_page_allocate_data
                0x402530b8      0x1bb build/app_app.a(spiffs_nucleus.o)
                                0x1ff (size before relaxing)
                0x402530b8                spiffs_page_allocate_data
 *fill*         0x40253273        0x1 
 .text.spiffs_page_delete
                0x40253274       0xb9 build/app_app.a(spiffs_nucleus.o)
                                 0xd9 (size before relaxing)
                0x40253274                spiffs_page_delete
 *fill*         0x4025332d        0x3 
 .text.spiffs_page_move
                0x40253330      0x1a6 build/app_app.a(spiffs_nucleus.o)
                                0x1e6 (size before relaxing)
                0x40253330                spiffs_page_move
 *fill*         0x402534d6        0x2 
 .text.spiffs_cb_object_event
                0x402534d8       0x6b build/app_app.a(spiffs_nucleus.o)
                                 0x6f (size before relaxing)
                0x402534d8                spiffs_cb_object_event
 *fill*         0x40253543        0x1 
 .text.spiffs_object_create
                0x40253544      0x197 build/app_app.a(spiffs_nucleus.o)
                                0x1e3 (size before relaxing)
                0x40253544                spiffs_object_create
 *fill*         0x402536db        0x1 
 .text.spiffs_object_update_index_hdr
                0x402536dc      0x10b build/app_app.a(spiffs_nucleus.o)
                                0x13b (size before relaxing)
                0x402536dc                spiffs_object_update_index_hdr
 *fill*         0x402537e7        0x1 
 .text.spiffs_object_open_by_page
                0x402537e8      0x102 build/app_app.a(spiffs_nucleus.o)
                                0x13a (size before relaxing)
                0x402537e8                spiffs_object_open_by_page
 *fill*         0x402538ea        0x2 
 .text.spiffs_object_open_by_id
                0x402538ec       0x4b build/app_app.a(spiffs_nucleus.o)
                                 0x5f (size before relaxing)
                0x402538ec                spiffs_object_open_by_id
 *fill*         0x40253937        0x1 
 .text.spiffs_object_append
                0x40253938      0x568 build/app_app.a(spiffs_nucleus.o)
                                0x648 (size before relaxing)
                0x40253938                spiffs_object_append
 .text.spiffs_object_modify
                0x40253ea0      0x4e5 build/app_app.a(spiffs_nucleus.o)
                                0x591 (size before relaxing)
                0x40253ea0                spiffs_object_modify
 *fill*         0x40254385        0x3 
 .text.spiffs_object_find_object_index_header_by_name
                0x40254388       0xa5 build/app_app.a(spiffs_nucleus.o)
                                 0xbd (size before relaxing)
                0x4025438c                spiffs_object_find_object_index_header_by_name
 *fill*         0x4025442d        0x3 
 .text.spiffs_object_truncate
                0x40254430      0x528 build/app_app.a(spiffs_nucleus.o)
                                0x604 (size before relaxing)
                0x4025443c                spiffs_object_truncate
 .text.spiffs_object_read
                0x40254958      0x21f build/app_app.a(spiffs_nucleus.o)
                                0x26b (size before relaxing)
                0x40254958                spiffs_object_read
 *fill*         0x40254b77        0x1 
 .text.spiffs_obj_lu_find_free_obj_id
                0x40254b78      0x1c4 build/app_app.a(spiffs_nucleus.o)
                                0x1f0 (size before relaxing)
                0x40254b84                spiffs_obj_lu_find_free_obj_id
 .text.spiffs_fd_find_new
                0x40254d3c       0x2c build/app_app.a(spiffs_nucleus.o)
                0x40254d40                spiffs_fd_find_new
 .text.spiffs_fd_return
                0x40254d68       0x3a build/app_app.a(spiffs_nucleus.o)
                0x40254d70                spiffs_fd_return
 *fill*         0x40254da2        0x2 
 .text.spiffs_fd_get
                0x40254da4       0x30 build/app_app.a(spiffs_nucleus.o)
                                 0x38 (size before relaxing)
                0x40254da4                spiffs_fd_get
 .text.api_spiffs_erase
                0x40254dd4       0x4a build/app_app.a(spiffs_sming.o)
                                 0x56 (size before relaxing)
 *fill*         0x40254e1e        0x2 
 .text.api_spiffs_read
                0x40254e20       0x19 build/app_app.a(spiffs_sming.o)
                                 0x21 (size before relaxing)
 *fill*         0x40254e39        0x3 
 .text.api_spiffs_write
                0x40254e3c       0x19 build/app_app.a(spiffs_sming.o)
                                 0x21 (size before relaxing)
 *fill*         0x40254e55        0x3 
 .text.spiffs_get_storage_config
                0x40254e58       0x56 build/app_app.a(spiffs_sming.o)
                                 0x76 (size before relaxing)
                0x40254e58                spiffs_get_storage_config
 *fill*         0x40254eae        0x2 
 .text.spiffs_format_internal
                0x40254eb0       0x9e build/app_app.a(spiffs_sming.o)
                                 0xc2 (size before relaxing)
                0x40254ec0                spiffs_format_internal
 *fill*         0x40254f4e        0x2 
 .text.spiffs_mount_internal
                0x40254f50      0x109 build/app_app.a(spiffs_sming.o)
                                0x14d (size before relaxing)
 *fill*         0x40255059        0x3 
 .text.spiffs_mount_noformat
                0x4025505c       0x1b build/app_app.a(spiffs_sming.o)
                                 0x27 (size before relaxing)
                0x4025505c                spiffs_mount_noformat
 *fill*         0x40255077        0x1 
 .text.spiffs_mount
                0x40255078       0x1b build/app_app.a(spiffs_sming.o)
                                 0x27 (size before relaxing)
                0x40255078                spiffs_mount
 *fill*         0x40255093        0x1 
 .text.spiffs_mount_manual
                0x40255094       0x41 build/app_app.a(spiffs_sming.o)
                                 0x51 (size before relaxing)
                0x40255094                spiffs_mount_manual
 *fill*         0x402550d5        0x3 
 .text.spiffs_unmount
                0x402550d8       0x15 build/app_app.a(spiffs_sming.o)
                                 0x1d (size before relaxing)
                0x402550d8                spiffs_unmount
 *fill*         0x402550ed        0x3 
 .text.spiffs_format
                0x402550f0       0x1f build/app_app.a(spiffs_sming.o)
                                 0x3b (size before relaxing)
                0x402550f0                spiffs_format
 *fill*         0x4025510f        0x1 
 .text.spiffs_format_manual
                0x40255110       0x3b build/app_app.a(spiffs_sming.o)
                                 0x53 (size before relaxing)
                0x40255110                spiffs_format_manual
 *fill*         0x4025514b        0x1 
 .text.test_spiffs
                0x4025514c       0xf3 build/app_app.a(spiffs_sming.o)
                                0x153 (size before relaxing)
                0x40255164                test_spiffs
 *fill*         0x4025523f        0x1 
 .text._ZL11safe_appendPcjPKc
                0x40255240       0x41 build/app_app.a(escape.o)
                                 0x49 (size before relaxing)
 *fill*         0x40255281        0x3 
 .text.uri_escape
                0x40255284      0x10a build/app_app.a(escape.o)
                                0x11a (size before relaxing)
                0x40255288                uri_escape
 *fill*         0x4025538e        0x2 
 .text.uri_unescape
                0x40255390      0x10a build/app_app.a(escape.o)
                                0x122 (size before relaxing)
                0x40255390                uri_unescape
 *fill*         0x4025549a        0x2 
 .text.html_escape
                0x4025549c       0xa6 build/app_app.a(escape.o)
                                 0xaa (size before relaxing)
                0x402554b0                html_escape
 *fill*         0x40255542        0x2 
 .text.flashmem_erase_sector
                0x40255544       0x31 build/app_app.a(flashmem.o)
                0x4025554c                flashmem_erase_sector
 *fill*         0x40255575        0x3 
 .text.flashmem_get_info
                0x40255578       0x17 build/app_app.a(flashmem.o)
                                 0x1b (size before relaxing)
                0x40255578                flashmem_get_info
 *fill*         0x4025558f        0x1 
 .text.flashmem_get_size_type
                0x40255590       0x12 build/app_app.a(flashmem.o)
                                 0x1a (size before relaxing)
                0x40255590                flashmem_get_size_type
 *fill*         0x402555a2        0x2 
 .text.flashmem_get_size_bytes
                0x402555a4       0x24 build/app_app.a(flashmem.o)
                                 0x30 (size before relaxing)
                0x402555a8                flashmem_get_size_bytes
 .text.flashmem_get_size_sectors
                0x402555c8       0x12 build/app_app.a(flashmem.o)
                                 0x1a (size before relaxing)
                0x402555c8                flashmem_get_size_sectors
 *fill*         0x402555da        0x2 
 .text.flashmem_find_sector
                0x402555dc       0x2c build/app_app.a(flashmem.o)
                                 0x30 (size before relaxing)
                0x402555e4                flashmem_find_sector
 .text.flashmem_get_sector_of_address
                0x40255608        0xa build/app_app.a(flashmem.o)
                                  0xe (size before relaxing)
                0x40255608                flashmem_get_sector_of_address
 *fill*         0x40255612        0x2 
 .text.flashmem_write_internal
                0x40255614       0x8b build/app_app.a(flashmem.o)
                                 0xa3 (size before relaxing)
                0x4025561c                flashmem_write_internal
 *fill*         0x4025569f        0x1 
 .text.flashmem_read_internal
                0x402556a0       0x4f build/app_app.a(flashmem.o)
                                 0x5b (size before relaxing)
                0x402556a8                flashmem_read_internal
 *fill*         0x402556ef        0x1 
 .text.flashmem_write
                0x402556f0       0xae build/app_app.a(flashmem.o)
                                 0xca (size before relaxing)
                0x402556f0                flashmem_write
 *fill*         0x4025579e        0x2 
 .text.flashmem_read
                0x402557a0       0x97 build/app_app.a(flashmem.o)
                                 0xab (size before relaxing)
                0x402557a0                flashmem_read
 *fill*         0x40255837        0x1 
 .text.flashmem_get_first_free_block_address
                0x40255838       0x23 build/app_app.a(flashmem.o)
                                 0x27 (size before relaxing)
                0x4025583c                flashmem_get_first_free_block_address
 *fill*         0x4025585b        0x1 
 .text.spiffs_cache_page_remove_oldest$constprop$0
                0x4025585c       0x63 build/app_app.a(spiffs_cache.o)
                                 0x67 (size before relaxing)
 *fill*         0x402558bf        0x1 
 .text.spiffs_cache_drop_page
                0x402558c0       0x26 build/app_app.a(spiffs_cache.o)
                                 0x32 (size before relaxing)
                0x402558c0                spiffs_cache_drop_page
 *fill*         0x402558e6        0x2 
 .text.spiffs_phys_rd
                0x402558e8       0xf9 build/app_app.a(spiffs_cache.o)
                                0x125 (size before relaxing)
                0x402558e8                spiffs_phys_rd
 *fill*         0x402559e1        0x3 
 .text.spiffs_phys_wr
                0x402559e4       0xb7 build/app_app.a(spiffs_cache.o)
                                 0xd3 (size before relaxing)
                0x402559e4                spiffs_phys_wr
 *fill*         0x40255a9b        0x1 
 .text.spiffs_cache_page_allocate_by_fd
                0x40255a9c       0x33 build/app_app.a(spiffs_cache.o)
                                 0x3f (size before relaxing)
                0x40255a9c                spiffs_cache_page_allocate_by_fd
 *fill*         0x40255acf        0x1 
 .text.spiffs_cache_fd_release
                0x40255ad0       0x46 build/app_app.a(spiffs_cache.o)
                                 0x4a (size before relaxing)
                0x40255ad0                spiffs_cache_fd_release
 *fill*         0x40255b16        0x2 
 .text.spiffs_cache_init
                0x40255b18       0xbf build/app_app.a(spiffs_cache.o)
                                 0xcf (size before relaxing)
                0x40255b18                spiffs_cache_init
 *fill*         0x40255bd7        0x1 
 .text.spiffs_object_get_data_page_index_reference
                0x40255bd8       0xb3 build/app_app.a(spiffs_check.o)
                                 0xc7 (size before relaxing)
 *fill*         0x40255c8b        0x1 
 .text.spiffs_delete_obj_lazy
                0x40255c8c       0x4d build/app_app.a(spiffs_check.o)
                                 0x5d (size before relaxing)
 *fill*         0x40255cd9        0x3 
 .text.spiffs_rewrite_index
                0x40255cdc      0x211 build/app_app.a(spiffs_check.o)
                                0x27d (size before relaxing)
 *fill*         0x40255eed        0x3 
 .text.spiffs_rewrite_page
                0x40255ef0       0x5f build/app_app.a(spiffs_check.o)
                                 0x6f (size before relaxing)
 *fill*         0x40255f4f        0x1 
 .text.spiffs_lookup_check_v
                0x40255f50      0x700 build/app_app.a(spiffs_check.o)
                                0x7d8 (size before relaxing)
 .text.spiffs_object_index_consistency_check_v
                0x40256650      0x1fd build/app_app.a(spiffs_check.o)
                                0x23d (size before relaxing)
 *fill*         0x4025684d        0x3 
 .text.spiffs_lookup_consistency_check
                0x40256850       0x80 build/app_app.a(spiffs_check.o)
                                 0x8c (size before relaxing)
                0x40256854                spiffs_lookup_consistency_check
 .text.spiffs_page_consistency_check
                0x402568d0      0x7c4 build/app_app.a(spiffs_check.o)
                                0x894 (size before relaxing)
                0x402568d0                spiffs_page_consistency_check
 .text.spiffs_object_index_consistency_check
                0x40257094       0x94 build/app_app.a(spiffs_check.o)
                                 0xa0 (size before relaxing)
                0x40257098                spiffs_object_index_consistency_check
 .text.spiffs_gc_erase_block
                0x40257128       0x50 build/app_app.a(spiffs_gc.o)
                                 0x60 (size before relaxing)
 .text.spiffs_gc_quick
                0x40257178      0x1a5 build/app_app.a(spiffs_gc.o)
                                0x1c9 (size before relaxing)
                0x4025717c                spiffs_gc_quick
 *fill*         0x4025731d        0x3 
 .text.spiffs_gc_erase_page_stats
                0x40257320      0x113 build/app_app.a(spiffs_gc.o)
                                0x12b (size before relaxing)
                0x40257320                spiffs_gc_erase_page_stats
 *fill*         0x40257433        0x1 
 .text.spiffs_gc_find_candidate
                0x40257434      0x2a0 build/app_app.a(spiffs_gc.o)
                                0x2d0 (size before relaxing)
                0x40257434                spiffs_gc_find_candidate
 .text.spiffs_gc_clean
                0x402576d4      0x502 build/app_app.a(spiffs_gc.o)
                                0x5b2 (size before relaxing)
                0x402576d4                spiffs_gc_clean
 *fill*         0x40257bd6        0x2 
 .text.spiffs_gc_check
                0x40257bd8      0x176 build/app_app.a(spiffs_gc.o)
                                0x1a6 (size before relaxing)
                0x40257bd8                spiffs_gc_check
 *fill*         0x40257d4e        0x2 
 .literal._Z8procTaskPv
                0x40257d50        0x0 build/app_app.a(user_main_sming.o)
 .literal._ZN14FunctionCallerIPFvR11HttpRequestR12HttpResponseEvJS1_S3_EED5Ev
                0x40257d50        0x0 build/app_app.a(user_main_sming.o)
 .literal._ZN14FunctionCallerIPFvR13UdpConnectionPci9IPAddresstEvJS1_S2_iS3_tEED5Ev
                0x40257d50        0x0 build/app_app.a(user_main_sming.o)
 .literal._ZN14FunctionCallerIPFvvEvJEED5Ev
                0x40257d50        0x0 build/app_app.a(user_main_sming.o)
 .literal._ZN14FunctionCallerIPFvP9TcpClientEvJS1_EED5Ev
                0x40257d50        0x0 build/app_app.a(user_main_sming.o)
 .literal._ZN14FunctionCallerIPFbR9TcpClientPciEbJS1_S2_iEED5Ev
                0x40257d50        0x0 build/app_app.a(user_main_sming.o)
 .literal._ZN14FunctionCallerIPFvR9TcpClientbEvJS1_bEED5Ev
                0x40257d50        0x0 build/app_app.a(user_main_sming.o)
 .literal._ZN14FunctionCallerIPFvR11HttpRequestR12HttpResponseEvJS1_S3_EE6invokeES1_S3_
                0x40257d50        0x0 build/app_app.a(user_main_sming.o)
 .literal._ZN14FunctionCallerIPFvR13UdpConnectionPci9IPAddresstEvJS1_S2_iS3_tEE6invokeES1_S2_iS3_t
                0x40257d50        0x0 build/app_app.a(user_main_sming.o)
 .literal._ZN14FunctionCallerIPFvvEvJEE6invokeEv
                0x40257d50        0x0 build/app_app.a(user_main_sming.o)
 .literal._ZN14FunctionCallerIPFvP9TcpClientEvJS1_EE6invokeES1_
                0x40257d50        0x0 build/app_app.a(user_main_sming.o)
 .literal._ZN14FunctionCallerIPFbR9TcpClientPciEbJS1_S2_iEE6invokeES1_S2_i
                0x40257d50        0x0 build/app_app.a(user_main_sming.o)
 .literal._ZN14FunctionCallerIPFvR9TcpClientbEvJS1_bEE6invokeES1_b
                0x40257d50        0x0 build/app_app.a(user_main_sming.o)
 .literal._ZNK6VectorI6StringE5countEv
                0x40257d50        0x0 build/app_app.a(user_main_sming.o)
 .literal._ZL12staticOnSentPvP7tcp_pcbt
                0x40257d50        0x0 build/app_app.a(user_main_sming.o)
 .literal._Z14globalDelegatev
                0x40257d50        0x0 build/app_app.a(user_main_sming.o)
 .literal._Z16vBasicTFTPServerPv
                0x40257d50        0x0 build/app_app.a(user_main_sming.o)
 .literal._ZL11echo_acceptPvP7tcp_pcba
                0x40257d50        0x0 build/app_app.a(user_main_sming.o)
 .literal._ZL10close_connP7tcp_pcb
                0x40257d50        0x0 build/app_app.a(user_main_sming.o)
 .literal._ZL9echo_recvPvP7tcp_pcbP4pbufa
                0x40257d50        0x0 build/app_app.a(user_main_sming.o)
 .literal._Z5blinkv
                0x40257d50        0x0 build/app_app.a(user_main_sming.o)
 .literal._Z7onIndexR11HttpRequestR12HttpResponse
                0x40257d50        0x0 build/app_app.a(user_main_sming.o)
 .literal._Z9onDefaultR11HttpRequestR12HttpResponse
                0x40257d50        0x0 build/app_app.a(user_main_sming.o)
 .literal._ZN6VectorI6StringED5Ev
                0x40257d50        0x0 build/app_app.a(user_main_sming.o)
 .literal._ZN6VectorI6StringEixEj
                0x40257d50        0x0 build/app_app.a(user_main_sming.o)
 .literal._ZNK6VectorI6StringEixEj
                0x40257d50        0x0 build/app_app.a(user_main_sming.o)
 .literal._ZN13TcpConnection11getRemoteIpEv$isra$1
                0x40257d50        0x0 build/app_app.a(user_main_sming.o)
 .literal._Z24tcpServerClientConnectedP9TcpClient
                0x40257d50        0x0 build/app_app.a(user_main_sming.o)
 .literal._Z22tcpServerClientReceiveR9TcpClientPci
                0x40257d50        0x0 build/app_app.a(user_main_sming.o)
 .literal._Z23tcpServerClientCompleteR9TcpClientb
                0x40257d50        0x0 build/app_app.a(user_main_sming.o)
 .literal._ZN12DelegateDemo12callDelegateEv
                0x40257d50        0x0 build/app_app.a(user_main_sming.o)
 .literal._Z5task1Pv
                0x40257d50        0x0 build/app_app.a(user_main_sming.o)
 .literal._Z5task2Pv
                0x40257d50        0x0 build/app_app.a(user_main_sming.o)
 .literal._Z9connectOkv
                0x40257d50        0x0 build/app_app.a(user_main_sming.o)
 .literal.startup._GLOBAL__sub_I__Z5task1Pv
                0x40257d50        0x0 build/app_app.a(user_main_sming.o)
 .literal._Z9onReceiveR13UdpConnectionPci9IPAddresst
                0x40257d50        0x0 build/app_app.a(user_main_sming.o)
 .literal._Z4initv
                0x40257d50        0x0 build/app_app.a(user_main_sming.o)
 .literal.user_init
                0x40257d50        0x0 build/app_app.a(user_main_sming.o)
 .literal.exit._GLOBAL__sub_D__Z5task1Pv
                0x40257d50        0x0 build/app_app.a(user_main_sming.o)
 .text._Z8procTaskPv
                0x40257d50        0x3 build/app_app.a(user_main_sming.o)
                0x40257d50                procTask(void*)
 *fill*         0x40257d53        0x1 
 .text._ZN14FunctionCallerIPFvR11HttpRequestR12HttpResponseEvJS1_S3_EED2Ev
                0x40257d54        0x2 build/app_app.a(user_main_sming.o)
                0x40257d54                FunctionCaller<void (*)(HttpRequest&, HttpResponse&), void, HttpRequest&, HttpResponse&>::~FunctionCaller()
                0x40257d54                FunctionCaller<void (*)(HttpRequest&, HttpResponse&), void, HttpRequest&, HttpResponse&>::~FunctionCaller()
                0x40257d54                FunctionCaller<void (*)(HttpRequest&, HttpResponse&), void, HttpRequest&, HttpResponse&>::~FunctionCaller()
                0x40257d54                FunctionCaller<void (*)(HttpRequest&, HttpResponse&), void, HttpRequest&, HttpResponse&>::~FunctionCaller()
 *fill*         0x40257d56        0x2 
 .text._ZN14FunctionCallerIPFvR13UdpConnectionPci9IPAddresstEvJS1_S2_iS3_tEED2Ev
                0x40257d58        0x2 build/app_app.a(user_main_sming.o)
                0x40257d58                FunctionCaller<void (*)(UdpConnection&, char*, int, IPAddress, unsigned short), void, UdpConnection&, char*, int, IPAddress, unsigned short>::~FunctionCaller()
                0x40257d58                FunctionCaller<void (*)(UdpConnection&, char*, int, IPAddress, unsigned short), void, UdpConnection&, char*, int, IPAddress, unsigned short>::~FunctionCaller()
                0x40257d58                FunctionCaller<void (*)(UdpConnection&, char*, int, IPAddress, unsigned short), void, UdpConnection&, char*, int, IPAddress, unsigned short>::~FunctionCaller()
                0x40257d58                FunctionCaller<void (*)(UdpConnection&, char*, int, IPAddress, unsigned short), void, UdpConnection&, char*, int, IPAddress, unsigned short>::~FunctionCaller()
 *fill*         0x40257d5a        0x2 
 .text._ZN14FunctionCallerIPFvvEvJEED2Ev
                0x40257d5c        0x2 build/app_app.a(user_main_sming.o)
                0x40257d5c                FunctionCaller<void (*)(), void>::~FunctionCaller()
                0x40257d5c                FunctionCaller<void (*)(), void>::~FunctionCaller()
                0x40257d5c                FunctionCaller<void (*)(), void>::~FunctionCaller()
                0x40257d5c                FunctionCaller<void (*)(), void>::~FunctionCaller()
 *fill*         0x40257d5e        0x2 
 .text._ZN14FunctionCallerIPFvP9TcpClientEvJS1_EED2Ev
                0x40257d60        0x2 build/app_app.a(user_main_sming.o)
                0x40257d60                FunctionCaller<void (*)(TcpClient*), void, TcpClient*>::~FunctionCaller()
                0x40257d60                FunctionCaller<void (*)(TcpClient*), void, TcpClient*>::~FunctionCaller()
                0x40257d60                FunctionCaller<void (*)(TcpClient*), void, TcpClient*>::~FunctionCaller()
                0x40257d60                FunctionCaller<void (*)(TcpClient*), void, TcpClient*>::~FunctionCaller()
 *fill*         0x40257d62        0x2 
 .text._ZN14FunctionCallerIPFbR9TcpClientPciEbJS1_S2_iEED2Ev
                0x40257d64        0x2 build/app_app.a(user_main_sming.o)
                0x40257d64                FunctionCaller<bool (*)(TcpClient&, char*, int), bool, TcpClient&, char*, int>::~FunctionCaller()
                0x40257d64                FunctionCaller<bool (*)(TcpClient&, char*, int), bool, TcpClient&, char*, int>::~FunctionCaller()
                0x40257d64                FunctionCaller<bool (*)(TcpClient&, char*, int), bool, TcpClient&, char*, int>::~FunctionCaller()
                0x40257d64                FunctionCaller<bool (*)(TcpClient&, char*, int), bool, TcpClient&, char*, int>::~FunctionCaller()
 *fill*         0x40257d66        0x2 
 .text._ZN14FunctionCallerIPFvR9TcpClientbEvJS1_bEED2Ev
                0x40257d68        0x2 build/app_app.a(user_main_sming.o)
                0x40257d68                FunctionCaller<void (*)(TcpClient&, bool), void, TcpClient&, bool>::~FunctionCaller()
                0x40257d68                FunctionCaller<void (*)(TcpClient&, bool), void, TcpClient&, bool>::~FunctionCaller()
                0x40257d68                FunctionCaller<void (*)(TcpClient&, bool), void, TcpClient&, bool>::~FunctionCaller()
                0x40257d68                FunctionCaller<void (*)(TcpClient&, bool), void, TcpClient&, bool>::~FunctionCaller()
 *fill*         0x40257d6a        0x2 
 .text._ZN14FunctionCallerIPFvR11HttpRequestR12HttpResponseEvJS1_S3_EE6invokeES1_S3_
                0x40257d6c       0x17 build/app_app.a(user_main_sming.o)
                0x40257d6c                FunctionCaller<void (*)(HttpRequest&, HttpResponse&), void, HttpRequest&, HttpResponse&>::invoke(HttpRequest&, HttpResponse&)
                0x40257d6c                FunctionCaller<void (*)(HttpRequest&, HttpResponse&), void, HttpRequest&, HttpResponse&>::invoke(HttpRequest&, HttpResponse&)
 *fill*         0x40257d83        0x1 
 .text._ZN14FunctionCallerIPFvR13UdpConnectionPci9IPAddresstEvJS1_S2_iS3_tEE6invokeES1_S2_iS3_t
                0x40257d84       0x20 build/app_app.a(user_main_sming.o)
                0x40257d84                FunctionCaller<void (*)(UdpConnection&, char*, int, IPAddress, unsigned short), void, UdpConnection&, char*, int, IPAddress, unsigned short>::invoke(UdpConnection&, char*, int, IPAddress, unsigned short)
                0x40257d84                FunctionCaller<void (*)(UdpConnection&, char*, int, IPAddress, unsigned short), void, UdpConnection&, char*, int, IPAddress, unsigned short>::invoke(UdpConnection&, char*, int, IPAddress, unsigned short)
 .text._ZN14FunctionCallerIPFvvEvJEE6invokeEv
                0x40257da4       0x11 build/app_app.a(user_main_sming.o)
                0x40257da4                FunctionCaller<void (*)(), void>::invoke()
                0x40257da4                FunctionCaller<void (*)(), void>::invoke()
 *fill*         0x40257db5        0x3 
 .text._ZN14FunctionCallerIPFvP9TcpClientEvJS1_EE6invokeES1_
                0x40257db8       0x13 build/app_app.a(user_main_sming.o)
                0x40257db8                FunctionCaller<void (*)(TcpClient*), void, TcpClient*>::invoke(TcpClient*)
                0x40257db8                FunctionCaller<void (*)(TcpClient*), void, TcpClient*>::invoke(TcpClient*)
 *fill*         0x40257dcb        0x1 
 .text._ZN14FunctionCallerIPFbR9TcpClientPciEbJS1_S2_iEE6invokeES1_S2_i
                0x40257dcc       0x19 build/app_app.a(user_main_sming.o)
                0x40257dcc                FunctionCaller<bool (*)(TcpClient&, char*, int), bool, TcpClient&, char*, int>::invoke(TcpClient&, char*, int)
                0x40257dcc                FunctionCaller<bool (*)(TcpClient&, char*, int), bool, TcpClient&, char*, int>::invoke(TcpClient&, char*, int)
 *fill*         0x40257de5        0x3 
 .text._ZN14FunctionCallerIPFvR9TcpClientbEvJS1_bEE6invokeES1_b
                0x40257de8       0x18 build/app_app.a(user_main_sming.o)
                0x40257de8                FunctionCaller<void (*)(TcpClient&, bool), void, TcpClient&, bool>::invoke(TcpClient&, bool)
                0x40257de8                FunctionCaller<void (*)(TcpClient&, bool), void, TcpClient&, bool>::invoke(TcpClient&, bool)
 .text._ZNK6VectorI6StringE5countEv
                0x40257e00        0x4 build/app_app.a(user_main_sming.o)
                0x40257e00                Vector<String>::count() const
 *fill*         0x40257e04        0x0 
 *fill*         0x40257e04        0x0 
 *fill*         0x40257e04        0x0 
 *fill*         0x40257e04        0x0 
 *fill*         0x40257e04        0x0 
 *fill*         0x40257e04        0x0 
 *fill*         0x40257e04        0x0 
 *fill*         0x40257e04        0x0 
 *fill*         0x40257e04        0x0 
 *fill*         0x40257e04        0x0 
 *fill*         0x40257e04        0x0 
 *fill*         0x40257e04        0x0 
 *fill*         0x40257e04        0x0 
 *fill*         0x40257e04        0x0 
 *fill*         0x40257e04        0x0 
 *fill*         0x40257e04        0x0 
 *fill*         0x40257e04        0x0 
 *fill*         0x40257e04        0x0 
 *fill*         0x40257e04        0x0 
 *fill*         0x40257e04        0x0 
 *fill*         0x40257e04        0x0 
 *fill*         0x40257e04        0x0 
 *fill*         0x40257e04        0x0 
 *fill*         0x40257e04        0x0 
 *fill*         0x40257e04        0x0 
 *fill*         0x40257e04        0x0 
 *fill*         0x40257e04        0x0 
 *fill*         0x40257e04        0x0 
 *fill*         0x40257e04        0x0 
 *fill*         0x40257e04        0x0 
 .literal._Z10isInputPint
                0x40257e04        0x0 build/app_app.a(Digital.o)
 .literal._Z11digitalReadt
                0x40257e04        0x0 build/app_app.a(Digital.o)
 .literal._Z6pullupt
                0x40257e04        0x0 build/app_app.a(Digital.o)
 .literal._Z7pinModeth
                0x40257e04        0x0 build/app_app.a(Digital.o)
 .literal._Z8noPullupt
                0x40257e04        0x0 build/app_app.a(Digital.o)
 .literal._Z12digitalWriteth
                0x40257e04        0x0 build/app_app.a(Digital.o)
 .literal._Z7pulseInthm
                0x40257e04        0x0 build/app_app.a(Digital.o)
 *fill*         0x40257e04        0x0 
 *fill*         0x40257e04        0x0 
 *fill*         0x40257e04        0x0 
 *fill*         0x40257e04        0x0 
 *fill*         0x40257e04        0x0 
 *fill*         0x40257e04        0x0 
 .literal._ZN14HardwareSerial4peekEv
                0x40257e04        0x0 build/app_app.a(Temp_HardwareSerial.o)
 .literal._ZN14HardwareSerial5flushEv
                0x40257e04        0x0 build/app_app.a(Temp_HardwareSerial.o)
 .literal._ZN14HardwareSerial5writeEh
                0x40257e04        0x0 build/app_app.a(Temp_HardwareSerial.o)
 .literal._ZN14HardwareSerial5beginEj
                0x40257e04        0x0 build/app_app.a(Temp_HardwareSerial.o)
 .literal._ZN14HardwareSerial15readMemoryBlockEPci
                0x40257e04        0x0 build/app_app.a(Temp_HardwareSerial.o)
 .literal._ZN14HardwareSerial17systemDebugOutputEb
                0x40257e04        0x0 build/app_app.a(Temp_HardwareSerial.o)
 .literal._ZN14HardwareSerial11setCallbackE8DelegateIFvR6StreamctEEb
                0x40257e04        0x0 build/app_app.a(Temp_HardwareSerial.o)
 .literal._ZN14HardwareSerial13resetCallbackEv
                0x40257e04        0x0 build/app_app.a(Temp_HardwareSerial.o)
 .literal._ZN14HardwareSerialC2Ei
                0x40257e04        0x0 build/app_app.a(Temp_HardwareSerial.o)
 .literal._ZN14HardwareSerial17commandProcessingEb
                0x40257e04        0x0 build/app_app.a(Temp_HardwareSerial.o)
 .literal.startup._GLOBAL__sub_I__ZN14HardwareSerial10memberDataE
                0x40257e04        0x0 build/app_app.a(Temp_HardwareSerial.o)
 .literal.exit._GLOBAL__sub_D__ZN14HardwareSerial10memberDataE
                0x40257e04        0x0 build/app_app.a(Temp_HardwareSerial.o)
 .text._ZN14HardwareSerial4peekEv
                0x40257e04        0x2 build/app_app.a(Temp_HardwareSerial.o)
                0x40257e04                HardwareSerial::available()
                0x40257e04                HardwareSerial::read()
                0x40257e04                HardwareSerial::peek()
 *fill*         0x40257e06        0x2 
 .text._ZN14HardwareSerial5flushEv
                0x40257e08        0x2 build/app_app.a(Temp_HardwareSerial.o)
                0x40257e08                HardwareSerial::flush()
 *fill*         0x40257e0a        0x0 
 *fill*         0x40257e0a        0x2 
 .text._ZN14HardwareSerial5beginEj
                0x40257e0c        0x2 build/app_app.a(Temp_HardwareSerial.o)
                0x40257e0c                HardwareSerial::begin(unsigned int)
 *fill*         0x40257e0e        0x2 
 .text._ZN14HardwareSerial15readMemoryBlockEPci
                0x40257e10        0x2 build/app_app.a(Temp_HardwareSerial.o)
                0x40257e10                HardwareSerial::readMemoryBlock(char*, int)
 *fill*         0x40257e12        0x2 
 .text._ZN14HardwareSerial17systemDebugOutputEb
                0x40257e14        0x2 build/app_app.a(Temp_HardwareSerial.o)
                0x40257e14                HardwareSerial::systemDebugOutput(bool)
 *fill*         0x40257e16        0x0 
 *fill*         0x40257e16        0x0 
 *fill*         0x40257e16        0x2 
 .text._ZN14HardwareSerial17commandProcessingEb
                0x40257e18        0x2 build/app_app.a(Temp_HardwareSerial.o)
                0x40257e18                HardwareSerial::commandProcessing(bool)
 *fill*         0x40257e1a        0x0 
 *fill*         0x40257e1a        0x0 
 *fill*         0x40257e1a        0x2 
 .literal._ZN5TimerC2Ev
                0x40257e1c        0x0 build/app_app.a(Timer.o)
 .literal._ZN5TimerD2Ev
                0x40257e1c        0x0 build/app_app.a(Timer.o)
 .literal._ZN5Timer9isStartedEv
                0x40257e1c        0x0 build/app_app.a(Timer.o)
 .literal._ZN5Timer13getIntervalUsEv
                0x40257e1c        0x0 build/app_app.a(Timer.o)
 .literal._ZN5Timer13getIntervalMsEv
                0x40257e1c        0x0 build/app_app.a(Timer.o)
 .literal._ZN8DelegateIFvvEE4copyERKS1_
                0x40257e1c        0x0 build/app_app.a(Timer.o)
 *fill*         0x40257e1c        0x0 
 *fill*         0x40257e1c        0x0 
 .text._ZN5Timer9isStartedEv
                0x40257e1c        0x5 build/app_app.a(Timer.o)
                0x40257e1c                Timer::isStarted()
 *fill*         0x40257e21        0x0 
 *fill*         0x40257e21        0x3 
 .text._ZN8DelegateIFvvEE4copyERKS1_
                0x40257e24       0x3c build/app_app.a(Timer.o)
                0x40257e24                Delegate<void ()>::copy(Delegate<void ()> const&)
 .literal._ZN11WifiStationD2Ev
                0x40257e60        0x0 build/app_app.a(WifiStation.o)
 .literal._ZN11WifiStationD0Ev
                0x40257e60        0x0 build/app_app.a(WifiStation.o)
 .literal._ZN11WifiStationC2Ev
                0x40257e60        0x0 build/app_app.a(WifiStation.o)
 .literal._ZN11WifiStation6configEPcS0_
                0x40257e60        0x0 build/app_app.a(WifiStation.o)
 .literal.startup._GLOBAL__sub_I__ZN11WifiStationC2Ev
                0x40257e60        0x0 build/app_app.a(WifiStation.o)
 .literal.exit._GLOBAL__sub_D__ZN11WifiStationC2Ev
                0x40257e60        0x0 build/app_app.a(WifiStation.o)
 .text._ZN11WifiStationD2Ev
                0x40257e60        0x2 build/app_app.a(WifiStation.o)
                0x40257e60                WifiStation::~WifiStation()
                0x40257e60                WifiStation::~WifiStation()
 *fill*         0x40257e62        0x0 
 *fill*         0x40257e62        0x0 
 *fill*         0x40257e62        0x0 
 *fill*         0x40257e62        0x0 
 *fill*         0x40257e62        0x2 
 .text.exit._GLOBAL__sub_D__ZN11WifiStationC2Ev
                0x40257e64        0x2 build/app_app.a(WifiStation.o)
 *fill*         0x40257e66        0x2 
 .literal._ZNK6CQueue7IsValidEv
                0x40257e68        0x0 build/app_app.a(CQueue.o)
 .literal._ZN6CQueue6DetachEv
                0x40257e68        0x0 build/app_app.a(CQueue.o)
 .literal._ZN6CQueueC2Ev
                0x40257e68        0x0 build/app_app.a(CQueue.o)
 .literal._ZN6CQueue6CreateEmm
                0x40257e68        0x0 build/app_app.a(CQueue.o)
 .literal._ZN6CQueue6DeleteEv
                0x40257e68        0x0 build/app_app.a(CQueue.o)
 .literal._ZN6CQueueD2Ev
                0x40257e68        0x0 build/app_app.a(CQueue.o)
 .literal._ZN6CQueueD0Ev
                0x40257e68        0x0 build/app_app.a(CQueue.o)
 .literal._ZN6CQueue6AttachEPv
                0x40257e68        0x0 build/app_app.a(CQueue.o)
 .literal._ZN6CQueueC2EPv
                0x40257e68        0x0 build/app_app.a(CQueue.o)
 .text._ZNK6CQueue7IsValidEv
                0x40257e68        0xb build/app_app.a(CQueue.o)
                0x40257e68                CQueue::IsValid() const
 *fill*         0x40257e73        0x1 
 .text._ZN6CQueue6DetachEv
                0x40257e74        0xa build/app_app.a(CQueue.o)
                0x40257e74                CQueue::Detach()
 *fill*         0x40257e7e        0x0 
 *fill*         0x40257e7e        0x0 
 *fill*         0x40257e7e        0x0 
 *fill*         0x40257e7e        0x0 
 *fill*         0x40257e7e        0x0 
 *fill*         0x40257e7e        0x0 
 *fill*         0x40257e7e        0x0 
 *fill*         0x40257e7e        0x2 
 .literal._ZNK5CTask7IsValidEv
                0x40257e80        0x0 build/app_app.a(CTask.o)
 .literal._ZN5CTask6DetachEv
                0x40257e80        0x0 build/app_app.a(CTask.o)
 .literal._ZN5CTaskC2Ev
                0x40257e80        0x0 build/app_app.a(CTask.o)
 .literal._ZN5CTask6CreateEPFvPvEPKctS0_m
                0x40257e80        0x0 build/app_app.a(CTask.o)
 .literal._ZN5CTask16CreateRestrictedEP15xTASK_PARAMTERS
                0x40257e80        0x0 build/app_app.a(CTask.o)
 .literal._ZN5CTask6DeleteEv
                0x40257e80        0x0 build/app_app.a(CTask.o)
 .literal._ZN5CTaskD2Ev
                0x40257e80        0x0 build/app_app.a(CTask.o)
 .literal._ZN5CTaskD0Ev
                0x40257e80        0x0 build/app_app.a(CTask.o)
 .literal._ZN5CTask6AttachEPv
                0x40257e80        0x0 build/app_app.a(CTask.o)
 .literal._ZN5CTaskC2EPv
                0x40257e80        0x0 build/app_app.a(CTask.o)
 .text._ZNK5CTask7IsValidEv
                0x40257e80        0xb build/app_app.a(CTask.o)
                0x40257e80                CTask::IsValid() const
 *fill*         0x40257e8b        0x1 
 .text._ZN5CTask6DetachEv
                0x40257e8c        0xa build/app_app.a(CTask.o)
                0x40257e8c                CTask::Detach()
 *fill*         0x40257e96        0x0 
 *fill*         0x40257e96        0x0 
 *fill*         0x40257e96        0x2 
 .text._ZN5CTask16CreateRestrictedEP15xTASK_PARAMTERS
                0x40257e98        0x4 build/app_app.a(CTask.o)
                0x40257e98                CTask::CreateRestricted(xTASK_PARAMTERS*)
 *fill*         0x40257e9c        0x0 
 *fill*         0x40257e9c        0x0 
 *fill*         0x40257e9c        0x0 
 *fill*         0x40257e9c        0x0 
 *fill*         0x40257e9c        0x0 
 .literal._ZN9IPAddressC2Ev
                0x40257e9c        0x0 build/app_app.a(IPAddress.o)
 .literal._ZN9IPAddressC2Ehhhh
                0x40257e9c        0x0 build/app_app.a(IPAddress.o)
 .literal._ZN9IPAddressC2Ej
                0x40257e9c        0x0 build/app_app.a(IPAddress.o)
 .literal._ZN9IPAddressC2E7ip_addr
                0x40257e9c        0x0 build/app_app.a(IPAddress.o)
 .literal._ZN9IPAddressC2EPKh
                0x40257e9c        0x0 build/app_app.a(IPAddress.o)
 .literal._ZN9IPAddressC2E10ipX_addr_t
                0x40257e9c        0x0 build/app_app.a(IPAddress.o)
 .literal._ZN9IPAddress10fromStringERK6String
                0x40257e9c        0x0 build/app_app.a(IPAddress.o)
 .literal._ZN9IPAddressC2E6String
                0x40257e9c        0x0 build/app_app.a(IPAddress.o)
 .literal._ZN9IPAddressaSEPKh
                0x40257e9c        0x0 build/app_app.a(IPAddress.o)
 .literal._ZN9IPAddressaSEj
                0x40257e9c        0x0 build/app_app.a(IPAddress.o)
 .literal._ZN9IPAddressaSE6String
                0x40257e9c        0x0 build/app_app.a(IPAddress.o)
 .literal._ZN9IPAddresseqEPKh
                0x40257e9c        0x0 build/app_app.a(IPAddress.o)
 .literal._ZN9IPAddress8toStringEv
                0x40257e9c        0x0 build/app_app.a(IPAddress.o)
 .literal.startup._GLOBAL__sub_I__ZN9IPAddressC2Ev
                0x40257e9c        0x0 build/app_app.a(IPAddress.o)
 *fill*         0x40257e9c        0x0 
 .text._ZN9IPAddressC2Ehhhh
                0x40257e9c        0xe build/app_app.a(IPAddress.o)
                0x40257e9c                IPAddress::IPAddress(unsigned char, unsigned char, unsigned char, unsigned char)
                0x40257e9c                IPAddress::IPAddress(unsigned char, unsigned char, unsigned char, unsigned char)
 *fill*         0x40257eaa        0x2 
 .text._ZN9IPAddressC2Ej
                0x40257eac       0x1d build/app_app.a(IPAddress.o)
                0x40257eac                IPAddress::IPAddress(unsigned int)
                0x40257eac                IPAddress::IPAddress(unsigned int)
 *fill*         0x40257ec9        0x3 
 .text._ZN9IPAddressC2E7ip_addr
                0x40257ecc       0x1d build/app_app.a(IPAddress.o)
                0x40257ecc                IPAddress::IPAddress(ip_addr)
                0x40257ecc                IPAddress::IPAddress(ip_addr)
 *fill*         0x40257ee9        0x3 
 .text._ZN9IPAddressC2EPKh
                0x40257eec       0x1a build/app_app.a(IPAddress.o)
                0x40257eec                IPAddress::IPAddress(unsigned char const*)
                0x40257eec                IPAddress::IPAddress(unsigned char const*)
 *fill*         0x40257f06        0x2 
 .text._ZN9IPAddressC2E10ipX_addr_t
                0x40257f08       0x1d build/app_app.a(IPAddress.o)
                0x40257f08                IPAddress::IPAddress(ipX_addr_t)
                0x40257f08                IPAddress::IPAddress(ipX_addr_t)
 *fill*         0x40257f25        0x0 
 *fill*         0x40257f25        0x0 
 *fill*         0x40257f25        0x3 
 .text._ZN9IPAddressaSEPKh
                0x40257f28       0x1a build/app_app.a(IPAddress.o)
                0x40257f28                IPAddress::operator=(unsigned char const*)
 *fill*         0x40257f42        0x2 
 .text._ZN9IPAddressaSEj
                0x40257f44       0x1d build/app_app.a(IPAddress.o)
                0x40257f44                IPAddress::operator=(unsigned int)
 *fill*         0x40257f61        0x0 
 *fill*         0x40257f61        0x0 
 *fill*         0x40257f61        0x3 
 .text.startup._GLOBAL__sub_I__ZN9IPAddressC2Ev
                0x40257f64        0x2 build/app_app.a(IPAddress.o)
 *fill*         0x40257f66        0x2 
 .literal._ZN5Print5writeEPKhj
                0x40257f68        0x0 build/app_app.a(Print.o)
 .literal._ZN5Print5writeEPKc
                0x40257f68        0x0 build/app_app.a(Print.o)
 .literal._ZN5Print5printEc
                0x40257f68        0x0 build/app_app.a(Print.o)
 .literal._ZN5Print5printEPKc
                0x40257f68        0x0 build/app_app.a(Print.o)
 .literal._ZN5Print5printERK9Printable
                0x40257f68        0x0 build/app_app.a(Print.o)
 .literal._ZN5Print5printERK6String
                0x40257f68        0x0 build/app_app.a(Print.o)
 .literal._ZN5Print7printlnEv
                0x40257f68        0x0 build/app_app.a(Print.o)
 .literal._ZN5Print7printlnERK6String
                0x40257f68        0x0 build/app_app.a(Print.o)
 .literal._ZN5Print7printlnEc
                0x40257f68        0x0 build/app_app.a(Print.o)
 .literal._ZN5Print7printlnEPKc
                0x40257f68        0x0 build/app_app.a(Print.o)
 .literal._ZN5Print7printlnERK9Printable
                0x40257f68        0x0 build/app_app.a(Print.o)
 .literal._ZN5Print6printfEPKcz
                0x40257f68        0x0 build/app_app.a(Print.o)
 .literal._ZN5Print11printNumberEmh
                0x40257f68        0x0 build/app_app.a(Print.o)
 .literal._ZN5Print5printEmi
                0x40257f68        0x0 build/app_app.a(Print.o)
 .literal._ZN5Print5printEji
                0x40257f68        0x0 build/app_app.a(Print.o)
 .literal._ZN5Print7printlnEji
                0x40257f68        0x0 build/app_app.a(Print.o)
 .literal._ZN5Print5printEhi
                0x40257f68        0x0 build/app_app.a(Print.o)
 .literal._ZN5Print7printlnEhi
                0x40257f68        0x0 build/app_app.a(Print.o)
 .literal._ZN5Print7printlnEmi
                0x40257f68        0x0 build/app_app.a(Print.o)
 .literal._ZN5Print5printEli
                0x40257f68        0x0 build/app_app.a(Print.o)
 .literal._ZN5Print5printEii
                0x40257f68        0x0 build/app_app.a(Print.o)
 .literal._ZN5Print7printlnEii
                0x40257f68        0x0 build/app_app.a(Print.o)
 .literal._ZN5Print7printlnEli
                0x40257f68        0x0 build/app_app.a(Print.o)
 .literal._ZN5Print10printFloatEdh
                0x40257f68        0x0 build/app_app.a(Print.o)
 .literal._ZN5Print5printEdi
                0x40257f68        0x0 build/app_app.a(Print.o)
 .literal._ZN5Print7printlnEdi
                0x40257f68        0x0 build/app_app.a(Print.o)
 .text._ZN5Print5writeEPKhj
                0x40257f68       0x3d build/app_app.a(Print.o)
                0x40257f68                Print::write(unsigned char const*, unsigned int)
 *fill*         0x40257fa5        0x0 
 *fill*         0x40257fa5        0x3 
 .text._ZN5Print5printEc
                0x40257fa8       0x17 build/app_app.a(Print.o)
                0x40257fa8                Print::print(char)
 *fill*         0x40257fbf        0x0 
 *fill*         0x40257fbf        0x1 
 .text._ZN5Print5printERK9Printable
                0x40257fc0       0x19 build/app_app.a(Print.o)
                0x40257fc0                Print::print(Printable const&)
 *fill*         0x40257fd9        0x3 
 .text._ZN5Print5printERK6String
                0x40257fdc       0x18 build/app_app.a(Print.o)
                0x40257fdc                Print::print(String const&)
 *fill*         0x40257ff4        0x0 
 *fill*         0x40257ff4        0x0 
 *fill*         0x40257ff4        0x0 
 *fill*         0x40257ff4        0x0 
 *fill*         0x40257ff4        0x0 
 *fill*         0x40257ff4        0x0 
 *fill*         0x40257ff4        0x0 
 *fill*         0x40257ff4        0x0 
 *fill*         0x40257ff4        0x0 
 *fill*         0x40257ff4        0x0 
 *fill*         0x40257ff4        0x0 
 *fill*         0x40257ff4        0x0 
 *fill*         0x40257ff4        0x0 
 *fill*         0x40257ff4        0x0 
 *fill*         0x40257ff4        0x0 
 *fill*         0x40257ff4        0x0 
 *fill*         0x40257ff4        0x0 
 *fill*         0x40257ff4        0x0 
 .literal._ZN6StringD2Ev
                0x40257ff4        0x0 build/app_app.a(WString.o)
 .literal._ZN6String7reserveEj
                0x40257ff4        0x0 build/app_app.a(WString.o)
 .literal._ZN6String4copyEPKcj
                0x40257ff4        0x0 build/app_app.a(WString.o)
 .literal._ZN6StringC2Ec
                0x40257ff4        0x0 build/app_app.a(WString.o)
 .literal._ZN6StringC2Ehh
                0x40257ff4        0x0 build/app_app.a(WString.o)
 .literal._ZN6StringC2Eih
                0x40257ff4        0x0 build/app_app.a(WString.o)
 .literal._ZN6StringC2Ejh
                0x40257ff4        0x0 build/app_app.a(WString.o)
 .literal._ZN6StringC2Elh
                0x40257ff4        0x0 build/app_app.a(WString.o)
 .literal._ZN6StringC2Emh
                0x40257ff4        0x0 build/app_app.a(WString.o)
 .literal._ZN6StringC2Efh
                0x40257ff4        0x0 build/app_app.a(WString.o)
 .literal._ZN6StringC2Edh
                0x40257ff4        0x0 build/app_app.a(WString.o)
 .literal._ZN6String9setStringEPKci
                0x40257ff4        0x0 build/app_app.a(WString.o)
 .literal._ZN6String4moveERS_
                0x40257ff4        0x0 build/app_app.a(WString.o)
 .literal._ZN6StringaSEOS_
                0x40257ff4        0x0 build/app_app.a(WString.o)
 .literal._ZN6StringaSEO15StringSumHelper
                0x40257ff4        0x0 build/app_app.a(WString.o)
 .literal._ZN6String6concatERKS_
                0x40257ff4        0x0 build/app_app.a(WString.o)
 .literal._ZN6String6concatEPKc
                0x40257ff4        0x0 build/app_app.a(WString.o)
 .literal._ZN6String6concatEc
                0x40257ff4        0x0 build/app_app.a(WString.o)
 .literal._ZN6String6concatEh
                0x40257ff4        0x0 build/app_app.a(WString.o)
 .literal._ZN6String6concatEi
                0x40257ff4        0x0 build/app_app.a(WString.o)
 .literal._ZN6String6concatEj
                0x40257ff4        0x0 build/app_app.a(WString.o)
 .literal._ZN6String6concatEl
                0x40257ff4        0x0 build/app_app.a(WString.o)
 .literal._ZN6String6concatEm
                0x40257ff4        0x0 build/app_app.a(WString.o)
 .literal._ZN6String6concatEf
                0x40257ff4        0x0 build/app_app.a(WString.o)
 .literal._ZN6String6concatEd
                0x40257ff4        0x0 build/app_app.a(WString.o)
 .literal._ZplRK15StringSumHelperRK6String
                0x40257ff4        0x0 build/app_app.a(WString.o)
 .literal._ZplRK15StringSumHelperPKc
                0x40257ff4        0x0 build/app_app.a(WString.o)
 .literal._ZplRK15StringSumHelperc
                0x40257ff4        0x0 build/app_app.a(WString.o)
 .literal._ZplRK15StringSumHelperh
                0x40257ff4        0x0 build/app_app.a(WString.o)
 .literal._ZplRK15StringSumHelperi
                0x40257ff4        0x0 build/app_app.a(WString.o)
 .literal._ZplRK15StringSumHelperj
                0x40257ff4        0x0 build/app_app.a(WString.o)
 .literal._ZplRK15StringSumHelperl
                0x40257ff4        0x0 build/app_app.a(WString.o)
 .literal._ZplRK15StringSumHelperm
                0x40257ff4        0x0 build/app_app.a(WString.o)
 .literal._ZplRK15StringSumHelperf
                0x40257ff4        0x0 build/app_app.a(WString.o)
 .literal._ZplRK15StringSumHelperd
                0x40257ff4        0x0 build/app_app.a(WString.o)
 .literal._ZNK6StringltERKS_
                0x40257ff4        0x0 build/app_app.a(WString.o)
 .literal._ZNK6StringgtERKS_
                0x40257ff4        0x0 build/app_app.a(WString.o)
 .literal._ZNK6StringleERKS_
                0x40257ff4        0x0 build/app_app.a(WString.o)
 .literal._ZNK6StringgeERKS_
                0x40257ff4        0x0 build/app_app.a(WString.o)
 .literal._ZNK6String16equalsIgnoreCaseERKS_
                0x40257ff4        0x0 build/app_app.a(WString.o)
 .literal._ZNK6String10startsWithERKS_j
                0x40257ff4        0x0 build/app_app.a(WString.o)
 .literal._ZNK6String10startsWithERKS_
                0x40257ff4        0x0 build/app_app.a(WString.o)
 .literal._ZNK6String8endsWithERKS_
                0x40257ff4        0x0 build/app_app.a(WString.o)
 .literal._ZNK6String8getBytesEPhjj
                0x40257ff4        0x0 build/app_app.a(WString.o)
 .literal._ZNK6String7indexOfEcj
                0x40257ff4        0x0 build/app_app.a(WString.o)
 .literal._ZNK6String7indexOfERKS_j
                0x40257ff4        0x0 build/app_app.a(WString.o)
 .literal._ZNK6String11lastIndexOfEci
                0x40257ff4        0x0 build/app_app.a(WString.o)
 .literal._ZNK6String11lastIndexOfEc
                0x40257ff4        0x0 build/app_app.a(WString.o)
 .literal._ZNK6String11lastIndexOfERKS_i
                0x40257ff4        0x0 build/app_app.a(WString.o)
 .literal._ZNK6String11lastIndexOfERKS_
                0x40257ff4        0x0 build/app_app.a(WString.o)
 .literal._ZNK6String9substringEjj
                0x40257ff4        0x0 build/app_app.a(WString.o)
 .literal._ZN6String7replaceEcc
                0x40257ff4        0x0 build/app_app.a(WString.o)
 .literal._ZN6String7replaceERKS_S1_
                0x40257ff4        0x0 build/app_app.a(WString.o)
 .literal._ZN6String6removeEjj
                0x40257ff4        0x0 build/app_app.a(WString.o)
 .literal._ZN6String6removeEj
                0x40257ff4        0x0 build/app_app.a(WString.o)
 .literal._ZN6String11toLowerCaseEv
                0x40257ff4        0x0 build/app_app.a(WString.o)
 .literal._ZN6String11toUpperCaseEv
                0x40257ff4        0x0 build/app_app.a(WString.o)
 .literal._ZN6String4trimEv
                0x40257ff4        0x0 build/app_app.a(WString.o)
 .literal._ZNK6String5toIntEv
                0x40257ff4        0x0 build/app_app.a(WString.o)
 .literal._ZNK6String7toFloatEv
                0x40257ff4        0x0 build/app_app.a(WString.o)
 *fill*         0x40257ff4        0x0 
 *fill*         0x40257ff4        0x0 
 *fill*         0x40257ff4        0x0 
 *fill*         0x40257ff4        0x0 
 *fill*         0x40257ff4        0x0 
 *fill*         0x40257ff4        0x0 
 *fill*         0x40257ff4        0x0 
 *fill*         0x40257ff4        0x0 
 *fill*         0x40257ff4        0x0 
 *fill*         0x40257ff4        0x0 
 *fill*         0x40257ff4        0x0 
 *fill*         0x40257ff4        0x0 
 *fill*         0x40257ff4        0x0 
 *fill*         0x40257ff4        0x0 
 *fill*         0x40257ff4        0x0 
 *fill*         0x40257ff4        0x0 
 *fill*         0x40257ff4        0x0 
 *fill*         0x40257ff4        0x0 
 *fill*         0x40257ff4        0x0 
 *fill*         0x40257ff4        0x0 
 *fill*         0x40257ff4        0x0 
 *fill*         0x40257ff4        0x0 
 *fill*         0x40257ff4        0x0 
 *fill*         0x40257ff4        0x0 
 *fill*         0x40257ff4        0x0 
 *fill*         0x40257ff4        0x0 
 *fill*         0x40257ff4        0x0 
 *fill*         0x40257ff4        0x0 
 *fill*         0x40257ff4        0x0 
 *fill*         0x40257ff4        0x0 
 *fill*         0x40257ff4        0x0 
 *fill*         0x40257ff4        0x0 
 *fill*         0x40257ff4        0x0 
 *fill*         0x40257ff4        0x0 
 *fill*         0x40257ff4        0x0 
 *fill*         0x40257ff4        0x0 
 *fill*         0x40257ff4        0x0 
 *fill*         0x40257ff4        0x0 
 *fill*         0x40257ff4        0x0 
 *fill*         0x40257ff4        0x0 
 *fill*         0x40257ff4        0x0 
 *fill*         0x40257ff4        0x0 
 *fill*         0x40257ff4        0x0 
 *fill*         0x40257ff4        0x0 
 *fill*         0x40257ff4        0x0 
 .text._ZN6String7replaceEcc
                0x40257ff4       0x1c build/app_app.a(WString.o)
                0x40257ff4                String::replace(char, char)
 *fill*         0x40258010        0x0 
 *fill*         0x40258010        0x0 
 *fill*         0x40258010        0x0 
 *fill*         0x40258010        0x0 
 *fill*         0x40258010        0x0 
 *fill*         0x40258010        0x0 
 *fill*         0x40258010        0x0 
 *fill*         0x40258010        0x0 
 .literal._ZN12HttpResponseD2Ev
                0x40258010        0x0 build/app_app.a(HttpResponse.o)
 .literal._ZN12HttpResponseD0Ev
                0x40258010        0x0 build/app_app.a(HttpResponse.o)
 .literal._ZN11ContentTypeL16fromFullFileNameE6String
                0x40258010        0x0 build/app_app.a(HttpResponse.o)
 .literal._ZN12HttpResponseC2Ev
                0x40258010        0x0 build/app_app.a(HttpResponse.o)
 .literal._ZN12HttpResponse18switchingProtocolsEv
                0x40258010        0x0 build/app_app.a(HttpResponse.o)
 .literal._ZN12HttpResponse10badRequestEv
                0x40258010        0x0 build/app_app.a(HttpResponse.o)
 .literal._ZN12HttpResponse8notFoundEv
                0x40258010        0x0 build/app_app.a(HttpResponse.o)
 .literal._ZN12HttpResponse9forbiddenEv
                0x40258010        0x0 build/app_app.a(HttpResponse.o)
 .literal._ZN12HttpResponse21authorizationRequiredEv
                0x40258010        0x0 build/app_app.a(HttpResponse.o)
 .literal._ZN12HttpResponse13getStatusNameEv
                0x40258010        0x0 build/app_app.a(HttpResponse.o)
 .literal._ZN12HttpResponse13getStatusCodeEv
                0x40258010        0x0 build/app_app.a(HttpResponse.o)
 .literal._ZN12HttpResponse7hasBodyEv
                0x40258010        0x0 build/app_app.a(HttpResponse.o)
 .literal._ZN12HttpResponse10sendStringEPKc
                0x40258010        0x0 build/app_app.a(HttpResponse.o)
 .literal._ZN12HttpResponse10sendStringE6String
                0x40258010        0x0 build/app_app.a(HttpResponse.o)
 .literal._ZN12HttpResponse10sendHeaderER20HttpServerConnection
                0x40258010        0x0 build/app_app.a(HttpResponse.o)
 .literal._ZN12HttpResponse8sendBodyER20HttpServerConnection
                0x40258010        0x0 build/app_app.a(HttpResponse.o)
 .literal._ZNK7HashMapI6StringS0_E8containsES0_
                0x40258010        0x0 build/app_app.a(HttpResponse.o)
 .literal._ZN12HttpResponse9hasHeaderE6String
                0x40258010        0x0 build/app_app.a(HttpResponse.o)
 .literal._ZN7HashMapI6StringS0_E8allocateEi
                0x40258010        0x0 build/app_app.a(HttpResponse.o)
 .literal._ZN12HttpResponse9setHeaderE6StringS0_
                0x40258010        0x0 build/app_app.a(HttpResponse.o)
 .literal._ZN12HttpResponse8redirectE6String
                0x40258010        0x0 build/app_app.a(HttpResponse.o)
 .literal._ZN12HttpResponse14setContentTypeE6String
                0x40258010        0x0 build/app_app.a(HttpResponse.o)
 .literal._ZN12HttpResponse12sendTemplateEP18TemplateFileStream
                0x40258010        0x0 build/app_app.a(HttpResponse.o)
 .literal._ZN12HttpResponse14sendJsonObjectEP16JsonObjectStream
                0x40258010        0x0 build/app_app.a(HttpResponse.o)
 .literal._ZN12HttpResponse9setCookieE6StringS0_
                0x40258010        0x0 build/app_app.a(HttpResponse.o)
 .literal._ZN12HttpResponse8setCacheEib
                0x40258010        0x0 build/app_app.a(HttpResponse.o)
 .literal._ZN12HttpResponse25setAllowCrossDomainOriginE6String
                0x40258010        0x0 build/app_app.a(HttpResponse.o)
 .literal._ZN12HttpResponse8sendFileE6Stringb
                0x40258010        0x0 build/app_app.a(HttpResponse.o)
 .literal.startup._GLOBAL__sub_I__ZN12HttpResponseC2Ev
                0x40258010        0x0 build/app_app.a(HttpResponse.o)
 *fill*         0x40258010        0x0 
 *fill*         0x40258010        0x0 
 *fill*         0x40258010        0x0 
 *fill*         0x40258010        0x0 
 *fill*         0x40258010        0x0 
 *fill*         0x40258010        0x0 
 *fill*         0x40258010        0x0 
 *fill*         0x40258010        0x0 
 *fill*         0x40258010        0x0 
 .text._ZN12HttpResponse7hasBodyEv
                0x40258010        0xe build/app_app.a(HttpResponse.o)
                0x40258010                HttpResponse::hasBody()
 *fill*         0x4025801e        0x0 
 *fill*         0x4025801e        0x0 
 *fill*         0x4025801e        0x0 
 *fill*         0x4025801e        0x0 
 *fill*         0x4025801e        0x0 
 *fill*         0x4025801e        0x0 
 *fill*         0x4025801e        0x0 
 *fill*         0x4025801e        0x0 
 *fill*         0x4025801e        0x0 
 *fill*         0x4025801e        0x0 
 *fill*         0x4025801e        0x0 
 *fill*         0x4025801e        0x0 
 *fill*         0x4025801e        0x2 
 .literal._ZNK6VectorI9WebSocketE5countEv
                0x40258020        0x0 build/app_app.a(HttpServer.o)
 .literal._ZN12MethodCallerIM10HttpServerFvR20HttpServerConnectionEED5Ev
                0x40258020        0x0 build/app_app.a(HttpServer.o)
 .literal._ZN12MethodCallerIM10HttpServerFvR20HttpServerConnectionEE6invokeES2_
                0x40258020        0x0 build/app_app.a(HttpServer.o)
 .literal._ZN6VectorI9WebSocketEixEj
                0x40258020        0x0 build/app_app.a(HttpServer.o)
 .literal._ZNK6VectorI9WebSocketEixEj
                0x40258020        0x0 build/app_app.a(HttpServer.o)
 .literal._ZN6VectorI9WebSocketED5Ev
                0x40258020        0x0 build/app_app.a(HttpServer.o)
 .literal._ZN10HttpServer12createClientEP7tcp_pcb
                0x40258020        0x0 build/app_app.a(HttpServer.o)
 .literal._ZN10HttpServer13initWebSocketER20HttpServerConnectionR11HttpRequestR12HttpResponse
                0x40258020        0x0 build/app_app.a(HttpServer.o)
 .literal._ZN10HttpServer22enableHeaderProcessingE6String
                0x40258020        0x0 build/app_app.a(HttpServer.o)
 .literal._ZN10HttpServerC2Ev
                0x40258020        0x0 build/app_app.a(HttpServer.o)
 .literal._ZN10HttpServer25isHeaderProcessingEnabledE6String
                0x40258020        0x0 build/app_app.a(HttpServer.o)
 .literal._ZN10HttpServer26setWebSocketMessageHandlerE8DelegateIFvR9WebSocketRK6StringEE
                0x40258020        0x0 build/app_app.a(HttpServer.o)
 .literal._ZN10HttpServer25setWebSocketBinaryHandlerE8DelegateIFvR9WebSocketPhjEE
                0x40258020        0x0 build/app_app.a(HttpServer.o)
 .literal._ZN10HttpServer12getWebSocketER20HttpServerConnection
                0x40258020        0x0 build/app_app.a(HttpServer.o)
 .literal._ZN10HttpServer21processWebSocketFrameEP4pbufR20HttpServerConnection
                0x40258020        0x0 build/app_app.a(HttpServer.o)
 .literal._ZN10HttpServer15removeWebSocketER20HttpServerConnection
                0x40258020        0x0 build/app_app.a(HttpServer.o)
 .literal._ZN10HttpServer16onCloseWebSocketER20HttpServerConnection
                0x40258020        0x0 build/app_app.a(HttpServer.o)
 .literal._ZN10HttpServer16enableWebSocketsEb
                0x40258020        0x0 build/app_app.a(HttpServer.o)
 .literal._ZN10HttpServer17commandProcessingEb6String
                0x40258020        0x0 build/app_app.a(HttpServer.o)
 .literal._ZNK7HashMapI6String8DelegateIFvR11HttpRequestR12HttpResponseEEE8containsES0_
                0x40258020        0x0 build/app_app.a(HttpServer.o)
 .literal._ZN7HashMapI6String8DelegateIFvR11HttpRequestR12HttpResponseEEE5clearEv
                0x40258020        0x0 build/app_app.a(HttpServer.o)
 .literal._ZN10HttpServerD2Ev
                0x40258020        0x0 build/app_app.a(HttpServer.o)
 .literal._ZN10HttpServerD0Ev
                0x40258020        0x0 build/app_app.a(HttpServer.o)
 .literal._ZN7HashMapI6String8DelegateIFvR11HttpRequestR12HttpResponseEEE8allocateEi
                0x40258020        0x0 build/app_app.a(HttpServer.o)
 .literal._ZN8DelegateIFvR11HttpRequestR12HttpResponseEE4copyERKS5_
                0x40258020        0x0 build/app_app.a(HttpServer.o)
 .literal._ZN10HttpServer17setDefaultHandlerE8DelegateIFvR11HttpRequestR12HttpResponseEE
                0x40258020        0x0 build/app_app.a(HttpServer.o)
 .literal._ZN7HashMapI6String8DelegateIFvR11HttpRequestR12HttpResponseEEEixES0_
                0x40258020        0x0 build/app_app.a(HttpServer.o)
 .literal._ZN10HttpServer14processRequestER20HttpServerConnectionR11HttpRequestR12HttpResponse
                0x40258020        0x0 build/app_app.a(HttpServer.o)
 .literal._ZN10HttpServer7addPathE6String8DelegateIFvR11HttpRequestR12HttpResponseEE
                0x40258020        0x0 build/app_app.a(HttpServer.o)
 .literal._ZN8DelegateIFvR9WebSocketEE4copyERKS3_
                0x40258020        0x0 build/app_app.a(HttpServer.o)
 .literal._ZN10HttpServer29setWebSocketConnectionHandlerE8DelegateIFvR9WebSocketEE
                0x40258020        0x0 build/app_app.a(HttpServer.o)
 .literal._ZN10HttpServer32setWebSocketDisconnectionHandlerE8DelegateIFvR9WebSocketEE
                0x40258020        0x0 build/app_app.a(HttpServer.o)
 .literal.startup._GLOBAL__sub_I__ZN10HttpServerC2Ev
                0x40258020        0x0 build/app_app.a(HttpServer.o)
 .text._ZNK6VectorI9WebSocketE5countEv
                0x40258020        0x4 build/app_app.a(HttpServer.o)
                0x40258020                Vector<WebSocket>::count() const
 .text._ZN12MethodCallerIM10HttpServerFvR20HttpServerConnectionEED2Ev
                0x40258024        0x2 build/app_app.a(HttpServer.o)
                0x40258024                MethodCaller<void (HttpServer::*)(HttpServerConnection&)>::~MethodCaller()
                0x40258024                MethodCaller<void (HttpServer::*)(HttpServerConnection&)>::~MethodCaller()
 *fill*         0x40258026        0x2 
 .text._ZN12MethodCallerIM10HttpServerFvR20HttpServerConnectionEE6invokeES2_
                0x40258028       0x24 build/app_app.a(HttpServer.o)
                0x40258028                MethodCaller<void (HttpServer::*)(HttpServerConnection&)>::invoke(HttpServerConnection&)
 *fill*         0x4025804c        0x0 
 *fill*         0x4025804c        0x0 
 *fill*         0x4025804c        0x0 
 *fill*         0x4025804c        0x0 
 *fill*         0x4025804c        0x0 
 *fill*         0x4025804c        0x0 
 *fill*         0x4025804c        0x0 
 *fill*         0x4025804c        0x0 
 *fill*         0x4025804c        0x0 
 *fill*         0x4025804c        0x0 
 .text._ZN10HttpServer26setWebSocketMessageHandlerE8DelegateIFvR9WebSocketRK6StringEE
                0x4025804c       0x3f build/app_app.a(HttpServer.o)
                0x4025804c                HttpServer::setWebSocketMessageHandler(Delegate<void (WebSocket&, String const&)>)
 *fill*         0x4025808b        0x1 
 .text._ZN10HttpServer25setWebSocketBinaryHandlerE8DelegateIFvR9WebSocketPhjEE
                0x4025808c       0x3f build/app_app.a(HttpServer.o)
                0x4025808c                HttpServer::setWebSocketBinaryHandler(Delegate<void (WebSocket&, unsigned char*, unsigned int)>)
 *fill*         0x402580cb        0x0 
 *fill*         0x402580cb        0x0 
 *fill*         0x402580cb        0x0 
 *fill*         0x402580cb        0x0 
 *fill*         0x402580cb        0x0 
 *fill*         0x402580cb        0x0 
 *fill*         0x402580cb        0x0 
 *fill*         0x402580cb        0x0 
 *fill*         0x402580cb        0x0 
 *fill*         0x402580cb        0x0 
 *fill*         0x402580cb        0x0 
 *fill*         0x402580cb        0x1 
 .text._ZN8DelegateIFvR11HttpRequestR12HttpResponseEE4copyERKS5_
                0x402580cc       0x3c build/app_app.a(HttpServer.o)
                0x402580cc                Delegate<void (HttpRequest&, HttpResponse&)>::copy(Delegate<void (HttpRequest&, HttpResponse&)> const&)
 *fill*         0x40258108        0x0 
 *fill*         0x40258108        0x0 
 *fill*         0x40258108        0x0 
 *fill*         0x40258108        0x0 
 .text._ZN8DelegateIFvR9WebSocketEE4copyERKS3_
                0x40258108       0x3c build/app_app.a(HttpServer.o)
                0x40258108                Delegate<void (WebSocket&)>::copy(Delegate<void (WebSocket&)> const&)
 *fill*         0x40258144        0x0 
 *fill*         0x40258144        0x0 
 *fill*         0x40258144        0x0 
 .literal._ZN20HttpServerConnection13beginSendDataEv
                0x40258144        0x0 build/app_app.a(HttpServerConnection.o)
 .literal._ZN20HttpServerConnection9sendErrorEPKc
                0x40258144        0x0 build/app_app.a(HttpServerConnection.o)
 .literal._ZN20HttpServerConnectionC2EP10HttpServerP7tcp_pcb
                0x40258144        0x0 build/app_app.a(HttpServerConnection.o)
 .literal._ZN20HttpServerConnection23setDisconnectionHandlerE8DelegateIFvRS_EE
                0x40258144        0x0 build/app_app.a(HttpServerConnection.o)
 .literal._ZN8DelegateIFvR20HttpServerConnectionEEaSEOS3_
                0x40258144        0x0 build/app_app.a(HttpServerConnection.o)
 .literal.startup._GLOBAL__sub_I__ZN20HttpServerConnectionC2EP10HttpServerP7tcp_pcb
                0x40258144        0x0 build/app_app.a(HttpServerConnection.o)
 .literal._ZN20HttpServerConnectionD2Ev
                0x40258144        0x0 build/app_app.a(HttpServerConnection.o)
 .literal._ZN20HttpServerConnectionD0Ev
                0x40258144        0x0 build/app_app.a(HttpServerConnection.o)
 .literal._ZN20HttpServerConnection9onReceiveEP4pbuf
                0x40258144        0x0 build/app_app.a(HttpServerConnection.o)
 .literal._ZN20HttpServerConnection17onReadyToSendDataE18TcpConnectionEvent
                0x40258144        0x0 build/app_app.a(HttpServerConnection.o)
 .literal._ZN20HttpServerConnection5closeEv
                0x40258144        0x0 build/app_app.a(HttpServerConnection.o)
 .literal._ZN20HttpServerConnection7onErrorEa
                0x40258144        0x0 build/app_app.a(HttpServerConnection.o)
 *fill*         0x40258144        0x0 
 *fill*         0x40258144        0x0 
 *fill*         0x40258144        0x0 
 .text._ZN20HttpServerConnection23setDisconnectionHandlerE8DelegateIFvRS_EE
                0x40258144       0x3f build/app_app.a(HttpServerConnection.o)
                0x40258144                HttpServerConnection::setDisconnectionHandler(Delegate<void (HttpServerConnection&)>)
 *fill*         0x40258183        0x1 
 .text._ZN8DelegateIFvR20HttpServerConnectionEEaSEOS3_
                0x40258184       0x39 build/app_app.a(HttpServerConnection.o)
                0x40258184                Delegate<void (HttpServerConnection&)>::operator=(Delegate<void (HttpServerConnection&)>&&)
 *fill*         0x402581bd        0x0 
 *fill*         0x402581bd        0x0 
 *fill*         0x402581bd        0x0 
 *fill*         0x402581bd        0x0 
 *fill*         0x402581bd        0x0 
 *fill*         0x402581bd        0x0 
 *fill*         0x402581bd        0x0 
 *fill*         0x402581bd        0x3 
 .literal._ZN9TcpClient10onFinishedE14TcpClientState
                0x402581c0        0x0 build/app_app.a(TcpClient.o)
 .literal._ZN9TcpClientD2Ev
                0x402581c0        0x0 build/app_app.a(TcpClient.o)
 .literal._ZN9TcpClientD0Ev
                0x402581c0        0x0 build/app_app.a(TcpClient.o)
 .literal._ZN9TcpClientC2Eb
                0x402581c0        0x0 build/app_app.a(TcpClient.o)
 .literal._ZN9TcpClient4sendEPKchb
                0x402581c0        0x0 build/app_app.a(TcpClient.o)
 .literal._ZN9TcpClient10sendStringE6Stringb
                0x402581c0        0x0 build/app_app.a(TcpClient.o)
 .literal._ZN9TcpClient13pushAsyncPartEv
                0x402581c0        0x0 build/app_app.a(TcpClient.o)
 .literal._ZN8DelegateIFvR9TcpClientbEE4copyERKS3_
                0x402581c0        0x0 build/app_app.a(TcpClient.o)
 .literal._ZN8DelegateIFbR9TcpClientPciEE4copyERKS4_
                0x402581c0        0x0 build/app_app.a(TcpClient.o)
 .literal._ZN9TcpClientC2EP7tcp_pcb8DelegateIFbRS_PciEES2_IFvS3_bEE
                0x402581c0        0x0 build/app_app.a(TcpClient.o)
 .literal._ZN9TcpClientC2E8DelegateIFvRS_bEES0_IFbS1_PciEE
                0x402581c0        0x0 build/app_app.a(TcpClient.o)
 .literal._ZN9TcpClientC2E8DelegateIFbRS_PciEE
                0x402581c0        0x0 build/app_app.a(TcpClient.o)
 .literal._ZN9TcpClientC2E8DelegateIFvRS_bEES0_IFvS1_18TcpConnectionEventEES0_IFbS1_PciEE
                0x402581c0        0x0 build/app_app.a(TcpClient.o)
 .literal.startup._GLOBAL__sub_I__ZN9TcpClientC2EP7tcp_pcb8DelegateIFbRS_PciEES2_IFvS3_bEE
                0x402581c0        0x0 build/app_app.a(TcpClient.o)
 .literal._ZN9TcpClient7connectE6Stringi
                0x402581c0        0x0 build/app_app.a(TcpClient.o)
 .literal._ZN9TcpClient7connectE9IPAddresst
                0x402581c0        0x0 build/app_app.a(TcpClient.o)
 .literal._ZN9TcpClient11onConnectedEa
                0x402581c0        0x0 build/app_app.a(TcpClient.o)
 .literal._ZN9TcpClient9onReceiveEP4pbuf
                0x402581c0        0x0 build/app_app.a(TcpClient.o)
 .literal._ZN9TcpClient17onReadyToSendDataE18TcpConnectionEvent
                0x402581c0        0x0 build/app_app.a(TcpClient.o)
 .literal._ZN9TcpClient5closeEv
                0x402581c0        0x0 build/app_app.a(TcpClient.o)
 .literal._ZN9TcpClient6onSentEt
                0x402581c0        0x0 build/app_app.a(TcpClient.o)
 .literal._ZN9TcpClient7onErrorEa
                0x402581c0        0x0 build/app_app.a(TcpClient.o)
 .text._ZN9TcpClient10onFinishedE14TcpClientState
                0x402581c0       0x3f build/app_app.a(TcpClient.o)
                0x402581c0                TcpClient::onFinished(TcpClientState)
 *fill*         0x402581ff        0x0 
 *fill*         0x402581ff        0x0 
 *fill*         0x402581ff        0x0 
 *fill*         0x402581ff        0x0 
 *fill*         0x402581ff        0x0 
 *fill*         0x402581ff        0x1 
 .text._ZN8DelegateIFvR9TcpClientbEE4copyERKS3_
                0x40258200       0x3c build/app_app.a(TcpClient.o)
                0x40258200                Delegate<void (TcpClient&, bool)>::copy(Delegate<void (TcpClient&, bool)> const&)
 .text._ZN8DelegateIFbR9TcpClientPciEE4copyERKS4_
                0x4025823c       0x3c build/app_app.a(TcpClient.o)
                0x4025823c                Delegate<bool (TcpClient&, char*, int)>::copy(Delegate<bool (TcpClient&, char*, int)> const&)
 *fill*         0x40258278        0x0 
 *fill*         0x40258278        0x0 
 *fill*         0x40258278        0x0 
 *fill*         0x40258278        0x0 
 *fill*         0x40258278        0x0 
 *fill*         0x40258278        0x0 
 *fill*         0x40258278        0x0 
 *fill*         0x40258278        0x0 
 *fill*         0x40258278        0x0 
 *fill*         0x40258278        0x0 
 *fill*         0x40258278        0x0 
 *fill*         0x40258278        0x0 
 .literal._ZN13TcpConnection7onErrorEa
                0x40258278        0x0 build/app_app.a(TcpConnection.o)
 .literal._ZN13TcpConnection17onReadyToSendDataE18TcpConnectionEvent
                0x40258278        0x0 build/app_app.a(TcpConnection.o)
 .literal._ZN13TcpConnection5writeEPKcih
                0x40258278        0x0 build/app_app.a(TcpConnection.o)
 .literal._ZN13TcpConnection5closeEv
                0x40258278        0x0 build/app_app.a(TcpConnection.o)
 .literal._ZN13TcpConnectionD2Ev
                0x40258278        0x0 build/app_app.a(TcpConnection.o)
 .literal._ZN13TcpConnectionD0Ev
                0x40258278        0x0 build/app_app.a(TcpConnection.o)
 .literal._ZN13TcpConnection6onPollEv
                0x40258278        0x0 build/app_app.a(TcpConnection.o)
 .literal._ZN13TcpConnection6onSentEt
                0x40258278        0x0 build/app_app.a(TcpConnection.o)
 .literal._ZN13TcpConnection9onReceiveEP4pbuf
                0x40258278        0x0 build/app_app.a(TcpConnection.o)
 .literal._ZN13TcpConnection11onConnectedEa
                0x40258278        0x0 build/app_app.a(TcpConnection.o)
 .literal._ZN13TcpConnection13checkSelfFreeEv
                0x40258278        0x0 build/app_app.a(TcpConnection.o)
 .literal._ZN13TcpConnection17staticOnConnectedEPvP7tcp_pcba
                0x40258278        0x0 build/app_app.a(TcpConnection.o)
 .literal._ZN13TcpConnection12staticOnSentEPvP7tcp_pcbt
                0x40258278        0x0 build/app_app.a(TcpConnection.o)
 .literal._ZN13TcpConnection13staticOnErrorEPva
                0x40258278        0x0 build/app_app.a(TcpConnection.o)
 .literal._ZN13TcpConnection10setTimeOutEt
                0x40258278        0x0 build/app_app.a(TcpConnection.o)
 .literal._ZN13TcpConnection11writeStringEPKch
                0x40258278        0x0 build/app_app.a(TcpConnection.o)
 .literal._ZN13TcpConnection11writeStringE6Stringh
                0x40258278        0x0 build/app_app.a(TcpConnection.o)
 .literal._ZN13TcpConnection10initializeEP7tcp_pcb
                0x40258278        0x0 build/app_app.a(TcpConnection.o)
 .literal._ZN13TcpConnectionC2Eb
                0x40258278        0x0 build/app_app.a(TcpConnection.o)
 .literal._ZN13TcpConnectionC2EP7tcp_pcbb
                0x40258278        0x0 build/app_app.a(TcpConnection.o)
 .literal._ZN13TcpConnection18closeTcpConnectionEP7tcp_pcb
                0x40258278        0x0 build/app_app.a(TcpConnection.o)
 .literal._ZN13TcpConnection15staticOnReceiveEPvP7tcp_pcbP4pbufa
                0x40258278        0x0 build/app_app.a(TcpConnection.o)
 .literal._ZN13TcpConnection12staticOnPollEPvP7tcp_pcb
                0x40258278        0x0 build/app_app.a(TcpConnection.o)
 .literal._ZN13TcpConnection5flushEv
                0x40258278        0x0 build/app_app.a(TcpConnection.o)
 .literal._ZN13TcpConnection5writeEP17IDataSourceStream
                0x40258278        0x0 build/app_app.a(TcpConnection.o)
 .literal._ZN13TcpConnection18internalTcpConnectE9IPAddresst
                0x40258278        0x0 build/app_app.a(TcpConnection.o)
 .literal._ZN13TcpConnection7connectE6Stringi
                0x40258278        0x0 build/app_app.a(TcpConnection.o)
 .literal._ZN13TcpConnection7connectE9IPAddresst
                0x40258278        0x0 build/app_app.a(TcpConnection.o)
 .literal._ZN13TcpConnection17staticDnsResponseEPKcP7ip_addrPv
                0x40258278        0x0 build/app_app.a(TcpConnection.o)
 .literal.startup._GLOBAL__sub_I__ZN13TcpConnectionC2Eb
                0x40258278        0x0 build/app_app.a(TcpConnection.o)
 *fill*         0x40258278        0x0 
 *fill*         0x40258278        0x0 
 *fill*         0x40258278        0x0 
 *fill*         0x40258278        0x0 
 *fill*         0x40258278        0x0 
 *fill*         0x40258278        0x0 
 *fill*         0x40258278        0x0 
 .text._ZN13TcpConnection13checkSelfFreeEv
                0x40258278       0x1c build/app_app.a(TcpConnection.o)
                0x40258278                TcpConnection::checkSelfFree()
 *fill*         0x40258294        0x0 
 *fill*         0x40258294        0x0 
 *fill*         0x40258294        0x0 
 *fill*         0x40258294        0x0 
 *fill*         0x40258294        0x0 
 *fill*         0x40258294        0x0 
 *fill*         0x40258294        0x0 
 *fill*         0x40258294        0x0 
 *fill*         0x40258294        0x0 
 *fill*         0x40258294        0x0 
 *fill*         0x40258294        0x0 
 *fill*         0x40258294        0x0 
 *fill*         0x40258294        0x0 
 *fill*         0x40258294        0x0 
 *fill*         0x40258294        0x0 
 *fill*         0x40258294        0x0 
 *fill*         0x40258294        0x0 
 .literal._ZN12MethodCallerIM9TcpServerFvR9TcpClientbEED5Ev
                0x40258294        0x0 build/app_app.a(TcpServer.o)
 .literal._ZN12MethodCallerIM9TcpServerFbR9TcpClientPciEED5Ev
                0x40258294        0x0 build/app_app.a(TcpServer.o)
 .literal._ZN12MethodCallerIM9TcpServerFvR9TcpClientbEE6invokeES2_b
                0x40258294        0x0 build/app_app.a(TcpServer.o)
 .literal._ZN12MethodCallerIM9TcpServerFbR9TcpClientPciEE6invokeES2_S3_i
                0x40258294        0x0 build/app_app.a(TcpServer.o)
 .literal._ZN9TcpServerD2Ev
                0x40258294        0x0 build/app_app.a(TcpServer.o)
 .literal._ZN9TcpServerD0Ev
                0x40258294        0x0 build/app_app.a(TcpServer.o)
 .literal._ZN9TcpServer12createClientEP7tcp_pcb
                0x40258294        0x0 build/app_app.a(TcpServer.o)
 .literal._ZN9TcpServer12staticAcceptEPvP7tcp_pcba
                0x40258294        0x0 build/app_app.a(TcpServer.o)
 .literal._ZN13TcpConnection11getRemoteIpEv$isra$3
                0x40258294        0x0 build/app_app.a(TcpServer.o)
 .literal._ZN9TcpServer8onClientEP9TcpClient
                0x40258294        0x0 build/app_app.a(TcpServer.o)
 .literal._ZN9TcpServer16onClientCompleteER9TcpClientb
                0x40258294        0x0 build/app_app.a(TcpServer.o)
 .literal._ZN9TcpServer15onClientReceiveER9TcpClientPci
                0x40258294        0x0 build/app_app.a(TcpServer.o)
 .literal._ZN9TcpServer6listenEi
                0x40258294        0x0 build/app_app.a(TcpServer.o)
 .literal._ZN9TcpServerC2Ev
                0x40258294        0x0 build/app_app.a(TcpServer.o)
 .literal._Z8list_memv
                0x40258294        0x0 build/app_app.a(TcpServer.o)
 .literal._ZN9TcpServer8onAcceptEP7tcp_pcba
                0x40258294        0x0 build/app_app.a(TcpServer.o)
 .literal._ZN9TcpServer10setTimeOutEt
                0x40258294        0x0 build/app_app.a(TcpServer.o)
 .literal._ZN9TcpServerC2E8DelegateIFbR9TcpClientPciEE
                0x40258294        0x0 build/app_app.a(TcpServer.o)
 .literal._ZN9TcpServerC2E8DelegateIFvP9TcpClientEES0_IFbRS1_PciEES0_IFvS5_bEE
                0x40258294        0x0 build/app_app.a(TcpServer.o)
 .literal._ZN9TcpServerC2E8DelegateIFbR9TcpClientPciEES0_IFvS2_bEE
                0x40258294        0x0 build/app_app.a(TcpServer.o)
 .literal.startup._GLOBAL__sub_I__ZN9TcpServer16totalConnectionsE
                0x40258294        0x0 build/app_app.a(TcpServer.o)
 .text._ZN12MethodCallerIM9TcpServerFvR9TcpClientbEED2Ev
                0x40258294        0x2 build/app_app.a(TcpServer.o)
                0x40258294                MethodCaller<void (TcpServer::*)(TcpClient&, bool)>::~MethodCaller()
                0x40258294                MethodCaller<void (TcpServer::*)(TcpClient&, bool)>::~MethodCaller()
 *fill*         0x40258296        0x2 
 .text._ZN12MethodCallerIM9TcpServerFbR9TcpClientPciEED2Ev
                0x40258298        0x2 build/app_app.a(TcpServer.o)
                0x40258298                MethodCaller<bool (TcpServer::*)(TcpClient&, char*, int)>::~MethodCaller()
                0x40258298                MethodCaller<bool (TcpServer::*)(TcpClient&, char*, int)>::~MethodCaller()
 *fill*         0x4025829a        0x2 
 .text._ZN12MethodCallerIM9TcpServerFvR9TcpClientbEE6invokeES2_b
                0x4025829c       0x28 build/app_app.a(TcpServer.o)
                0x4025829c                MethodCaller<void (TcpServer::*)(TcpClient&, bool)>::invoke(TcpClient&, bool)
 .text._ZN12MethodCallerIM9TcpServerFbR9TcpClientPciEE6invokeES2_S3_i
                0x402582c4       0x24 build/app_app.a(TcpServer.o)
                0x402582c4                MethodCaller<bool (TcpServer::*)(TcpClient&, char*, int)>::invoke(TcpClient&, char*, int)
 *fill*         0x402582e8        0x0 
 *fill*         0x402582e8        0x0 
 *fill*         0x402582e8        0x0 
 *fill*         0x402582e8        0x0 
 *fill*         0x402582e8        0x0 
 *fill*         0x402582e8        0x0 
 *fill*         0x402582e8        0x0 
 *fill*         0x402582e8        0x0 
 *fill*         0x402582e8        0x0 
 *fill*         0x402582e8        0x0 
 *fill*         0x402582e8        0x0 
 *fill*         0x402582e8        0x0 
 *fill*         0x402582e8        0x0 
 *fill*         0x402582e8        0x0 
 *fill*         0x402582e8        0x0 
 *fill*         0x402582e8        0x0 
 *fill*         0x402582e8        0x0 
 .literal._ZN12TelnetServerD2Ev
                0x402582e8        0x0 build/app_app.a(TelnetServer.o)
 .literal._ZN12TelnetServerD0Ev
                0x402582e8        0x0 build/app_app.a(TelnetServer.o)
 .literal._ZN13TcpConnection11getRemoteIpEv$isra$1
                0x402582e8        0x0 build/app_app.a(TelnetServer.o)
 .literal._ZN12TelnetServer15onClientReceiveER9TcpClientPci
                0x402582e8        0x0 build/app_app.a(TelnetServer.o)
 .literal._ZN12TelnetServerC2Ev
                0x402582e8        0x0 build/app_app.a(TelnetServer.o)
 .literal._ZN12TelnetServer11enableDebugEb
                0x402582e8        0x0 build/app_app.a(TelnetServer.o)
 .literal._ZN12TelnetServer13enableCommandEb
                0x402582e8        0x0 build/app_app.a(TelnetServer.o)
 .literal._ZN12TelnetServer6wrcharEc
                0x402582e8        0x0 build/app_app.a(TelnetServer.o)
 .literal.startup._GLOBAL__sub_I__ZN12TelnetServerC2Ev
                0x402582e8        0x0 build/app_app.a(TelnetServer.o)
 .literal._ZN12TelnetServer8onClientEP9TcpClient
                0x402582e8        0x0 build/app_app.a(TelnetServer.o)
 .literal._ZN12TelnetServer16onClientCompleteER9TcpClientb
                0x402582e8        0x0 build/app_app.a(TelnetServer.o)
 *fill*         0x402582e8        0x0 
 *fill*         0x402582e8        0x0 
 *fill*         0x402582e8        0x0 
 *fill*         0x402582e8        0x0 
 *fill*         0x402582e8        0x0 
 .text._ZN12TelnetServer11enableDebugEb
                0x402582e8        0x5 build/app_app.a(TelnetServer.o)
                0x402582e8                TelnetServer::enableDebug(bool)
 *fill*         0x402582ed        0x0 
 *fill*         0x402582ed        0x3 
 .text._ZN12TelnetServer6wrcharEc
                0x402582f0       0x1f build/app_app.a(TelnetServer.o)
                0x402582f0                TelnetServer::wrchar(char)
 *fill*         0x4025830f        0x0 
 *fill*         0x4025830f        0x0 
 *fill*         0x4025830f        0x0 
 *fill*         0x4025830f        0x1 
 .literal._ZN13UdpConnection5closeEv
                0x40258310        0x0 build/app_app.a(UdpConnection.o)
 .literal._ZN13UdpConnectionD2Ev
                0x40258310        0x0 build/app_app.a(UdpConnection.o)
 .literal._ZN13UdpConnectionD0Ev
                0x40258310        0x0 build/app_app.a(UdpConnection.o)
 .literal._ZN13UdpConnection4sendEPKci
                0x40258310        0x0 build/app_app.a(UdpConnection.o)
 .literal._ZN13UdpConnection6sendToE9IPAddresstPKci
                0x40258310        0x0 build/app_app.a(UdpConnection.o)
 .literal._ZN13UdpConnection9onReceiveEP4pbuf9IPAddresst
                0x40258310        0x0 build/app_app.a(UdpConnection.o)
 .literal._ZN13UdpConnection15staticOnReceiveEPvP7udp_pcbP4pbufP7ip_addrt
                0x40258310        0x0 build/app_app.a(UdpConnection.o)
 .literal._ZN13UdpConnection10initializeEP7udp_pcb
                0x40258310        0x0 build/app_app.a(UdpConnection.o)
 .literal._ZN13UdpConnection6listenEi
                0x40258310        0x0 build/app_app.a(UdpConnection.o)
 .literal._ZN13UdpConnection7connectE9IPAddresst
                0x40258310        0x0 build/app_app.a(UdpConnection.o)
 .literal._ZN13UdpConnectionC2Ev
                0x40258310        0x0 build/app_app.a(UdpConnection.o)
 .literal._ZN13UdpConnectionC2E8DelegateIFvRS_Pci9IPAddresstEE
                0x40258310        0x0 build/app_app.a(UdpConnection.o)
 .literal._ZN13UdpConnection10sendStringEPKc
                0x40258310        0x0 build/app_app.a(UdpConnection.o)
 .literal._ZN13UdpConnection10sendStringE6String
                0x40258310        0x0 build/app_app.a(UdpConnection.o)
 .literal._ZN13UdpConnection12sendStringToE9IPAddresstPKc
                0x40258310        0x0 build/app_app.a(UdpConnection.o)
 .literal._ZN13UdpConnection12sendStringToE9IPAddresst6String
                0x40258310        0x0 build/app_app.a(UdpConnection.o)
 .literal.startup._GLOBAL__sub_I__ZN13UdpConnectionC2Ev
                0x40258310        0x0 build/app_app.a(UdpConnection.o)
 *fill*         0x40258310        0x0 
 *fill*         0x40258310        0x0 
 *fill*         0x40258310        0x0 
 *fill*         0x40258310        0x0 
 *fill*         0x40258310        0x0 
 *fill*         0x40258310        0x0 
 *fill*         0x40258310        0x0 
 *fill*         0x40258310        0x0 
 *fill*         0x40258310        0x0 
 *fill*         0x40258310        0x0 
 *fill*         0x40258310        0x0 
 *fill*         0x40258310        0x0 
 *fill*         0x40258310        0x0 
 *fill*         0x40258310        0x0 
 .literal.sha1mix
                0x40258310        0x0 build/app_app.a(WebSocket.o)
 .literal._ZN9WebSocket4sendEPKci11wsFrameType
                0x40258310        0x0 build/app_app.a(WebSocket.o)
 .literal._ZN9WebSocketC2EP20HttpServerConnection
                0x40258310        0x0 build/app_app.a(WebSocket.o)
 .literal._ZN9WebSocketD2Ev
                0x40258310        0x0 build/app_app.a(WebSocket.o)
 .literal._ZN9WebSocket10initializeER11HttpRequestR12HttpResponse
                0x40258310        0x0 build/app_app.a(WebSocket.o)
 .literal._ZN9WebSocket10sendStringERK6String
                0x40258310        0x0 build/app_app.a(WebSocket.o)
 .literal._ZN9WebSocket10sendBinaryEPKhi
                0x40258310        0x0 build/app_app.a(WebSocket.o)
 .literal._ZN9WebSocket13enableCommandEv
                0x40258310        0x0 build/app_app.a(WebSocket.o)
 .literal.startup._GLOBAL__sub_I__ZN9WebSocketC2EP20HttpServerConnection
                0x40258310        0x0 build/app_app.a(WebSocket.o)
 *fill*         0x40258310        0x0 
 *fill*         0x40258310        0x0 
 .text._ZN9WebSocketD2Ev
                0x40258310        0x2 build/app_app.a(WebSocket.o)
                0x40258310                WebSocket::~WebSocket()
                0x40258310                WebSocket::~WebSocket()
 *fill*         0x40258312        0x2 
 .text._ZN9WebSocket10sendStringERK6String
                0x40258314       0x1b build/app_app.a(WebSocket.o)
                0x40258314                WebSocket::sendString(String const&)
 *fill*         0x4025832f        0x1 
 .text._ZN9WebSocket10sendBinaryEPKhi
                0x40258330       0x15 build/app_app.a(WebSocket.o)
                0x40258330                WebSocket::sendBinary(unsigned char const*, int)
 *fill*         0x40258345        0x3 
 .text._ZN9WebSocket13enableCommandEv
                0x40258348        0x2 build/app_app.a(WebSocket.o)
                0x40258348                WebSocket::enableCommand()
 *fill*         0x4025834a        0x0 
 *fill*         0x4025834a        0x2 
 .literal._ZN15CommandExecutorC2Ev
                0x4025834c        0x0 build/app_app.a(CommandExecutor.o)
 .literal._ZN15CommandExecutorC2EP9TcpClient
                0x4025834c        0x0 build/app_app.a(CommandExecutor.o)
 .literal._ZN15CommandExecutorC2EP6Stream
                0x4025834c        0x0 build/app_app.a(CommandExecutor.o)
 .literal._ZN15CommandExecutorC2EP9WebSocket
                0x4025834c        0x0 build/app_app.a(CommandExecutor.o)
 .literal._ZN15CommandExecutorD2Ev
                0x4025834c        0x0 build/app_app.a(CommandExecutor.o)
 .literal._ZN15CommandExecutor18processCommandLineE6String
                0x4025834c        0x0 build/app_app.a(CommandExecutor.o)
 .literal._ZN15CommandExecutor15executorReceiveEc
                0x4025834c        0x0 build/app_app.a(CommandExecutor.o)
 .literal._ZN15CommandExecutor15executorReceiveEPci
                0x4025834c        0x0 build/app_app.a(CommandExecutor.o)
 .literal._ZN15CommandExecutor15executorReceiveE6String
                0x4025834c        0x0 build/app_app.a(CommandExecutor.o)
 .literal.startup._GLOBAL__sub_I__ZN15CommandExecutorC2Ev
                0x4025834c        0x0 build/app_app.a(CommandExecutor.o)
 *fill*         0x4025834c        0x0 
 *fill*         0x4025834c        0x0 
 *fill*         0x4025834c        0x0 
 *fill*         0x4025834c        0x0 
 .text._ZN15CommandExecutorD2Ev
                0x4025834c       0x18 build/app_app.a(CommandExecutor.o)
                0x4025834c                CommandExecutor::~CommandExecutor()
                0x4025834c                CommandExecutor::~CommandExecutor()
 *fill*         0x40258364        0x0 
 *fill*         0x40258364        0x0 
 *fill*         0x40258364        0x0 
 *fill*         0x40258364        0x0 
 *fill*         0x40258364        0x0 
 .literal._ZN12MethodCallerIM14CommandHandlerFv6StringP13CommandOutputEED5Ev
                0x40258364        0x0 build/app_app.a(CommandHandler.o)
 .literal._ZN12MethodCallerIM14CommandHandlerFv6StringP13CommandOutputEE6invokeES1_S3_
                0x40258364        0x0 build/app_app.a(CommandHandler.o)
 .literal._ZN14CommandHandler17procesEchoCommandE6StringP13CommandOutput
                0x40258364        0x0 build/app_app.a(CommandHandler.o)
 .literal._ZN14CommandHandler19procesStatusCommandE6StringP13CommandOutput
                0x40258364        0x0 build/app_app.a(CommandHandler.o)
 .literal._ZN14CommandHandler20procesDebugOnCommandE6StringP13CommandOutput
                0x40258364        0x0 build/app_app.a(CommandHandler.o)
 .literal._ZN14CommandHandler21procesDebugOffCommandE6StringP13CommandOutput
                0x40258364        0x0 build/app_app.a(CommandHandler.o)
 .literal._ZN14CommandHandler21processCommandOptionsE6StringP13CommandOutput
                0x40258364        0x0 build/app_app.a(CommandHandler.o)
 .literal._ZN14CommandHandlerC2Ev
                0x40258364        0x0 build/app_app.a(CommandHandler.o)
 .literal._ZN14CommandHandlerD2Ev
                0x40258364        0x0 build/app_app.a(CommandHandler.o)
 .literal._ZN14CommandHandler14getVerboseModeEv
                0x40258364        0x0 build/app_app.a(CommandHandler.o)
 .literal._ZN14CommandHandler14setVerboseModeE11VerboseMode
                0x40258364        0x0 build/app_app.a(CommandHandler.o)
 .literal._ZN14CommandHandler16getCommandPromptEv
                0x40258364        0x0 build/app_app.a(CommandHandler.o)
 .literal._ZN14CommandHandler16setCommandPromptE6String
                0x40258364        0x0 build/app_app.a(CommandHandler.o)
 .literal._ZN14CommandHandler13getCommandEOLEv
                0x40258364        0x0 build/app_app.a(CommandHandler.o)
 .literal._ZN14CommandHandler13setCommandEOLEc
                0x40258364        0x0 build/app_app.a(CommandHandler.o)
 .literal._ZN14CommandHandler24getCommandWelcomeMessageEv
                0x40258364        0x0 build/app_app.a(CommandHandler.o)
 .literal._ZN14CommandHandler24setCommandWelcomeMessageE6String
                0x40258364        0x0 build/app_app.a(CommandHandler.o)
 .literal._ZNK7HashMapI6String15CommandDelegateE8containsES0_
                0x40258364        0x0 build/app_app.a(CommandHandler.o)
 .literal._ZN8DelegateIFv6StringP13CommandOutputEE4copyERKS4_
                0x40258364        0x0 build/app_app.a(CommandHandler.o)
 .literal._ZN15CommandDelegateC5ERKS_
                0x40258364        0x0 build/app_app.a(CommandHandler.o)
 .literal._ZN14CommandHandler17procesHelpCommandE6StringP13CommandOutput
                0x40258364        0x0 build/app_app.a(CommandHandler.o)
 .literal._ZN15CommandDelegateaSERKS_
                0x40258364        0x0 build/app_app.a(CommandHandler.o)
 .literal._ZNK7HashMapI6String15CommandDelegateE7indexOfES0_
                0x40258364        0x0 build/app_app.a(CommandHandler.o)
 .literal._ZN7HashMapI6String15CommandDelegateE6removeES0_
                0x40258364        0x0 build/app_app.a(CommandHandler.o)
 .literal._ZN14CommandHandler17unregisterCommandE15CommandDelegate
                0x40258364        0x0 build/app_app.a(CommandHandler.o)
 .literal._ZN7HashMapI6String15CommandDelegateE8allocateEi
                0x40258364        0x0 build/app_app.a(CommandHandler.o)
 .literal._ZN7HashMapI6String15CommandDelegateEixES0_
                0x40258364        0x0 build/app_app.a(CommandHandler.o)
 .literal._ZN14CommandHandler18getCommandDelegateE6String
                0x40258364        0x0 build/app_app.a(CommandHandler.o)
 .literal._ZN14CommandHandler15registerCommandE15CommandDelegate
                0x40258364        0x0 build/app_app.a(CommandHandler.o)
 .literal._ZN14CommandHandler22registerSystemCommandsEv
                0x40258364        0x0 build/app_app.a(CommandHandler.o)
 .literal.startup._GLOBAL__sub_I__ZN14CommandHandlerC2Ev
                0x40258364        0x0 build/app_app.a(CommandHandler.o)
 .literal.exit._GLOBAL__sub_D__ZN14CommandHandlerC2Ev
                0x40258364        0x0 build/app_app.a(CommandHandler.o)
 .text._ZN12MethodCallerIM14CommandHandlerFv6StringP13CommandOutputEED2Ev
                0x40258364        0x2 build/app_app.a(CommandHandler.o)
                0x40258364                MethodCaller<void (CommandHandler::*)(String, CommandOutput*)>::~MethodCaller()
                0x40258364                MethodCaller<void (CommandHandler::*)(String, CommandOutput*)>::~MethodCaller()
 *fill*         0x40258366        0x0 
 *fill*         0x40258366        0x0 
 *fill*         0x40258366        0x0 
 *fill*         0x40258366        0x0 
 *fill*         0x40258366        0x0 
 *fill*         0x40258366        0x0 
 *fill*         0x40258366        0x0 
 *fill*         0x40258366        0x0 
 *fill*         0x40258366        0x2 
 .text._ZN14CommandHandler14getVerboseModeEv
                0x40258368        0x4 build/app_app.a(CommandHandler.o)
                0x40258368                CommandHandler::getVerboseMode()
 .text._ZN14CommandHandler14setVerboseModeE11VerboseMode
                0x4025836c        0x4 build/app_app.a(CommandHandler.o)
                0x4025836c                CommandHandler::setVerboseMode(VerboseMode)
 .text._ZN14CommandHandler13getCommandEOLEv
                0x40258370        0x5 build/app_app.a(CommandHandler.o)
                0x40258370                CommandHandler::getCommandEOL()
 *fill*         0x40258375        0x3 
 .text._ZN14CommandHandler13setCommandEOLEc
                0x40258378        0x5 build/app_app.a(CommandHandler.o)
                0x40258378                CommandHandler::setCommandEOL(char)
 *fill*         0x4025837d        0x0 
 *fill*         0x4025837d        0x0 
 *fill*         0x4025837d        0x0 
 *fill*         0x4025837d        0x3 
 .text._ZN8DelegateIFv6StringP13CommandOutputEE4copyERKS4_
                0x40258380       0x3c build/app_app.a(CommandHandler.o)
                0x40258380                Delegate<void (String, CommandOutput*)>::copy(Delegate<void (String, CommandOutput*)> const&)
 *fill*         0x402583bc        0x0 
 *fill*         0x402583bc        0x0 
 *fill*         0x402583bc        0x0 
 *fill*         0x402583bc        0x0 
 *fill*         0x402583bc        0x0 
 *fill*         0x402583bc        0x0 
 *fill*         0x402583bc        0x0 
 *fill*         0x402583bc        0x0 
 *fill*         0x402583bc        0x0 
 *fill*         0x402583bc        0x0 
 *fill*         0x402583bc        0x0 
 .literal._ZN13CommandOutputD2Ev
                0x402583bc        0x0 build/app_app.a(CommandOutput.o)
 .literal._ZN13CommandOutputD0Ev
                0x402583bc        0x0 build/app_app.a(CommandOutput.o)
 .literal._ZN13CommandOutput5writeEh
                0x402583bc        0x0 build/app_app.a(CommandOutput.o)
 .literal._ZN13CommandOutputC2EP9TcpClient
                0x402583bc        0x0 build/app_app.a(CommandOutput.o)
 .literal._ZN13CommandOutputC2EP6Stream
                0x402583bc        0x0 build/app_app.a(CommandOutput.o)
 .literal._ZN13CommandOutputC2EP9WebSocket
                0x402583bc        0x0 build/app_app.a(CommandOutput.o)
 .literal.startup._GLOBAL__sub_I__ZN13CommandOutputC2EP9TcpClient
                0x402583bc        0x0 build/app_app.a(CommandOutput.o)
 *fill*         0x402583bc        0x0 
 *fill*         0x402583bc        0x0 
 *fill*         0x402583bc        0x0 
 *fill*         0x402583bc        0x0 
 *fill*         0x402583bc        0x0 
 *fill*         0x402583bc        0x0 
 *fill*         0x402583bc        0x0 
 .literal.base64encode
                0x402583bc        0x0 build/app_app.a(base64.o)
 .literal.base64decode
                0x402583bc        0x0 build/app_app.a(base64.o)
 .literal.base64_decode
                0x402583bc        0x0 build/app_app.a(base64.o)
 .literal.base64_encode
                0x402583bc        0x0 build/app_app.a(base64.o)
 *fill*         0x402583bc        0x0 
 *fill*         0x402583bc        0x0 
 .literal._Z11wsMakeFramePKhjPhPj11wsFrameType
                0x402583bc        0x0 build/app_app.a(websocket.o)
 .literal._Z17wsParseInputFramePhjPS_Pj
                0x402583bc        0x0 build/app_app.a(websocket.o)
 *fill*         0x402583bc        0x0 
 .text._Z17wsParseInputFramePhjPS_Pj
                0x402583bc       0xf1 build/app_app.a(websocket.o)
                0x402583bc                wsParseInputFrame(unsigned char*, unsigned int, unsigned char**, unsigned int*)
 *fill*         0x402584ad        0x3 
 .literal._Z20setMPrintfPrinterCbcPFvcE
                0x402584b0        0x0 build/app_app.a(m_printf.o)
 .literal._Z11m_vsnprintfPcjPKc13__va_list_tag
                0x402584b0        0x0 build/app_app.a(m_printf.o)
 .literal._Z8m_printfPKcz
                0x402584b0        0x0 build/app_app.a(m_printf.o)
 *fill*         0x402584b0        0x0 
 *fill*         0x402584b0        0x0 
 *fill*         0x402584b0        0x0 
 .literal.uart_tx_one_char
                0x402584b0        0x0 build/app_app.a(uart.o)
 .literal.uart0_write_char
                0x402584b0        0x0 build/app_app.a(uart.o)
 .literal.uart1_write_char
                0x402584b0        0x0 build/app_app.a(uart.o)
 .literal.UART_SetWordLength
                0x402584b0        0x0 build/app_app.a(uart.o)
 .literal.UART_SetStopBits
                0x402584b0        0x0 build/app_app.a(uart.o)
 .literal.UART_SetLineInverse
                0x402584b0        0x0 build/app_app.a(uart.o)
 .literal.UART_SetParity
                0x402584b0        0x0 build/app_app.a(uart.o)
 .literal.UART_SetBaudrate
                0x402584b0        0x0 build/app_app.a(uart.o)
 .literal.UART_SetFlowCtrl
                0x402584b0        0x0 build/app_app.a(uart.o)
 .literal.UART_WaitTxFifoEmpty
                0x402584b0        0x0 build/app_app.a(uart.o)
 .literal.UART_ResetFifo
                0x402584b0        0x0 build/app_app.a(uart.o)
 .literal.UART_ClearIntrStatus
                0x402584b0        0x0 build/app_app.a(uart.o)
 .literal.UART_SetIntrEna
                0x402584b0        0x0 build/app_app.a(uart.o)
 .literal.UART_intr_handler_register
                0x402584b0        0x0 build/app_app.a(uart.o)
 .literal.UART_SetPrintPort
                0x402584b0        0x0 build/app_app.a(uart.o)
 .literal.UART_ParamConfig
                0x402584b0        0x0 build/app_app.a(uart.o)
 .literal.UART_IntrConfig
                0x402584b0        0x0 build/app_app.a(uart.o)
 .literal.uart_init_new
                0x402584b0        0x0 build/app_app.a(uart.o)
 *fill*         0x402584b0        0x0 
 *fill*         0x402584b0        0x0 
 *fill*         0x402584b0        0x0 
 *fill*         0x402584b0        0x0 
 *fill*         0x402584b0        0x0 
 *fill*         0x402584b0        0x0 
 *fill*         0x402584b0        0x0 
 *fill*         0x402584b0        0x0 
 *fill*         0x402584b0        0x0 
 *fill*         0x402584b0        0x0 
 *fill*         0x402584b0        0x0 
 *fill*         0x402584b0        0x0 
 *fill*         0x402584b0        0x0 
 *fill*         0x402584b0        0x0 
 .literal._ZN16MemoryDataStream13getStreamTypeEv
                0x402584b0        0x0 build/app_app.a(DataSourceStream.o)
 .literal._ZN10FileStream13getStreamTypeEv
                0x402584b0        0x0 build/app_app.a(DataSourceStream.o)
 .literal._ZN18TemplateFileStream13getStreamTypeEv
                0x402584b0        0x0 build/app_app.a(DataSourceStream.o)
 .literal._ZN16JsonObjectStream13getStreamTypeEv
                0x402584b0        0x0 build/app_app.a(DataSourceStream.o)
 .literal._ZN16MemoryDataStream5writeEh
                0x402584b0        0x0 build/app_app.a(DataSourceStream.o)
 .literal._ZN16MemoryDataStream4seekEi
                0x402584b0        0x0 build/app_app.a(DataSourceStream.o)
 .literal._ZThn8_N16MemoryDataStream4seekEi
                0x402584b0        0x0 build/app_app.a(DataSourceStream.o)
 .literal._ZN16MemoryDataStream10isFinishedEv
                0x402584b0        0x0 build/app_app.a(DataSourceStream.o)
 .literal._ZThn8_N16MemoryDataStream10isFinishedEv
                0x402584b0        0x0 build/app_app.a(DataSourceStream.o)
 .literal._ZN16MemoryDataStreamD2Ev
                0x402584b0        0x0 build/app_app.a(DataSourceStream.o)
 .literal._ZThn8_N16MemoryDataStreamD1Ev
                0x402584b0        0x0 build/app_app.a(DataSourceStream.o)
 .literal._ZN16JsonObjectStreamD2Ev
                0x402584b0        0x0 build/app_app.a(DataSourceStream.o)
 .literal._ZThn8_N16JsonObjectStreamD1Ev
                0x402584b0        0x0 build/app_app.a(DataSourceStream.o)
 .literal._ZN16MemoryDataStreamD0Ev
                0x402584b0        0x0 build/app_app.a(DataSourceStream.o)
 .literal._ZThn8_N16MemoryDataStreamD0Ev
                0x402584b0        0x0 build/app_app.a(DataSourceStream.o)
 .literal._ZN16JsonObjectStreamD0Ev
                0x402584b0        0x0 build/app_app.a(DataSourceStream.o)
 .literal._ZThn8_N16JsonObjectStreamD0Ev
                0x402584b0        0x0 build/app_app.a(DataSourceStream.o)
 .literal._ZN16MemoryDataStream15readMemoryBlockEPci
                0x402584b0        0x0 build/app_app.a(DataSourceStream.o)
 .literal._ZThn8_N16MemoryDataStream15readMemoryBlockEPci
                0x402584b0        0x0 build/app_app.a(DataSourceStream.o)
 .literal._ZN16MemoryDataStream5writeEPKhj
                0x402584b0        0x0 build/app_app.a(DataSourceStream.o)
 .literal._ZN10FileStreamD2Ev
                0x402584b0        0x0 build/app_app.a(DataSourceStream.o)
 .literal._ZN10FileStreamD0Ev
                0x402584b0        0x0 build/app_app.a(DataSourceStream.o)
 .literal._ZN10FileStream15readMemoryBlockEPci
                0x402584b0        0x0 build/app_app.a(DataSourceStream.o)
 .literal._ZN10FileStream10isFinishedEv
                0x402584b0        0x0 build/app_app.a(DataSourceStream.o)
 .literal._ZN18TemplateFileStreamD2Ev
                0x402584b0        0x0 build/app_app.a(DataSourceStream.o)
 .literal._ZN18TemplateFileStreamD0Ev
                0x402584b0        0x0 build/app_app.a(DataSourceStream.o)
 .literal._ZN16JsonObjectStream15readMemoryBlockEPci
                0x402584b0        0x0 build/app_app.a(DataSourceStream.o)
 .literal._ZThn8_N16JsonObjectStream15readMemoryBlockEPci
                0x402584b0        0x0 build/app_app.a(DataSourceStream.o)
 .literal._ZN10FileStream4seekEi
                0x402584b0        0x0 build/app_app.a(DataSourceStream.o)
 .literal._ZN18TemplateFileStream4seekEi
                0x402584b0        0x0 build/app_app.a(DataSourceStream.o)
 .literal._ZN11ArduinoJson9Internals15BlockJsonBufferINS0_16DefaultAllocatorEE5allocEj
                0x402584b0        0x0 build/app_app.a(DataSourceStream.o)
 .literal._ZN16MemoryDataStreamC2Ev
                0x402584b0        0x0 build/app_app.a(DataSourceStream.o)
 .literal._ZN10FileStreamC2E6String
                0x402584b0        0x0 build/app_app.a(DataSourceStream.o)
 .literal._ZN10FileStream8fileNameEv
                0x402584b0        0x0 build/app_app.a(DataSourceStream.o)
 .literal._ZN10FileStream9fileExistEv
                0x402584b0        0x0 build/app_app.a(DataSourceStream.o)
 .literal._ZN18TemplateFileStreamC2E6String
                0x402584b0        0x0 build/app_app.a(DataSourceStream.o)
 .literal._ZN16JsonObjectStreamC2Ev
                0x402584b0        0x0 build/app_app.a(DataSourceStream.o)
 .literal._ZN16JsonObjectStream7getRootEv
                0x402584b0        0x0 build/app_app.a(DataSourceStream.o)
 .literal._ZN7HashMapI6StringS0_EixES0_
                0x402584b0        0x0 build/app_app.a(DataSourceStream.o)
 .literal._ZN18TemplateFileStream15readMemoryBlockEPci
                0x402584b0        0x0 build/app_app.a(DataSourceStream.o)
 .literal._ZN18TemplateFileStream6setVarE6StringS0_
                0x402584b0        0x0 build/app_app.a(DataSourceStream.o)
 .literal._ZN7HashMapI6StringS0_E11setMultipleERKS1_
                0x402584b0        0x0 build/app_app.a(DataSourceStream.o)
 .literal._ZN18TemplateFileStream18setVarsFromRequestERK11HttpRequest
                0x402584b0        0x0 build/app_app.a(DataSourceStream.o)
 .literal.startup._GLOBAL__sub_I__ZN16MemoryDataStreamC2Ev
                0x402584b0        0x0 build/app_app.a(DataSourceStream.o)
 .text._ZN16MemoryDataStream13getStreamTypeEv
                0x402584b0        0x8 build/app_app.a(DataSourceStream.o)
                0x402584b0                MemoryDataStream::getStreamType()
                0x402584b4                non-virtual thunk to MemoryDataStream::getStreamType()
 .text._ZN10FileStream13getStreamTypeEv
                0x402584b8        0x4 build/app_app.a(DataSourceStream.o)
                0x402584b8                FileStream::getStreamType()
 .text._ZN18TemplateFileStream13getStreamTypeEv
                0x402584bc        0x4 build/app_app.a(DataSourceStream.o)
                0x402584bc                TemplateFileStream::getStreamType()
 .text._ZN16JsonObjectStream13getStreamTypeEv
                0x402584c0        0x8 build/app_app.a(DataSourceStream.o)
                0x402584c0                JsonObjectStream::getStreamType()
                0x402584c4                non-virtual thunk to JsonObjectStream::getStreamType()
 .text._ZN16MemoryDataStream5writeEh
                0x402584c8       0x1b build/app_app.a(DataSourceStream.o)
                0x402584c8                MemoryDataStream::write(unsigned char)
 *fill*         0x402584e3        0x1 
 .text._ZN16MemoryDataStream4seekEi
                0x402584e4       0x12 build/app_app.a(DataSourceStream.o)
                0x402584e4                MemoryDataStream::seek(int)
 *fill*         0x402584f6        0x2 
 .text._ZThn8_N16MemoryDataStream4seekEi
                0x402584f8       0x11 build/app_app.a(DataSourceStream.o)
                0x402584f8                non-virtual thunk to MemoryDataStream::seek(int)
 *fill*         0x40258509        0x3 
 .text._ZN16MemoryDataStream10isFinishedEv
                0x4025850c       0x15 build/app_app.a(DataSourceStream.o)
                0x4025850c                MemoryDataStream::isFinished()
 *fill*         0x40258521        0x0 
 *fill*         0x40258521        0x0 
 *fill*         0x40258521        0x0 
 *fill*         0x40258521        0x0 
 *fill*         0x40258521        0x0 
 *fill*         0x40258521        0x0 
 *fill*         0x40258521        0x0 
 *fill*         0x40258521        0x0 
 *fill*         0x40258521        0x0 
 *fill*         0x40258521        0x0 
 *fill*         0x40258521        0x0 
 *fill*         0x40258521        0x0 
 *fill*         0x40258521        0x0 
 *fill*         0x40258521        0x0 
 *fill*         0x40258521        0x0 
 *fill*         0x40258521        0x0 
 *fill*         0x40258521        0x0 
 *fill*         0x40258521        0x0 
 *fill*         0x40258521        0x0 
 *fill*         0x40258521        0x0 
 *fill*         0x40258521        0x0 
 *fill*         0x40258521        0x0 
 *fill*         0x40258521        0x3 
 .text._ZN10FileStream9fileExistEv
                0x40258524        0xd build/app_app.a(DataSourceStream.o)
                0x40258524                FileStream::fileExist()
 *fill*         0x40258531        0x3 
 .text._ZN16JsonObjectStream7getRootEv
                0x40258534        0x4 build/app_app.a(DataSourceStream.o)
                0x40258534                JsonObjectStream::getRoot()
 *fill*         0x40258538        0x0 
 *fill*         0x40258538        0x0 
 *fill*         0x40258538        0x0 
 *fill*         0x40258538        0x0 
 *fill*         0x40258538        0x0 
 *fill*         0x40258538        0x0 
 .literal._Z9fileCloses
                0x40258538        0x0 build/app_app.a(FileSystem.o)
 .literal._Z9fileWritesPKvj
                0x40258538        0x0 build/app_app.a(FileSystem.o)
 .literal._Z8fileReadsPvj
                0x40258538        0x0 build/app_app.a(FileSystem.o)
 .literal._Z8fileSeeksi15SeekOriginFlags
                0x40258538        0x0 build/app_app.a(FileSystem.o)
 .literal._Z9fileIsEOFs
                0x40258538        0x0 build/app_app.a(FileSystem.o)
 .literal._Z8fileTells
                0x40258538        0x0 build/app_app.a(FileSystem.o)
 .literal._Z9fileFlushs
                0x40258538        0x0 build/app_app.a(FileSystem.o)
 .literal._Z9fileStats6StringP11spiffs_stat
                0x40258538        0x0 build/app_app.a(FileSystem.o)
 .literal._Z9fileStatssP11spiffs_stat
                0x40258538        0x0 build/app_app.a(FileSystem.o)
 .literal._Z10fileDelete6String
                0x40258538        0x0 build/app_app.a(FileSystem.o)
 .literal._Z10fileDeletes
                0x40258538        0x0 build/app_app.a(FileSystem.o)
 .literal._Z9fileExist6String
                0x40258538        0x0 build/app_app.a(FileSystem.o)
 .literal._Z8fileOpen6String13FileOpenFlags
                0x40258538        0x0 build/app_app.a(FileSystem.o)
 .literal._Z13fileLastErrors
                0x40258538        0x0 build/app_app.a(FileSystem.o)
 .literal._Z18fileClearLastErrors
                0x40258538        0x0 build/app_app.a(FileSystem.o)
 .literal._Z14fileSetContent6StringPKc
                0x40258538        0x0 build/app_app.a(FileSystem.o)
 .literal._Z14fileSetContent6StringRKS_
                0x40258538        0x0 build/app_app.a(FileSystem.o)
 .literal._Z11fileGetSize6String
                0x40258538        0x0 build/app_app.a(FileSystem.o)
 .literal._Z10fileRename6StringS_
                0x40258538        0x0 build/app_app.a(FileSystem.o)
 .literal._Z8fileListv
                0x40258538        0x0 build/app_app.a(FileSystem.o)
 .literal._Z14fileGetContent6String
                0x40258538        0x0 build/app_app.a(FileSystem.o)
 .literal._Z14fileGetContent6StringPci
                0x40258538        0x0 build/app_app.a(FileSystem.o)
 *fill*         0x40258538        0x0 
 *fill*         0x40258538        0x0 
 *fill*         0x40258538        0x0 
 *fill*         0x40258538        0x0 
 *fill*         0x40258538        0x0 
 *fill*         0x40258538        0x0 
 *fill*         0x40258538        0x0 
 *fill*         0x40258538        0x0 
 *fill*         0x40258538        0x0 
 *fill*         0x40258538        0x0 
 *fill*         0x40258538        0x0 
 *fill*         0x40258538        0x0 
 *fill*         0x40258538        0x0 
 *fill*         0x40258538        0x0 
 *fill*         0x40258538        0x0 
 *fill*         0x40258538        0x0 
 *fill*         0x40258538        0x0 
 *fill*         0x40258538        0x0 
 *fill*         0x40258538        0x0 
 *fill*         0x40258538        0x0 
 .literal._ZN16SystemClockClass3nowE8TimeZone
                0x40258538        0x0 build/app_app.a(SystemClock.o)
 .literal._ZN16SystemClockClass7setTimeEl8TimeZone
                0x40258538        0x0 build/app_app.a(SystemClock.o)
 .literal._ZN16SystemClockClass19getSystemTimeStringE8TimeZone
                0x40258538        0x0 build/app_app.a(SystemClock.o)
 .literal._ZN16SystemClockClass11setTimeZoneEd
                0x40258538        0x0 build/app_app.a(SystemClock.o)
 .literal.startup._GLOBAL__sub_I__ZN16SystemClockClass3nowE8TimeZone
                0x40258538        0x0 build/app_app.a(SystemClock.o)
 *fill*         0x40258538        0x0 
 *fill*         0x40258538        0x0 
 *fill*         0x40258538        0x0 
 *fill*         0x40258538        0x0 
 .literal.ltoa_w
                0x40258538        0x0 build/app_app.a(stringconversion.o)
 .literal.ltoa  0x40258538        0x0 build/app_app.a(stringconversion.o)
 .literal.ultoa_w
                0x40258538        0x0 build/app_app.a(stringconversion.o)
 .literal.ultoa
                0x40258538        0x0 build/app_app.a(stringconversion.o)
 .literal.dtostrf
                0x40258538        0x0 build/app_app.a(stringconversion.o)
 *fill*         0x40258538        0x0 
 *fill*         0x40258538        0x0 
 *fill*         0x40258538        0x0 
 .literal._ZN6VectorIlE10addElementERKl
                0x40258538        0x0 build/app_app.a(SplitString.o)
 .literal._Z11splitStringR6StringiR6VectorIlE
                0x40258538        0x0 build/app_app.a(SplitString.o)
 .literal._ZN6VectorIiE10addElementERKi
                0x40258538        0x0 build/app_app.a(SplitString.o)
 .literal._Z11splitStringR6StringiR6VectorIiE
                0x40258538        0x0 build/app_app.a(SplitString.o)
 .literal._ZN6VectorI6StringE10addElementERKS0_
                0x40258538        0x0 build/app_app.a(SplitString.o)
 .literal._Z11splitStringR6StringiR6VectorIS_E
                0x40258538        0x0 build/app_app.a(SplitString.o)
 *fill*         0x40258538        0x0 
 *fill*         0x40258538        0x0 
 *fill*         0x40258538        0x0 
 *fill*         0x40258538        0x0 
 .literal._ZN8RtcClassC2Ev
                0x40258538        0x0 build/app_app.a(RTC.o)
 .literal._ZN8RtcClass10updateTimeER7RtcData
                0x40258538        0x0 build/app_app.a(RTC.o)
 .literal._ZN8RtcClass8saveTimeER7RtcData
                0x40258538        0x0 build/app_app.a(RTC.o)
 .literal._ZN8RtcClass8loadTimeER7RtcData
                0x40258538        0x0 build/app_app.a(RTC.o)
 .literal._ZN8RtcClass13getRtcSecondsEv
                0x40258538        0x0 build/app_app.a(RTC.o)
 .literal._ZN8RtcClass13setRtcSecondsEj
                0x40258538        0x0 build/app_app.a(RTC.o)
 .literal.startup._GLOBAL__sub_I__ZN8RtcClassC2Ev
                0x40258538        0x0 build/app_app.a(RTC.o)
 *fill*         0x40258538        0x0 
 *fill*         0x40258538        0x0 
 *fill*         0x40258538        0x0 
 *fill*         0x40258538        0x0 
 *fill*         0x40258538        0x0 
 *fill*         0x40258538        0x0 
 *fill*         0x40258538        0x0 
 .literal._ZN11HttpRequestC2Ev
                0x40258538        0x0 build/app_app.a(HttpRequest.o)
 .literal._ZN7HashMapI6StringS0_ED5Ev
                0x40258538        0x0 build/app_app.a(HttpRequest.o)
 .literal._ZN11HttpRequestD2Ev
                0x40258538        0x0 build/app_app.a(HttpRequest.o)
 .literal._ZN11HttpRequestD0Ev
                0x40258538        0x0 build/app_app.a(HttpRequest.o)
 .literal._ZN7HashMapI6StringS0_EC5EPFbS0_S0_E
                0x40258538        0x0 build/app_app.a(HttpRequest.o)
 .literal._ZN11HttpRequest17getQueryParameterE6StringS0_
                0x40258538        0x0 build/app_app.a(HttpRequest.o)
 .literal._ZN11HttpRequest16getPostParameterE6StringS0_
                0x40258538        0x0 build/app_app.a(HttpRequest.o)
 .literal._ZN11HttpRequest9getHeaderE6StringS0_
                0x40258538        0x0 build/app_app.a(HttpRequest.o)
 .literal._ZN11HttpRequest16getContentLengthEv
                0x40258538        0x0 build/app_app.a(HttpRequest.o)
 .literal._ZN11HttpRequest14getContentTypeEv
                0x40258538        0x0 build/app_app.a(HttpRequest.o)
 .literal._ZN11HttpRequest6isAjaxEv
                0x40258538        0x0 build/app_app.a(HttpRequest.o)
 .literal._ZN11HttpRequest11isWebSocketEv
                0x40258538        0x0 build/app_app.a(HttpRequest.o)
 .literal._ZN11HttpRequest9getCookieE6StringS0_
                0x40258538        0x0 build/app_app.a(HttpRequest.o)
 .literal._ZN11HttpRequest23extractParsingItemsListEP4pbufiiccP7HashMapI6StringS3_E
                0x40258538        0x0 build/app_app.a(HttpRequest.o)
 .literal._ZN11HttpRequest11parseHeaderEP10HttpServerP4pbuf
                0x40258538        0x0 build/app_app.a(HttpRequest.o)
 .literal._ZN11HttpRequest13parsePostDataEP10HttpServerP4pbuf
                0x40258538        0x0 build/app_app.a(HttpRequest.o)
 .literal.startup._GLOBAL__sub_I__ZN11HttpRequestC2Ev
                0x40258538        0x0 build/app_app.a(HttpRequest.o)
 *fill*         0x40258538        0x0 
 *fill*         0x40258538        0x0 
 *fill*         0x40258538        0x0 
 *fill*         0x40258538        0x0 
 *fill*         0x40258538        0x0 
 *fill*         0x40258538        0x0 
 *fill*         0x40258538        0x0 
 *fill*         0x40258538        0x0 
 *fill*         0x40258538        0x0 
 *fill*         0x40258538        0x0 
 *fill*         0x40258538        0x0 
 *fill*         0x40258538        0x0 
 *fill*         0x40258538        0x0 
 *fill*         0x40258538        0x0 
 *fill*         0x40258538        0x0 
 *fill*         0x40258538        0x0 
 .literal._ZN8NetUtils12pbufFindCharEP4pbufci
                0x40258538        0x0 build/app_app.a(NetUtils.o)
 .literal._ZN8NetUtils14pbufIsStrEqualEP4pbufPKci
                0x40258538        0x0 build/app_app.a(NetUtils.o)
 .literal._ZN8NetUtils11pbufFindStrEP4pbufPKci
                0x40258538        0x0 build/app_app.a(NetUtils.o)
 .literal._ZN8NetUtils19pbufAllocateStrCopyEP4pbufii
                0x40258538        0x0 build/app_app.a(NetUtils.o)
 .literal._ZN8NetUtils11pbufStrCopyEP4pbufii
                0x40258538        0x0 build/app_app.a(NetUtils.o)
 .literal._ZN8NetUtils17FixNetworkRoutingEv
                0x40258538        0x0 build/app_app.a(NetUtils.o)
 .text._ZN8NetUtils12pbufFindCharEP4pbufci
                0x40258538       0x3e build/app_app.a(NetUtils.o)
                0x40258538                NetUtils::pbufFindChar(pbuf*, char, int)
 *fill*         0x40258576        0x2 
 .text._ZN8NetUtils14pbufIsStrEqualEP4pbufPKci
                0x40258578       0x3a build/app_app.a(NetUtils.o)
                0x40258578                NetUtils::pbufIsStrEqual(pbuf*, char const*, int)
 *fill*         0x402585b2        0x0 
 *fill*         0x402585b2        0x0 
 *fill*         0x402585b2        0x0 
 *fill*         0x402585b2        0x2 
 .text._ZN8NetUtils17FixNetworkRoutingEv
                0x402585b4        0x4 build/app_app.a(NetUtils.o)
                0x402585b4                NetUtils::FixNetworkRouting()
 .literal._ZN11ArduinoJson9Internals13IndentedPrint5writeEh
                0x402585b8        0x0 build/app_app.a(ArduinoJson.o)
 .literal._ZN11ArduinoJson9Internals19StaticStringBuilder5writeEh
                0x402585b8        0x0 build/app_app.a(ArduinoJson.o)
 .literal._ZN11ArduinoJson9Internals20DynamicStringBuilder5writeEh
                0x402585b8        0x0 build/app_app.a(ArduinoJson.o)
 .literal._ZN11ArduinoJson9Internals10JsonWriter5writeEc
                0x402585b8        0x0 build/app_app.a(ArduinoJson.o)
 .literal._ZN11ArduinoJson9Internals10JsonWriter11writeStringEPKc
                0x402585b8        0x0 build/app_app.a(ArduinoJson.o)
 .literal._ZN11ArduinoJson9Internals19JsonBufferAllocatednwEjPNS_10JsonBufferE
                0x402585b8        0x0 build/app_app.a(ArduinoJson.o)
 .literal._ZN11ArduinoJson9Internals10JsonParser11parseStringEv
                0x402585b8        0x0 build/app_app.a(ArduinoJson.o)
 .literal._ZN11ArduinoJson9Internals4ListINS_8JsonPairEEC5EPNS_10JsonBufferE
                0x402585b8        0x0 build/app_app.a(ArduinoJson.o)
 .literal._ZNK11ArduinoJson9Internals4ListINS_8JsonPairEE7successEv
                0x402585b8        0x0 build/app_app.a(ArduinoJson.o)
 .literal._ZNK11ArduinoJson9Internals4ListINS_8JsonPairEE4sizeEv
                0x402585b8        0x0 build/app_app.a(ArduinoJson.o)
 .literal._ZN11ArduinoJson9Internals4ListINS_8JsonPairEE5beginEv
                0x402585b8        0x0 build/app_app.a(ArduinoJson.o)
 .literal._ZN11ArduinoJson9Internals4ListINS_8JsonPairEE3endEv
                0x402585b8        0x0 build/app_app.a(ArduinoJson.o)
 .literal._ZNK11ArduinoJson9Internals4ListINS_8JsonPairEE5beginEv
                0x402585b8        0x0 build/app_app.a(ArduinoJson.o)
 .literal._ZNK11ArduinoJson9Internals4ListINS_8JsonPairEE3endEv
                0x402585b8        0x0 build/app_app.a(ArduinoJson.o)
 .literal._ZN11ArduinoJson9Internals4ListINS_8JsonPairEE10addNewNodeEv
                0x402585b8        0x0 build/app_app.a(ArduinoJson.o)
 .literal._ZN11ArduinoJson9Internals4ListINS_8JsonPairEE10removeNodeEPNS0_8ListNodeIS2_EE
                0x402585b8        0x0 build/app_app.a(ArduinoJson.o)
 .literal._ZN11ArduinoJson9Internals4ListINS_11JsonVariantEEC5EPNS_10JsonBufferE
                0x402585b8        0x0 build/app_app.a(ArduinoJson.o)
 .literal._ZNK11ArduinoJson9Internals4ListINS_11JsonVariantEE7successEv
                0x402585b8        0x0 build/app_app.a(ArduinoJson.o)
 .literal._ZNK11ArduinoJson9Internals4ListINS_11JsonVariantEE4sizeEv
                0x402585b8        0x0 build/app_app.a(ArduinoJson.o)
 .literal._ZN11ArduinoJson9Internals4ListINS_11JsonVariantEE5beginEv
                0x402585b8        0x0 build/app_app.a(ArduinoJson.o)
 .literal._ZN11ArduinoJson9Internals4ListINS_11JsonVariantEE3endEv
                0x402585b8        0x0 build/app_app.a(ArduinoJson.o)
 .literal._ZNK11ArduinoJson9Internals4ListINS_11JsonVariantEE5beginEv
                0x402585b8        0x0 build/app_app.a(ArduinoJson.o)
 .literal._ZNK11ArduinoJson9Internals4ListINS_11JsonVariantEE3endEv
                0x402585b8        0x0 build/app_app.a(ArduinoJson.o)
 .literal._ZN11ArduinoJson9Internals4ListINS_11JsonVariantEE10addNewNodeEv
                0x402585b8        0x0 build/app_app.a(ArduinoJson.o)
 .literal._ZN11ArduinoJson9Internals4ListINS_11JsonVariantEE10removeNodeEPNS0_8ListNodeIS2_EE
                0x402585b8        0x0 build/app_app.a(ArduinoJson.o)
 .literal._ZN11ArduinoJson9Internals10Prettyfier14indentIfNeededEv
                0x402585b8        0x0 build/app_app.a(ArduinoJson.o)
 .literal._ZN11ArduinoJson9Internals10Prettyfier16handleNormalCharEh
                0x402585b8        0x0 build/app_app.a(ArduinoJson.o)
 .literal._ZN11ArduinoJson9Internals10Prettyfier16unindentIfNeededEv
                0x402585b8        0x0 build/app_app.a(ArduinoJson.o)
 .literal._ZN11ArduinoJson9Internals10Prettyfier16handleMarkupCharEh
                0x402585b8        0x0 build/app_app.a(ArduinoJson.o)
 .literal._ZN11ArduinoJson9Internals10Prettyfier5writeEh
                0x402585b8        0x0 build/app_app.a(ArduinoJson.o)
 .literal._ZN11ArduinoJson9Internals21skipSpacesAndCommentsEPKc
                0x402585b8        0x0 build/app_app.a(ArduinoJson.o)
 .literal._ZN11ArduinoJson9Internals10JsonParser4skipEc
                0x402585b8        0x0 build/app_app.a(ArduinoJson.o)
 .literal._ZNK11ArduinoJson9JsonArray9getNodeAtEj
                0x402585b8        0x0 build/app_app.a(ArduinoJson.o)
 .literal._ZN11ArduinoJson9JsonArray8removeAtEj
                0x402585b8        0x0 build/app_app.a(ArduinoJson.o)
 .literal._ZN11ArduinoJson10JsonBuffer11createArrayEv
                0x402585b8        0x0 build/app_app.a(ArduinoJson.o)
 .literal._ZN11ArduinoJson9JsonArray17createNestedArrayEv
                0x402585b8        0x0 build/app_app.a(ArduinoJson.o)
 .literal._ZN11ArduinoJson10JsonBuffer12createObjectEv
                0x402585b8        0x0 build/app_app.a(ArduinoJson.o)
 .literal._ZN11ArduinoJson9JsonArray18createNestedObjectEv
                0x402585b8        0x0 build/app_app.a(ArduinoJson.o)
 .literal._ZN11ArduinoJson10JsonBuffer6strdupEPKcj
                0x402585b8        0x0 build/app_app.a(ArduinoJson.o)
 .literal._ZNK11ArduinoJson10JsonObject9getNodeAtENS_13JsonObjectKeyE
                0x402585b8        0x0 build/app_app.a(ArduinoJson.o)
 .literal._ZN11ArduinoJson10JsonObject17getOrCreateNodeAtENS_13JsonObjectKeyE
                0x402585b8        0x0 build/app_app.a(ArduinoJson.o)
 .literal._ZN11ArduinoJson9Internals10JsonParser11parseObjectEv
                0x402585b8        0x0 build/app_app.a(ArduinoJson.o)
 .literal._ZN11ArduinoJson9Internals10JsonParser15parseAnythingToEPNS_11JsonVariantE
                0x402585b8        0x0 build/app_app.a(ArduinoJson.o)
 .literal._ZN11ArduinoJson9Internals10JsonParser10parseArrayEv
                0x402585b8        0x0 build/app_app.a(ArduinoJson.o)
 .literal._ZN11ArduinoJson10JsonBuffer10parseArrayEPch
                0x402585b8        0x0 build/app_app.a(ArduinoJson.o)
 .literal._ZN11ArduinoJson10JsonBuffer11parseObjectEPch
                0x402585b8        0x0 build/app_app.a(ArduinoJson.o)
 .literal._ZN11ArduinoJson10JsonObject13createArrayAtIPKcEERNS_9JsonArrayET_
                0x402585b8        0x0 build/app_app.a(ArduinoJson.o)
 .literal._ZN11ArduinoJson10JsonObject14createObjectAtIPKcEERS0_T_
                0x402585b8        0x0 build/app_app.a(ArduinoJson.o)
 .literal._ZN11ArduinoJson10JsonObject13createArrayAtIRK6StringEERNS_9JsonArrayET_
                0x402585b8        0x0 build/app_app.a(ArduinoJson.o)
 .literal._ZN11ArduinoJson10JsonObject14createObjectAtIRK6StringEERS0_T_
                0x402585b8        0x0 build/app_app.a(ArduinoJson.o)
 .literal._ZNK11ArduinoJson11JsonVariant2asIPKcEET_v
                0x402585b8        0x0 build/app_app.a(ArduinoJson.o)
 .literal._ZNK11ArduinoJson11JsonVariant2asIdEET_v
                0x402585b8        0x0 build/app_app.a(ArduinoJson.o)
 .literal._ZNK11ArduinoJson11JsonVariant2asIlEET_v
                0x402585b8        0x0 build/app_app.a(ArduinoJson.o)
 .literal._ZNK11ArduinoJson11JsonVariant2isIlEEbv
                0x402585b8        0x0 build/app_app.a(ArduinoJson.o)
 .literal._ZNK11ArduinoJson11JsonVariant2isIdEEbv
                0x402585b8        0x0 build/app_app.a(ArduinoJson.o)
 .literal._ZNK11ArduinoJson11JsonVariant7writeToERNS_9Internals10JsonWriterE
                0x402585b8        0x0 build/app_app.a(ArduinoJson.o)
 .literal._ZNK11ArduinoJson9JsonArray7writeToERNS_9Internals10JsonWriterE
                0x402585b8        0x0 build/app_app.a(ArduinoJson.o)
 .literal._ZNK11ArduinoJson10JsonObject7writeToERNS_9Internals10JsonWriterE
                0x402585b8        0x0 build/app_app.a(ArduinoJson.o)
 .literal._ZNK11ArduinoJson11JsonVariant2asI6StringEET_v
                0x402585b8        0x0 build/app_app.a(ArduinoJson.o)
 .literal.startup._GLOBAL__sub_I__ZN11ArduinoJson9Internals13IndentedPrint5writeEh
                0x402585b8        0x0 build/app_app.a(ArduinoJson.o)
 .text._ZN11ArduinoJson9Internals13IndentedPrint5writeEh
                0x402585b8       0x72 build/app_app.a(ArduinoJson.o)
                0x402585b8                ArduinoJson::Internals::IndentedPrint::write(unsigned char)
 *fill*         0x4025862a        0x2 
 .text._ZN11ArduinoJson9Internals19StaticStringBuilder5writeEh
                0x4025862c       0x26 build/app_app.a(ArduinoJson.o)
                0x4025862c                ArduinoJson::Internals::StaticStringBuilder::write(unsigned char)
 *fill*         0x40258652        0x0 
 *fill*         0x40258652        0x2 
 .text._ZN11ArduinoJson9Internals10JsonWriter5writeEc
                0x40258654       0x24 build/app_app.a(ArduinoJson.o)
                0x40258654                ArduinoJson::Internals::JsonWriter::write(char)
 .text._ZN11ArduinoJson9Internals19JsonBufferAllocatednwEjPNS_10JsonBufferE
                0x40258678       0x1f build/app_app.a(ArduinoJson.o)
                0x40258678                ArduinoJson::Internals::JsonBufferAllocated::operator new(unsigned int, ArduinoJson::JsonBuffer*)
 *fill*         0x40258697        0x0 
 *fill*         0x40258697        0x1 
 .text._ZN11ArduinoJson9Internals4ListINS_8JsonPairEEC2EPNS_10JsonBufferE
                0x40258698        0x8 build/app_app.a(ArduinoJson.o)
                0x40258698                ArduinoJson::Internals::List<ArduinoJson::JsonPair>::List(ArduinoJson::JsonBuffer*)
                0x40258698                ArduinoJson::Internals::List<ArduinoJson::JsonPair>::List(ArduinoJson::JsonBuffer*)
 .text._ZNK11ArduinoJson9Internals4ListINS_8JsonPairEE7successEv
                0x402586a0        0xb build/app_app.a(ArduinoJson.o)
                0x402586a0                ArduinoJson::Internals::List<ArduinoJson::JsonPair>::success() const
 *fill*         0x402586ab        0x1 
 .text._ZNK11ArduinoJson9Internals4ListINS_8JsonPairEE4sizeEv
                0x402586ac        0xf build/app_app.a(ArduinoJson.o)
                0x402586ac                ArduinoJson::Internals::List<ArduinoJson::JsonPair>::size() const
 *fill*         0x402586bb        0x1 
 .text._ZN11ArduinoJson9Internals4ListINS_8JsonPairEE5beginEv
                0x402586bc        0x4 build/app_app.a(ArduinoJson.o)
                0x402586bc                ArduinoJson::Internals::List<ArduinoJson::JsonPair>::begin()
 .text._ZN11ArduinoJson9Internals4ListINS_8JsonPairEE3endEv
                0x402586c0        0x4 build/app_app.a(ArduinoJson.o)
                0x402586c0                ArduinoJson::Internals::List<ArduinoJson::JsonPair>::end()
 .text._ZNK11ArduinoJson9Internals4ListINS_8JsonPairEE5beginEv
                0x402586c4        0x4 build/app_app.a(ArduinoJson.o)
                0x402586c4                ArduinoJson::Internals::List<ArduinoJson::JsonPair>::begin() const
 .text._ZNK11ArduinoJson9Internals4ListINS_8JsonPairEE3endEv
                0x402586c8        0x4 build/app_app.a(ArduinoJson.o)
                0x402586c8                ArduinoJson::Internals::List<ArduinoJson::JsonPair>::end() const
 *fill*         0x402586cc        0x0 
 .text._ZN11ArduinoJson9Internals4ListINS_8JsonPairEE10removeNodeEPNS0_8ListNodeIS2_EE
                0x402586cc       0x1f build/app_app.a(ArduinoJson.o)
                0x402586cc                ArduinoJson::Internals::List<ArduinoJson::JsonPair>::removeNode(ArduinoJson::Internals::ListNode<ArduinoJson::JsonPair>*)
 *fill*         0x402586eb        0x1 
 .text._ZN11ArduinoJson9Internals4ListINS_11JsonVariantEEC2EPNS_10JsonBufferE
                0x402586ec        0x8 build/app_app.a(ArduinoJson.o)
                0x402586ec                ArduinoJson::Internals::List<ArduinoJson::JsonVariant>::List(ArduinoJson::JsonBuffer*)
                0x402586ec                ArduinoJson::Internals::List<ArduinoJson::JsonVariant>::List(ArduinoJson::JsonBuffer*)
 .text._ZNK11ArduinoJson9Internals4ListINS_11JsonVariantEE7successEv
                0x402586f4        0xb build/app_app.a(ArduinoJson.o)
                0x402586f4                ArduinoJson::Internals::List<ArduinoJson::JsonVariant>::success() const
 *fill*         0x402586ff        0x1 
 .text._ZNK11ArduinoJson9Internals4ListINS_11JsonVariantEE4sizeEv
                0x40258700        0xf build/app_app.a(ArduinoJson.o)
                0x40258700                ArduinoJson::Internals::List<ArduinoJson::JsonVariant>::size() const
 *fill*         0x4025870f        0x1 
 .text._ZN11ArduinoJson9Internals4ListINS_11JsonVariantEE5beginEv
                0x40258710        0x4 build/app_app.a(ArduinoJson.o)
                0x40258710                ArduinoJson::Internals::List<ArduinoJson::JsonVariant>::begin()
 .text._ZN11ArduinoJson9Internals4ListINS_11JsonVariantEE3endEv
                0x40258714        0x4 build/app_app.a(ArduinoJson.o)
                0x40258714                ArduinoJson::Internals::List<ArduinoJson::JsonVariant>::end()
 .text._ZNK11ArduinoJson9Internals4ListINS_11JsonVariantEE5beginEv
                0x40258718        0x4 build/app_app.a(ArduinoJson.o)
                0x40258718                ArduinoJson::Internals::List<ArduinoJson::JsonVariant>::begin() const
 .text._ZNK11ArduinoJson9Internals4ListINS_11JsonVariantEE3endEv
                0x4025871c        0x4 build/app_app.a(ArduinoJson.o)
                0x4025871c                ArduinoJson::Internals::List<ArduinoJson::JsonVariant>::end() const
 *fill*         0x40258720        0x0 
 .text._ZN11ArduinoJson9Internals4ListINS_11JsonVariantEE10removeNodeEPNS0_8ListNodeIS2_EE
                0x40258720       0x1f build/app_app.a(ArduinoJson.o)
                0x40258720                ArduinoJson::Internals::List<ArduinoJson::JsonVariant>::removeNode(ArduinoJson::Internals::ListNode<ArduinoJson::JsonVariant>*)
 *fill*         0x4025873f        0x0 
 *fill*         0x4025873f        0x0 
 *fill*         0x4025873f        0x0 
 *fill*         0x4025873f        0x0 
 *fill*         0x4025873f        0x1 
 .text._ZN11ArduinoJson9Internals21skipSpacesAndCommentsEPKc
                0x40258740       0x74 build/app_app.a(ArduinoJson.o)
                0x40258740                ArduinoJson::Internals::skipSpacesAndComments(char const*)
 *fill*         0x402587b4        0x0 
 .text._ZNK11ArduinoJson9JsonArray9getNodeAtEj
                0x402587b4        0xf build/app_app.a(ArduinoJson.o)
                0x402587b4                ArduinoJson::JsonArray::getNodeAt(unsigned int) const
 *fill*         0x402587c3        0x0 
 *fill*         0x402587c3        0x0 
 *fill*         0x402587c3        0x0 
 *fill*         0x402587c3        0x0 
 *fill*         0x402587c3        0x0 
 *fill*         0x402587c3        0x0 
 *fill*         0x402587c3        0x0 
 *fill*         0x402587c3        0x0 
 *fill*         0x402587c3        0x0 
 *fill*         0x402587c3        0x0 
 *fill*         0x402587c3        0x0 
 *fill*         0x402587c3        0x0 
 *fill*         0x402587c3        0x0 
 *fill*         0x402587c3        0x0 
 *fill*         0x402587c3        0x0 
 *fill*         0x402587c3        0x0 
 *fill*         0x402587c3        0x0 
 *fill*         0x402587c3        0x0 
 *fill*         0x402587c3        0x0 
 *fill*         0x402587c3        0x0 
 *fill*         0x402587c3        0x0 
 *fill*         0x402587c3        0x0 
 *fill*         0x402587c3        0x0 
 *fill*         0x402587c3        0x0 
 *fill*         0x402587c3        0x0 
 *fill*         0x402587c3        0x1 
 .literal._ZN15CommandDelegateC2Ev
                0x402587c4        0x0 build/app_app.a(CommandDelegate.o)
 .literal._ZN15CommandDelegateC2E6StringS0_S0_8DelegateIFvS0_P13CommandOutputEE
                0x402587c4        0x0 build/app_app.a(CommandDelegate.o)
 .literal._ZN15CommandDelegateD2Ev
                0x402587c4        0x0 build/app_app.a(CommandDelegate.o)
 .literal.startup._GLOBAL__sub_I__ZN15CommandDelegateC2Ev
                0x402587c4        0x0 build/app_app.a(CommandDelegate.o)
 *fill*         0x402587c4        0x0 
 *fill*         0x402587c4        0x0 
 *fill*         0x402587c4        0x0 
 *fill*         0x402587c4        0x0 
 .literal._ZN8DateTimeC2Ev
                0x402587c4        0x0 build/app_app.a(DateTime.o)
 .literal._ZN8DateTime7setTimeEaaaaas
                0x402587c4        0x0 build/app_app.a(DateTime.o)
 .literal._ZN8DateTime6isNullEv
                0x402587c4        0x0 build/app_app.a(DateTime.o)
 .literal._ZN8DateTime13parseHttpDateE6String
                0x402587c4        0x0 build/app_app.a(DateTime.o)
 .literal._ZN8DateTime17toShortDateStringEv
                0x402587c4        0x0 build/app_app.a(DateTime.o)
 .literal._ZN8DateTime17toShortTimeStringEb
                0x402587c4        0x0 build/app_app.a(DateTime.o)
 .literal._ZN8DateTime20toFullDateTimeStringEv
                0x402587c4        0x0 build/app_app.a(DateTime.o)
 .literal._ZN8DateTime19convertFromUnixTimeElPaS0_S0_S0_S0_S0_Ps
                0x402587c4        0x0 build/app_app.a(DateTime.o)
 .literal._ZN8DateTime7setTimeEl
                0x402587c4        0x0 build/app_app.a(DateTime.o)
 .literal._ZN8DateTimeC2El
                0x402587c4        0x0 build/app_app.a(DateTime.o)
 .literal._ZN8DateTime17convertToUnixTimeEaaaaas
                0x402587c4        0x0 build/app_app.a(DateTime.o)
 .literal._ZN8DateTime10toUnixTimeEv
                0x402587c4        0x0 build/app_app.a(DateTime.o)
 .literal._ZN8DateTime15addMillisecondsEl
                0x402587c4        0x0 build/app_app.a(DateTime.o)
 .text._ZN8DateTimeC2Ev
                0x402587c4       0x1e build/app_app.a(DateTime.o)
                0x402587c4                DateTime::DateTime()
                0x402587c4                DateTime::DateTime()
 *fill*         0x402587e2        0x2 
 .text._ZN8DateTime7setTimeEaaaaas
                0x402587e4       0x1c build/app_app.a(DateTime.o)
                0x402587e4                DateTime::setTime(signed char, signed char, signed char, signed char, signed char, short)
 .text._ZN8DateTime6isNullEv
                0x40258800       0x36 build/app_app.a(DateTime.o)
                0x40258800                DateTime::isNull()
 *fill*         0x40258836        0x0 
 *fill*         0x40258836        0x0 
 *fill*         0x40258836        0x0 
 *fill*         0x40258836        0x0 
 *fill*         0x40258836        0x0 
 *fill*         0x40258836        0x0 
 *fill*         0x40258836        0x0 
 *fill*         0x40258836        0x0 
 *fill*         0x40258836        0x2 
 .literal.spiffs_stat_pix
                0x40258838        0x0 build/app_app.a(spiffs_hydrogen.o)
 .literal.spiffs_read_dir_v
                0x40258838        0x0 build/app_app.a(spiffs_hydrogen.o)
 .literal.spiffs_hydro_write$isra$0
                0x40258838        0x0 build/app_app.a(spiffs_hydrogen.o)
 .literal.spiffs_fflush_cache
                0x40258838        0x0 build/app_app.a(spiffs_hydrogen.o)
 .literal.SPIFFS_mounted
                0x40258838        0x0 build/app_app.a(spiffs_hydrogen.o)
 .literal.SPIFFS_format
                0x40258838        0x0 build/app_app.a(spiffs_hydrogen.o)
 .literal.SPIFFS_mount
                0x40258838        0x0 build/app_app.a(spiffs_hydrogen.o)
 .literal.SPIFFS_unmount
                0x40258838        0x0 build/app_app.a(spiffs_hydrogen.o)
 .literal.SPIFFS_errno
                0x40258838        0x0 build/app_app.a(spiffs_hydrogen.o)
 .literal.SPIFFS_clearerr
                0x40258838        0x0 build/app_app.a(spiffs_hydrogen.o)
 .literal.SPIFFS_creat
                0x40258838        0x0 build/app_app.a(spiffs_hydrogen.o)
 .literal.SPIFFS_open
                0x40258838        0x0 build/app_app.a(spiffs_hydrogen.o)
 .literal.SPIFFS_open_by_dirent
                0x40258838        0x0 build/app_app.a(spiffs_hydrogen.o)
 .literal.SPIFFS_read
                0x40258838        0x0 build/app_app.a(spiffs_hydrogen.o)
 .literal.SPIFFS_write
                0x40258838        0x0 build/app_app.a(spiffs_hydrogen.o)
 .literal.SPIFFS_lseek
                0x40258838        0x0 build/app_app.a(spiffs_hydrogen.o)
 .literal.SPIFFS_remove
                0x40258838        0x0 build/app_app.a(spiffs_hydrogen.o)
 .literal.SPIFFS_fremove
                0x40258838        0x0 build/app_app.a(spiffs_hydrogen.o)
 .literal.SPIFFS_stat
                0x40258838        0x0 build/app_app.a(spiffs_hydrogen.o)
 .literal.SPIFFS_fstat
                0x40258838        0x0 build/app_app.a(spiffs_hydrogen.o)
 .literal.SPIFFS_fflush
                0x40258838        0x0 build/app_app.a(spiffs_hydrogen.o)
 .literal.SPIFFS_close
                0x40258838        0x0 build/app_app.a(spiffs_hydrogen.o)
 .literal.SPIFFS_rename
                0x40258838        0x0 build/app_app.a(spiffs_hydrogen.o)
 .literal.SPIFFS_opendir
                0x40258838        0x0 build/app_app.a(spiffs_hydrogen.o)
 .literal.SPIFFS_readdir
                0x40258838        0x0 build/app_app.a(spiffs_hydrogen.o)
 .literal.SPIFFS_closedir
                0x40258838        0x0 build/app_app.a(spiffs_hydrogen.o)
 .literal.SPIFFS_check
                0x40258838        0x0 build/app_app.a(spiffs_hydrogen.o)
 .literal.SPIFFS_info
                0x40258838        0x0 build/app_app.a(spiffs_hydrogen.o)
 .literal.SPIFFS_gc_quick
                0x40258838        0x0 build/app_app.a(spiffs_hydrogen.o)
 .literal.SPIFFS_gc
                0x40258838        0x0 build/app_app.a(spiffs_hydrogen.o)
 .literal.SPIFFS_eof
                0x40258838        0x0 build/app_app.a(spiffs_hydrogen.o)
 .literal.SPIFFS_tell
                0x40258838        0x0 build/app_app.a(spiffs_hydrogen.o)
 *fill*         0x40258838        0x0 
 *fill*         0x40258838        0x0 
 *fill*         0x40258838        0x0 
 *fill*         0x40258838        0x0 
 .text.SPIFFS_mounted
                0x40258838        0xc build/app_app.a(spiffs_hydrogen.o)
                0x40258838                SPIFFS_mounted
 *fill*         0x40258844        0x0 
 *fill*         0x40258844        0x0 
 .text.SPIFFS_errno
                0x40258844        0x5 build/app_app.a(spiffs_hydrogen.o)
                0x40258844                SPIFFS_errno
 *fill*         0x40258849        0x3 
 .text.SPIFFS_clearerr
                0x4025884c        0x7 build/app_app.a(spiffs_hydrogen.o)
                0x4025884c                SPIFFS_clearerr
 *fill*         0x40258853        0x0 
 *fill*         0x40258853        0x0 
 *fill*         0x40258853        0x0 
 *fill*         0x40258853        0x0 
 *fill*         0x40258853        0x0 
 *fill*         0x40258853        0x0 
 *fill*         0x40258853        0x0 
 *fill*         0x40258853        0x0 
 *fill*         0x40258853        0x0 
 *fill*         0x40258853        0x0 
 *fill*         0x40258853        0x0 
 *fill*         0x40258853        0x0 
 *fill*         0x40258853        0x0 
 *fill*         0x40258853        0x0 
 *fill*         0x40258853        0x0 
 *fill*         0x40258853        0x0 
 *fill*         0x40258853        0x0 
 *fill*         0x40258853        0x0 
 *fill*         0x40258853        0x0 
 *fill*         0x40258853        0x1 
 .literal.spiffs_obj_lu_find_id_and_span_v
                0x40258854        0x0 build/app_app.a(spiffs_nucleus.o)
 .literal.spiffs_page_data_check
                0x40258854        0x0 build/app_app.a(spiffs_nucleus.o)
 .literal.spiffs_page_index_check
                0x40258854        0x0 build/app_app.a(spiffs_nucleus.o)
 .literal.spiffs_object_find_object_index_header_by_name_v
                0x40258854        0x0 build/app_app.a(spiffs_nucleus.o)
 .literal.spiffs_obj_lu_find_free_obj_id_bitmap_v
                0x40258854        0x0 build/app_app.a(spiffs_nucleus.o)
 .literal.spiffs_obj_lu_scan_v
                0x40258854        0x0 build/app_app.a(spiffs_nucleus.o)
 .literal.spiffs_obj_lu_find_free_obj_id_compact_v
                0x40258854        0x0 build/app_app.a(spiffs_nucleus.o)
 .literal.spiffs_phys_cpy
                0x40258854        0x0 build/app_app.a(spiffs_nucleus.o)
 .literal.spiffs_obj_lu_find_entry_visitor
                0x40258854        0x0 build/app_app.a(spiffs_nucleus.o)
 .literal.spiffs_erase_block
                0x40258854        0x0 build/app_app.a(spiffs_nucleus.o)
 .literal.spiffs_obj_lu_scan
                0x40258854        0x0 build/app_app.a(spiffs_nucleus.o)
 .literal.spiffs_obj_lu_find_id
                0x40258854        0x0 build/app_app.a(spiffs_nucleus.o)
 .literal.spiffs_obj_lu_find_free
                0x40258854        0x0 build/app_app.a(spiffs_nucleus.o)
 .literal.spiffs_obj_lu_find_id_and_span
                0x40258854        0x0 build/app_app.a(spiffs_nucleus.o)
 .literal.spiffs_obj_lu_find_id_and_span_by_phdr
                0x40258854        0x0 build/app_app.a(spiffs_nucleus.o)
 .literal.spiffs_page_allocate_data
                0x40258854        0x0 build/app_app.a(spiffs_nucleus.o)
 .literal.spiffs_page_delete
                0x40258854        0x0 build/app_app.a(spiffs_nucleus.o)
 .literal.spiffs_page_move
                0x40258854        0x0 build/app_app.a(spiffs_nucleus.o)
 .literal.spiffs_cb_object_event
                0x40258854        0x0 build/app_app.a(spiffs_nucleus.o)
 .literal.spiffs_object_create
                0x40258854        0x0 build/app_app.a(spiffs_nucleus.o)
 .literal.spiffs_object_update_index_hdr
                0x40258854        0x0 build/app_app.a(spiffs_nucleus.o)
 .literal.spiffs_object_open_by_page
                0x40258854        0x0 build/app_app.a(spiffs_nucleus.o)
 .literal.spiffs_object_open_by_id
                0x40258854        0x0 build/app_app.a(spiffs_nucleus.o)
 .literal.spiffs_object_append
                0x40258854        0x0 build/app_app.a(spiffs_nucleus.o)
 .literal.spiffs_object_modify
                0x40258854        0x0 build/app_app.a(spiffs_nucleus.o)
 .literal.spiffs_object_find_object_index_header_by_name
                0x40258854        0x0 build/app_app.a(spiffs_nucleus.o)
 .literal.spiffs_object_truncate
                0x40258854        0x0 build/app_app.a(spiffs_nucleus.o)
 .literal.spiffs_object_read
                0x40258854        0x0 build/app_app.a(spiffs_nucleus.o)
 .literal.spiffs_obj_lu_find_free_obj_id
                0x40258854        0x0 build/app_app.a(spiffs_nucleus.o)
 .literal.spiffs_fd_find_new
                0x40258854        0x0 build/app_app.a(spiffs_nucleus.o)
 .literal.spiffs_fd_return
                0x40258854        0x0 build/app_app.a(spiffs_nucleus.o)
 .literal.spiffs_fd_get
                0x40258854        0x0 build/app_app.a(spiffs_nucleus.o)
 *fill*         0x40258854        0x0 
 *fill*         0x40258854        0x0 
 *fill*         0x40258854        0x0 
 *fill*         0x40258854        0x0 
 *fill*         0x40258854        0x0 
 *fill*         0x40258854        0x0 
 *fill*         0x40258854        0x0 
 *fill*         0x40258854        0x0 
 *fill*         0x40258854        0x0 
 *fill*         0x40258854        0x0 
 *fill*         0x40258854        0x0 
 *fill*         0x40258854        0x0 
 *fill*         0x40258854        0x0 
 *fill*         0x40258854        0x0 
 *fill*         0x40258854        0x0 
 *fill*         0x40258854        0x0 
 *fill*         0x40258854        0x0 
 *fill*         0x40258854        0x0 
 *fill*         0x40258854        0x0 
 *fill*         0x40258854        0x0 
 *fill*         0x40258854        0x0 
 *fill*         0x40258854        0x0 
 .literal.api_spiffs_erase
                0x40258854        0x0 build/app_app.a(spiffs_sming.o)
 .literal.api_spiffs_read
                0x40258854        0x0 build/app_app.a(spiffs_sming.o)
 .literal.api_spiffs_write
                0x40258854        0x0 build/app_app.a(spiffs_sming.o)
 .literal.spiffs_get_storage_config
                0x40258854        0x0 build/app_app.a(spiffs_sming.o)
 .literal.spiffs_format_internal
                0x40258854        0x0 build/app_app.a(spiffs_sming.o)
 .literal.spiffs_mount_internal
                0x40258854        0x0 build/app_app.a(spiffs_sming.o)
 .literal.spiffs_mount_noformat
                0x40258854        0x0 build/app_app.a(spiffs_sming.o)
 .literal.spiffs_mount
                0x40258854        0x0 build/app_app.a(spiffs_sming.o)
 .literal.spiffs_mount_manual
                0x40258854        0x0 build/app_app.a(spiffs_sming.o)
 .literal.spiffs_unmount
                0x40258854        0x0 build/app_app.a(spiffs_sming.o)
 .literal.spiffs_format
                0x40258854        0x0 build/app_app.a(spiffs_sming.o)
 .literal.spiffs_format_manual
                0x40258854        0x0 build/app_app.a(spiffs_sming.o)
 .literal.test_spiffs
                0x40258854        0x0 build/app_app.a(spiffs_sming.o)
 *fill*         0x40258854        0x0 
 *fill*         0x40258854        0x0 
 *fill*         0x40258854        0x0 
 *fill*         0x40258854        0x0 
 *fill*         0x40258854        0x0 
 *fill*         0x40258854        0x0 
 *fill*         0x40258854        0x0 
 *fill*         0x40258854        0x0 
 *fill*         0x40258854        0x0 
 *fill*         0x40258854        0x0 
 *fill*         0x40258854        0x0 
 *fill*         0x40258854        0x0 
 *fill*         0x40258854        0x0 
 .literal._ZL11safe_appendPcjPKc
                0x40258854        0x0 build/app_app.a(escape.o)
 .literal.uri_escape_len
                0x40258854        0x0 build/app_app.a(escape.o)
 .literal.uri_escape
                0x40258854        0x0 build/app_app.a(escape.o)
 .literal.uri_unescape
                0x40258854        0x0 build/app_app.a(escape.o)
 .literal.html_escape_len
                0x40258854        0x0 build/app_app.a(escape.o)
 .literal.html_escape
                0x40258854        0x0 build/app_app.a(escape.o)
 *fill*         0x40258854        0x0 
 .text.uri_escape_len
                0x40258854       0x81 build/app_app.a(escape.o)
                0x40258854                uri_escape_len
 *fill*         0x402588d5        0x0 
 *fill*         0x402588d5        0x0 
 *fill*         0x402588d5        0x3 
 .text.html_escape_len
                0x402588d8       0x4a build/app_app.a(escape.o)
                0x402588d8                html_escape_len
 *fill*         0x40258922        0x0 
 *fill*         0x40258922        0x2 
 .literal.flashmem_erase_sector
                0x40258924        0x0 build/app_app.a(flashmem.o)
 .literal.flashmem_get_info
                0x40258924        0x0 build/app_app.a(flashmem.o)
 .literal.flashmem_get_size_type
                0x40258924        0x0 build/app_app.a(flashmem.o)
 .literal.flashmem_get_size_bytes
                0x40258924        0x0 build/app_app.a(flashmem.o)
 .literal.flashmem_get_size_sectors
                0x40258924        0x0 build/app_app.a(flashmem.o)
 .literal.flashmem_find_sector
                0x40258924        0x0 build/app_app.a(flashmem.o)
 .literal.flashmem_get_sector_of_address
                0x40258924        0x0 build/app_app.a(flashmem.o)
 .literal.flashmem_write_internal
                0x40258924        0x0 build/app_app.a(flashmem.o)
 .literal.flashmem_read_internal
                0x40258924        0x0 build/app_app.a(flashmem.o)
 .literal.flashmem_write
                0x40258924        0x0 build/app_app.a(flashmem.o)
 .literal.flashmem_read
                0x40258924        0x0 build/app_app.a(flashmem.o)
 .literal.flashmem_get_first_free_block_address
                0x40258924        0x0 build/app_app.a(flashmem.o)
 *fill*         0x40258924        0x0 
 *fill*         0x40258924        0x0 
 *fill*         0x40258924        0x0 
 *fill*         0x40258924        0x0 
 *fill*         0x40258924        0x0 
 *fill*         0x40258924        0x0 
 *fill*         0x40258924        0x0 
 *fill*         0x40258924        0x0 
 *fill*         0x40258924        0x0 
 *fill*         0x40258924        0x0 
 .literal.spiffs_cache_page_get
                0x40258924        0x0 build/app_app.a(spiffs_cache.o)
 .literal.spiffs_cache_page_free
                0x40258924        0x0 build/app_app.a(spiffs_cache.o)
 .literal.spiffs_cache_page_allocate
                0x40258924        0x0 build/app_app.a(spiffs_cache.o)
 .literal.spiffs_cache_page_remove_oldest$constprop$0
                0x40258924        0x0 build/app_app.a(spiffs_cache.o)
 .literal.spiffs_cache_drop_page
                0x40258924        0x0 build/app_app.a(spiffs_cache.o)
 .literal.spiffs_phys_rd
                0x40258924        0x0 build/app_app.a(spiffs_cache.o)
 .literal.spiffs_phys_wr
                0x40258924        0x0 build/app_app.a(spiffs_cache.o)
 .literal.spiffs_cache_page_get_by_fd
                0x40258924        0x0 build/app_app.a(spiffs_cache.o)
 .literal.spiffs_cache_page_allocate_by_fd
                0x40258924        0x0 build/app_app.a(spiffs_cache.o)
 .literal.spiffs_cache_fd_release
                0x40258924        0x0 build/app_app.a(spiffs_cache.o)
 .literal.spiffs_cache_init
                0x40258924        0x0 build/app_app.a(spiffs_cache.o)
 .text.spiffs_cache_page_get
                0x40258924       0x48 build/app_app.a(spiffs_cache.o)
 .text.spiffs_cache_page_free
                0x4025896c       0x6e build/app_app.a(spiffs_cache.o)
 *fill*         0x402589da        0x2 
 .text.spiffs_cache_page_allocate
                0x402589dc       0x40 build/app_app.a(spiffs_cache.o)
 *fill*         0x40258a1c        0x0 
 *fill*         0x40258a1c        0x0 
 *fill*         0x40258a1c        0x0 
 *fill*         0x40258a1c        0x0 
 .text.spiffs_cache_page_get_by_fd
                0x40258a1c       0x46 build/app_app.a(spiffs_cache.o)
                0x40258a1c                spiffs_cache_page_get_by_fd
 *fill*         0x40258a62        0x0 
 *fill*         0x40258a62        0x0 
 *fill*         0x40258a62        0x0 
 *fill*         0x40258a62        0x2 
 .literal.spiffs_object_get_data_page_index_reference
                0x40258a64        0x0 build/app_app.a(spiffs_check.o)
 .literal.spiffs_delete_obj_lazy
                0x40258a64        0x0 build/app_app.a(spiffs_check.o)
 .literal.spiffs_rewrite_index
                0x40258a64        0x0 build/app_app.a(spiffs_check.o)
 .literal.spiffs_rewrite_page
                0x40258a64        0x0 build/app_app.a(spiffs_check.o)
 .literal.spiffs_lookup_check_v
                0x40258a64        0x0 build/app_app.a(spiffs_check.o)
 .literal.spiffs_object_index_consistency_check_v
                0x40258a64        0x0 build/app_app.a(spiffs_check.o)
 .literal.spiffs_lookup_consistency_check
                0x40258a64        0x0 build/app_app.a(spiffs_check.o)
 .literal.spiffs_page_consistency_check
                0x40258a64        0x0 build/app_app.a(spiffs_check.o)
 .literal.spiffs_object_index_consistency_check
                0x40258a64        0x0 build/app_app.a(spiffs_check.o)
 *fill*         0x40258a64        0x0 
 *fill*         0x40258a64        0x0 
 *fill*         0x40258a64        0x0 
 *fill*         0x40258a64        0x0 
 *fill*         0x40258a64        0x0 
 .literal.spiffs_gc_erase_block
                0x40258a64        0x0 build/app_app.a(spiffs_gc.o)
 .literal.spiffs_gc_quick
                0x40258a64        0x0 build/app_app.a(spiffs_gc.o)
 .literal.spiffs_gc_erase_page_stats
                0x40258a64        0x0 build/app_app.a(spiffs_gc.o)
 .literal.spiffs_gc_find_candidate
                0x40258a64        0x0 build/app_app.a(spiffs_gc.o)
 .literal.spiffs_gc_clean
                0x40258a64        0x0 build/app_app.a(spiffs_gc.o)
 .literal.spiffs_gc_check
                0x40258a64        0x0 build/app_app.a(spiffs_gc.o)
 *fill*         0x40258a64        0x0 
 *fill*         0x40258a64        0x0 
 *fill*         0x40258a64        0x0 
                0x40258a64                _irom0_text_end = ABSOLUTE (.)
                0x40258a64                _flash_code_end = ABSOLUTE (.)
                0x400040c0                PROVIDE (SPI_sector_erase, 0x400040c0)
                0x40004174                PROVIDE (SPI_page_program, 0x40004174)
                0x400042ac                PROVIDE (SPI_read_data, 0x400042ac)
                0x400043c8                PROVIDE (SPI_read_status, 0x400043c8)
                0x40004400                PROVIDE (SPI_write_status, 0x40004400)
                0x4000443c                PROVIDE (SPI_write_enable, 0x4000443c)
                0x4000448c                PROVIDE (Wait_SPI_Idle, 0x4000448c)
                0x400044c0                PROVIDE (Enable_QMode, 0x400044c0)
                0x40004508                PROVIDE (Disable_QMode, 0x40004508)
                0x40004678                PROVIDE (Cache_Read_Enable, 0x40004678)
                0x400047f0                PROVIDE (Cache_Read_Disable, 0x400047f0)
                0x40004f40                PROVIDE (lldesc_build_chain, 0x40004f40)
                0x40005050                PROVIDE (lldesc_num2link, 0x40005050)
                0x4000507c                PROVIDE (lldesc_set_owner, 0x4000507c)
                0x4000c538                PROVIDE (__adddf3, 0x4000c538)
                0x4000c180                PROVIDE (__addsf3, 0x4000c180)
                0x4000cb94                PROVIDE (__divdf3, 0x4000cb94)
                0x4000ce60                PROVIDE (__divdi3, 0x4000ce60)
                0x4000dc88                PROVIDE (__divsi3, 0x4000dc88)
                0x4000cdfc                PROVIDE (__extendsfdf2, 0x4000cdfc)
                0x4000ccb8                PROVIDE (__fixdfsi, 0x4000ccb8)
                0x4000cd00                PROVIDE (__fixunsdfsi, 0x4000cd00)
                0x4000c4c4                PROVIDE (__fixunssfsi, 0x4000c4c4)
                0x4000e2f0                PROVIDE (__floatsidf, 0x4000e2f0)
                0x4000e2ac                PROVIDE (__floatsisf, 0x4000e2ac)
                0x4000e2e8                PROVIDE (__floatunsidf, 0x4000e2e8)
                0x4000e2a4                PROVIDE (__floatunsisf, 0x4000e2a4)
                0x4000c8f0                PROVIDE (__muldf3, 0x4000c8f0)
                0x40000650                PROVIDE (__muldi3, 0x40000650)
                0x4000c3dc                PROVIDE (__mulsf3, 0x4000c3dc)
                0x4000c688                PROVIDE (__subdf3, 0x4000c688)
                0x4000c268                PROVIDE (__subsf3, 0x4000c268)
                0x4000cd5c                PROVIDE (__truncdfsf2, 0x4000cd5c)
                0x4000d310                PROVIDE (__udivdi3, 0x4000d310)
                0x4000e21c                PROVIDE (__udivsi3, 0x4000e21c)
                0x4000d770                PROVIDE (__umoddi3, 0x4000d770)
                0x4000e268                PROVIDE (__umodsi3, 0x4000e268)
                0x4000dcf0                PROVIDE (__umulsidi3, 0x4000dcf0)
                0x40002ae8                PROVIDE (bzero, 0x40002ae8)
                0x400018d4                PROVIDE (memcmp, 0x400018d4)
                0x400018b4                PROVIDE (memcpy, 0x400018b4)
                0x400018c4                PROVIDE (memmove, 0x400018c4)
                0x400018a4                PROVIDE (memset, 0x400018a4)
                0x40002aa8                PROVIDE (strcmp, 0x40002aa8)
                0x40002a88                PROVIDE (strcpy, 0x40002a88)
                0x40002ac8                PROVIDE (strlen, 0x40002ac8)
                0x40002ab8                PROVIDE (strncmp, 0x40002ab8)
                0x40002a98                PROVIDE (strncpy, 0x40002a98)
                0x40002ad8                PROVIDE (strstr, 0x40002ad8)
OUTPUT(build/app.out elf32-xtensa-le)

.xtensa.info    0x00000000       0x38
 .xtensa.info   0x00000000       0x38 c:/Espressif/ESP8266_RTOS_SDK/lib\libmain.a(xtensa_vectors.o)
 .xtensa.info   0x00000000        0x0 c:/Espressif/ESP8266_RTOS_SDK/lib\libmain.a(app_main.o)
 .xtensa.info   0x00000000        0x0 c:/Espressif/ESP8266_RTOS_SDK/lib\libmain.a(ets_timer.o)
 .xtensa.info   0x00000000        0x0 c:/Espressif/ESP8266_RTOS_SDK/lib\libmain.a(misc.o)
 .xtensa.info   0x00000000        0x0 c:/Espressif/ESP8266_RTOS_SDK/lib\libmain.a(printf-stdarg.o)
 .xtensa.info   0x00000000        0x0 c:/Espressif/ESP8266_RTOS_SDK/lib\libmain.a(spi_flash.o)
 .xtensa.info   0x00000000        0x0 c:/Espressif/ESP8266_RTOS_SDK/lib\libmain.a(uart.o)
 .xtensa.info   0x00000000        0x0 c:/Espressif/ESP8266_RTOS_SDK/lib\libmain.a(user_interface.o)
 .xtensa.info   0x00000000        0x0 c:/Espressif/ESP8266_RTOS_SDK/lib\libmain.a(os_cpu_a.o)
 .xtensa.info   0x00000000        0x0 c:/Espressif/ESP8266_RTOS_SDK/lib\libmain.a(xtensa_context.o)
 .xtensa.info   0x00000000        0x0 c:/Espressif/ESP8266_RTOS_SDK/lib\libfreertos.a(heap_4.o)
 .xtensa.info   0x00000000        0x0 c:/Espressif/ESP8266_RTOS_SDK/lib\libfreertos.a(port.o)
 .xtensa.info   0x00000000        0x0 c:/Espressif/ESP8266_RTOS_SDK/lib\libfreertos.a(queue.o)
 .xtensa.info   0x00000000        0x0 c:/Espressif/ESP8266_RTOS_SDK/lib\libfreertos.a(tasks.o)
 .xtensa.info   0x00000000        0x0 c:/Espressif/ESP8266_RTOS_SDK/lib\libfreertos.a(timers.o)
 .xtensa.info   0x00000000        0x0 c:/Espressif/ESP8266_RTOS_SDK/lib\libfreertos.a(list.o)
 .xtensa.info   0x00000000        0x0 c:/Espressif/ESP8266_RTOS_SDK/lib\liblwip.a(dhcp.o)
 .xtensa.info   0x00000000        0x0 c:/Espressif/ESP8266_RTOS_SDK/lib\liblwip.a(dhcpserver.o)
 .xtensa.info   0x00000000        0x0 c:/Espressif/ESP8266_RTOS_SDK/lib\liblwip.a(dns.o)
 .xtensa.info   0x00000000        0x0 c:/Espressif/ESP8266_RTOS_SDK/lib\liblwip.a(etharp.o)
 .xtensa.info   0x00000000        0x0 c:/Espressif/ESP8266_RTOS_SDK/lib\liblwip.a(ip4_addr.o)
 .xtensa.info   0x00000000        0x0 c:/Espressif/ESP8266_RTOS_SDK/lib\liblwip.a(ip4.o)
 .xtensa.info   0x00000000        0x0 c:/Espressif/ESP8266_RTOS_SDK/lib\liblwip.a(ip6.o)
 .xtensa.info   0x00000000        0x0 c:/Espressif/ESP8266_RTOS_SDK/lib\liblwip.a(memp.o)
 .xtensa.info   0x00000000        0x0 c:/Espressif/ESP8266_RTOS_SDK/lib\liblwip.a(mld6.o)
 .xtensa.info   0x00000000        0x0 c:/Espressif/ESP8266_RTOS_SDK/lib\liblwip.a(nd6.o)
 .xtensa.info   0x00000000        0x0 c:/Espressif/ESP8266_RTOS_SDK/lib\liblwip.a(netif.o)
 .xtensa.info   0x00000000        0x0 c:/Espressif/ESP8266_RTOS_SDK/lib\liblwip.a(pbuf.o)
 .xtensa.info   0x00000000        0x0 c:/Espressif/ESP8266_RTOS_SDK/lib\liblwip.a(raw.o)
 .xtensa.info   0x00000000        0x0 c:/Espressif/ESP8266_RTOS_SDK/lib\liblwip.a(sys_arch.o)
 .xtensa.info   0x00000000        0x0 c:/Espressif/ESP8266_RTOS_SDK/lib\liblwip.a(tcp_in.o)
 .xtensa.info   0x00000000        0x0 c:/Espressif/ESP8266_RTOS_SDK/lib\liblwip.a(tcpip.o)
 .xtensa.info   0x00000000        0x0 c:/Espressif/ESP8266_RTOS_SDK/lib\liblwip.a(tcp.o)
 .xtensa.info   0x00000000        0x0 c:/Espressif/ESP8266_RTOS_SDK/lib\liblwip.a(tcp_out.o)
 .xtensa.info   0x00000000        0x0 c:/Espressif/ESP8266_RTOS_SDK/lib\liblwip.a(timers.o)
 .xtensa.info   0x00000000        0x0 c:/Espressif/ESP8266_RTOS_SDK/lib\liblwip.a(udp.o)
 .xtensa.info   0x00000000        0x0 c:/Espressif/ESP8266_RTOS_SDK/lib\liblwip.a(api_msg.o)
 .xtensa.info   0x00000000        0x0 c:/Espressif/ESP8266_RTOS_SDK/lib\liblwip.a(icmp6.o)
 .xtensa.info   0x00000000        0x0 c:/Espressif/ESP8266_RTOS_SDK/lib\liblwip.a(icmp.o)
 .xtensa.info   0x00000000        0x0 c:/Espressif/ESP8266_RTOS_SDK/lib\liblwip.a(inet_chksum.o)
 .xtensa.info   0x00000000        0x0 c:/Espressif/ESP8266_RTOS_SDK/lib\liblwip.a(init.o)
 .xtensa.info   0x00000000        0x0 c:/Espressif/ESP8266_RTOS_SDK/lib\liblwip.a(ip6_addr.o)
 .xtensa.info   0x00000000        0x0 c:/Espressif/ESP8266_RTOS_SDK/lib\liblwip.a(ip6_frag.o)
 .xtensa.info   0x00000000        0x0 c:/Espressif/ESP8266_RTOS_SDK/lib\liblwip.a(netbuf.o)
 .xtensa.info   0x00000000        0x0 c:/Espressif/ESP8266_RTOS_SDK/lib\liblwip.a(sockets.o)
 .xtensa.info   0x00000000        0x0 c:/Espressif/ESP8266_RTOS_SDK/lib\liblwip.a(api_lib.o)
 .xtensa.info   0x00000000        0x0 c:/Espressif/ESP8266_RTOS_SDK/lib\libminic.a(minic.o)
 .xtensa.info   0x00000000        0x0 build/app_app.a(user_main_sming.o)
 .xtensa.info   0x00000000        0x0 build/app_app.a(Digital.o)
 .xtensa.info   0x00000000        0x0 build/app_app.a(Temp_HardwareSerial.o)
 .xtensa.info   0x00000000        0x0 build/app_app.a(Timer.o)
 .xtensa.info   0x00000000        0x0 build/app_app.a(WifiStation.o)
 .xtensa.info   0x00000000        0x0 build/app_app.a(CQueue.o)
 .xtensa.info   0x00000000        0x0 build/app_app.a(CTask.o)
 .xtensa.info   0x00000000        0x0 build/app_app.a(IPAddress.o)
 .xtensa.info   0x00000000        0x0 build/app_app.a(Print.o)
 .xtensa.info   0x00000000        0x0 build/app_app.a(WString.o)
 .xtensa.info   0x00000000        0x0 build/app_app.a(HttpResponse.o)
 .xtensa.info   0x00000000        0x0 build/app_app.a(HttpServer.o)
 .xtensa.info   0x00000000        0x0 build/app_app.a(HttpServerConnection.o)
 .xtensa.info   0x00000000        0x0 build/app_app.a(TcpClient.o)
 .xtensa.info   0x00000000        0x0 build/app_app.a(TcpConnection.o)
 .xtensa.info   0x00000000        0x0 build/app_app.a(TcpServer.o)
 .xtensa.info   0x00000000        0x0 build/app_app.a(TelnetServer.o)
 .xtensa.info   0x00000000        0x0 build/app_app.a(UdpConnection.o)
 .xtensa.info   0x00000000        0x0 build/app_app.a(WebSocket.o)
 .xtensa.info   0x00000000        0x0 build/app_app.a(CommandExecutor.o)
 .xtensa.info   0x00000000        0x0 build/app_app.a(CommandHandler.o)
 .xtensa.info   0x00000000        0x0 build/app_app.a(CommandOutput.o)
 .xtensa.info   0x00000000        0x0 build/app_app.a(base64.o)
 .xtensa.info   0x00000000        0x0 build/app_app.a(websocket.o)
 .xtensa.info   0x00000000        0x0 build/app_app.a(m_printf.o)
 .xtensa.info   0x00000000        0x0 build/app_app.a(uart.o)
 .xtensa.info   0x00000000        0x0 build/app_app.a(DataSourceStream.o)
 .xtensa.info   0x00000000        0x0 build/app_app.a(FileSystem.o)
 .xtensa.info   0x00000000        0x0 build/app_app.a(SystemClock.o)
 .xtensa.info   0x00000000        0x0 build/app_app.a(stringconversion.o)
 .xtensa.info   0x00000000        0x0 build/app_app.a(SplitString.o)
 .xtensa.info   0x00000000        0x0 build/app_app.a(RTC.o)
 .xtensa.info   0x00000000        0x0 build/app_app.a(HttpRequest.o)
 .xtensa.info   0x00000000        0x0 build/app_app.a(NetUtils.o)
 .xtensa.info   0x00000000        0x0 build/app_app.a(ArduinoJson.o)
 .xtensa.info   0x00000000        0x0 build/app_app.a(CommandDelegate.o)
 .xtensa.info   0x00000000        0x0 build/app_app.a(DateTime.o)
 .xtensa.info   0x00000000        0x0 build/app_app.a(spiffs_hydrogen.o)
 .xtensa.info   0x00000000        0x0 build/app_app.a(spiffs_nucleus.o)
 .xtensa.info   0x00000000        0x0 build/app_app.a(spiffs_sming.o)
 .xtensa.info   0x00000000        0x0 build/app_app.a(escape.o)
 .xtensa.info   0x00000000        0x0 build/app_app.a(flashmem.o)
 .xtensa.info   0x00000000        0x0 build/app_app.a(spiffs_cache.o)
 .xtensa.info   0x00000000        0x0 build/app_app.a(spiffs_check.o)
 .xtensa.info   0x00000000        0x0 build/app_app.a(spiffs_gc.o)
 .xtensa.info   0x00000000        0x0 c:/Espressif/ESP8266_RTOS_SDK/lib\libmicroc.a(isprint.o)
 .xtensa.info   0x00000000        0x0 c:/Espressif/ESP8266_RTOS_SDK/lib\libmicroc.a(isspace.o)
 .xtensa.info   0x00000000        0x0 c:/Espressif/ESP8266_RTOS_SDK/lib\libmicroc.a(tolower.o)
 .xtensa.info   0x00000000        0x0 c:/Espressif/ESP8266_RTOS_SDK/lib\libmicroc.a(toupper.o)
 .xtensa.info   0x00000000        0x0 c:/Espressif/ESP8266_RTOS_SDK/lib\libmicroc.a(isxdigit.o)
 .xtensa.info   0x00000000        0x0 c:/Espressif/ESP8266_RTOS_SDK/lib\libmicroc.a(atof.o)
 .xtensa.info   0x00000000        0x0 c:/Espressif/ESP8266_RTOS_SDK/lib\libmicroc.a(strtod.o)
 .xtensa.info   0x00000000        0x0 c:/Espressif/ESP8266_RTOS_SDK/lib\libmicroc.a(__fpclassify.o)
 .xtensa.info   0x00000000        0x0 c:/Espressif/ESP8266_RTOS_SDK/lib\libmicroc.a(memchr.o)
 .xtensa.info   0x00000000        0x0 c:/Espressif/ESP8266_RTOS_SDK/lib\libmicroc.a(__errno_location.o)
 .xtensa.info   0x00000000        0x0 c:/Espressif/ESP8266_RTOS_SDK/lib\libmicroc.a(floatscan.o)
 .xtensa.info   0x00000000        0x0 c:/Espressif/ESP8266_RTOS_SDK/lib\libmicroc.a(shgetc.o)
 .xtensa.info   0x00000000        0x0 c:/Espressif/ESP8266_RTOS_SDK/lib\libmicroc.a(__uflow.o)
 .xtensa.info   0x00000000        0x0 c:/Espressif/ESP8266_RTOS_SDK/lib\libmicroc.a(__toread.o)
 .xtensa.info   0x00000000        0x0 c:/Espressif/ESP8266_RTOS_SDK/lib\libmicroc.a(__stdio_exit.o)
 .xtensa.info   0x00000000        0x0 c:/Espressif/ESP8266_RTOS_SDK/lib\libmicroc.a(fmodl.o)
 .xtensa.info   0x00000000        0x0 c:/Espressif/ESP8266_RTOS_SDK/lib\libmicroc.a(scalbn.o)
 .xtensa.info   0x00000000        0x0 c:/Espressif/ESP8266_RTOS_SDK/lib\libmicroc.a(scalbnl.o)
 .xtensa.info   0x00000000        0x0 c:/Espressif/ESP8266_RTOS_SDK/lib\libmicroc.a(fmod.o)
 .xtensa.info   0x00000000        0x0 c:/Espressif/ESP8266_RTOS_SDK/lib\libmicrogcc.a(_ashldi3.o)
 .xtensa.info   0x00000000        0x0 c:/Espressif/ESP8266_RTOS_SDK/lib\libmicrogcc.a(_cmpdf2.o)
 .xtensa.info   0x00000000        0x0 c:/Espressif/ESP8266_RTOS_SDK/lib\libmicrogcc.a(_lshrdi3.o)
 .xtensa.info   0x00000000        0x0 c:/Espressif/ESP8266_RTOS_SDK/lib\libmicrogcc.a(_modsi3.o)
 .xtensa.info   0x00000000        0x0 c:/Espressif/ESP8266_RTOS_SDK/lib\libgcc.a(_mulsf3.o)
 .xtensa.info   0x00000000        0x0 c:/espressif/xtensa-lx106-elf/bin/../lib/gcc/xtensa-lx106-elf/5.1.0/../../../../xtensa-lx106-elf/lib\libhal.a(clock.o)
 .xtensa.info   0x00000000        0x0 c:/espressif/xtensa-lx106-elf/bin/../lib/gcc/xtensa-lx106-elf/5.1.0/../../../../xtensa-lx106-elf/lib\libhal.a(int_asm--set_intset.o)
 .xtensa.info   0x00000000        0x0 c:/Espressif/ESP8266_RTOS_SDK/lib\libphy.a(phy.o)
 .xtensa.info   0x00000000        0x0 c:/Espressif/ESP8266_RTOS_SDK/lib\libphy.a(phy_chip_v6_ana.o)
 .xtensa.info   0x00000000        0x0 c:/Espressif/ESP8266_RTOS_SDK/lib\libphy.a(phy_chip_v6.o)
 .xtensa.info   0x00000000        0x0 c:/Espressif/ESP8266_RTOS_SDK/lib\libphy.a(phy_chip_v6_cal.o)
 .xtensa.info   0x00000000        0x0 c:/Espressif/ESP8266_RTOS_SDK/lib\libphy.a(phy_chip_v6_unused.o)
 .xtensa.info   0x00000000        0x0 c:/Espressif/ESP8266_RTOS_SDK/lib\libphy.a(phy_sleep.o)
 .xtensa.info   0x00000000        0x0 c:/Espressif/ESP8266_RTOS_SDK/lib\libphy.a(phy_chip_v5_romfunc.o)
 .xtensa.info   0x00000000        0x0 c:/Espressif/ESP8266_RTOS_SDK/lib\libphy.a(phy_chip_v5_ana_romfunc.o)
 .xtensa.info   0x00000000        0x0 c:/Espressif/ESP8266_RTOS_SDK/lib\libphy.a(phy_chip_v5_cal_romfunc.o)
 .xtensa.info   0x00000000        0x0 c:/Espressif/ESP8266_RTOS_SDK/lib\libpp.a(if_hwctrl.o)
 .xtensa.info   0x00000000        0x0 c:/Espressif/ESP8266_RTOS_SDK/lib\libpp.a(lmac.o)
 .xtensa.info   0x00000000        0x0 c:/Espressif/ESP8266_RTOS_SDK/lib\libpp.a(pm.o)
 .xtensa.info   0x00000000        0x0 c:/Espressif/ESP8266_RTOS_SDK/lib\libpp.a(pm_for_bcn_only_mode.o)
 .xtensa.info   0x00000000        0x0 c:/Espressif/ESP8266_RTOS_SDK/lib\libpp.a(pp.o)
 .xtensa.info   0x00000000        0x0 c:/Espressif/ESP8266_RTOS_SDK/lib\libpp.a(rate_control.o)
 .xtensa.info   0x00000000        0x0 c:/Espressif/ESP8266_RTOS_SDK/lib\libpp.a(trc.o)
 .xtensa.info   0x00000000        0x0 c:/Espressif/ESP8266_RTOS_SDK/lib\libpp.a(wdev.o)
 .xtensa.info   0x00000000        0x0 c:/Espressif/ESP8266_RTOS_SDK/lib\libpp.a(esf_buf.o)
 .xtensa.info   0x00000000        0x0 c:/Espressif/ESP8266_RTOS_SDK/lib\libnet80211.a(ieee80211.o)
 .xtensa.info   0x00000000        0x0 c:/Espressif/ESP8266_RTOS_SDK/lib\libnet80211.a(ieee80211_crypto.o)
 .xtensa.info   0x00000000        0x0 c:/Espressif/ESP8266_RTOS_SDK/lib\libnet80211.a(ieee80211_ets.o)
 .xtensa.info   0x00000000        0x0 c:/Espressif/ESP8266_RTOS_SDK/lib\libnet80211.a(ieee80211_hostap.o)
 .xtensa.info   0x00000000        0x0 c:/Espressif/ESP8266_RTOS_SDK/lib\libnet80211.a(ieee80211_ht.o)
 .xtensa.info   0x00000000        0x0 c:/Espressif/ESP8266_RTOS_SDK/lib\libnet80211.a(ieee80211_input.o)
 .xtensa.info   0x00000000        0x0 c:/Espressif/ESP8266_RTOS_SDK/lib\libnet80211.a(ieee80211_mesh_quick.o)
 .xtensa.info   0x00000000        0x0 c:/Espressif/ESP8266_RTOS_SDK/lib\libnet80211.a(ieee80211_output.o)
 .xtensa.info   0x00000000        0x0 c:/Espressif/ESP8266_RTOS_SDK/lib\libnet80211.a(ieee80211_phy.o)
 .xtensa.info   0x00000000        0x0 c:/Espressif/ESP8266_RTOS_SDK/lib\libnet80211.a(ieee80211_power.o)
 .xtensa.info   0x00000000        0x0 c:/Espressif/ESP8266_RTOS_SDK/lib\libnet80211.a(ieee80211_proto.o)
 .xtensa.info   0x00000000        0x0 c:/Espressif/ESP8266_RTOS_SDK/lib\libnet80211.a(ieee80211_rfid.o)
 .xtensa.info   0x00000000        0x0 c:/Espressif/ESP8266_RTOS_SDK/lib\libnet80211.a(ieee80211_scan.o)
 .xtensa.info   0x00000000        0x0 c:/Espressif/ESP8266_RTOS_SDK/lib\libnet80211.a(ieee80211_sta.o)
 .xtensa.info   0x00000000        0x0 c:/Espressif/ESP8266_RTOS_SDK/lib\libnet80211.a(wl_chm.o)
 .xtensa.info   0x00000000        0x0 c:/Espressif/ESP8266_RTOS_SDK/lib\libnet80211.a(wl_cnx.o)
 .xtensa.info   0x00000000        0x0 c:/Espressif/ESP8266_RTOS_SDK/lib\libnet80211.a(ieee80211_action.o)
 .xtensa.info   0x00000000        0x0 c:/Espressif/ESP8266_RTOS_SDK/lib\libnet80211.a(ieee80211_action_vendor.o)
 .xtensa.info   0x00000000        0x0 c:/Espressif/ESP8266_RTOS_SDK/lib\libnet80211.a(ieee80211_crypto_ccmp.o)
 .xtensa.info   0x00000000        0x0 c:/Espressif/ESP8266_RTOS_SDK/lib\libnet80211.a(ieee80211_ie_vendor.o)
 .xtensa.info   0x00000000        0x0 c:/Espressif/ESP8266_RTOS_SDK/lib\libwpa.a(ap_config.o)
 .xtensa.info   0x00000000        0x0 c:/Espressif/ESP8266_RTOS_SDK/lib\libwpa.a(common.o)
 .xtensa.info   0x00000000        0x0 c:/Espressif/ESP8266_RTOS_SDK/lib\libwpa.a(os_xtensa.o)
 .xtensa.info   0x00000000        0x0 c:/Espressif/ESP8266_RTOS_SDK/lib\libwpa.a(wpa_auth.o)
 .xtensa.info   0x00000000        0x0 c:/Espressif/ESP8266_RTOS_SDK/lib\libwpa.a(wpa_auth_ie.o)
 .xtensa.info   0x00000000        0x0 c:/Espressif/ESP8266_RTOS_SDK/lib\libwpa.a(wpa.o)
 .xtensa.info   0x00000000        0x0 c:/Espressif/ESP8266_RTOS_SDK/lib\libwpa.a(wpa_common.o)
 .xtensa.info   0x00000000        0x0 c:/Espressif/ESP8266_RTOS_SDK/lib\libwpa.a(wpa_debug.o)
 .xtensa.info   0x00000000        0x0 c:/Espressif/ESP8266_RTOS_SDK/lib\libwpa.a(wpa_ie.o)
 .xtensa.info   0x00000000        0x0 c:/Espressif/ESP8266_RTOS_SDK/lib\libwpa.a(wpa_main.o)
 .xtensa.info   0x00000000        0x0 c:/Espressif/ESP8266_RTOS_SDK/lib\libwpa.a(wpas_glue.o)
 .xtensa.info   0x00000000        0x0 c:/Espressif/ESP8266_RTOS_SDK/lib\libcrypto.a(aes-unwrap.o)
 .xtensa.info   0x00000000        0x0 c:/Espressif/ESP8266_RTOS_SDK/lib\libcrypto.a(aes-wrap.o)
 .xtensa.info   0x00000000        0x0 c:/Espressif/ESP8266_RTOS_SDK/lib\libcrypto.a(md5.o)
 .xtensa.info   0x00000000        0x0 c:/Espressif/ESP8266_RTOS_SDK/lib\libcrypto.a(md5-internal.o)
 .xtensa.info   0x00000000        0x0 c:/Espressif/ESP8266_RTOS_SDK/lib\libcrypto.a(rc4.o)
 .xtensa.info   0x00000000        0x0 c:/Espressif/ESP8266_RTOS_SDK/lib\libcrypto.a(sha1.o)
 .xtensa.info   0x00000000        0x0 c:/Espressif/ESP8266_RTOS_SDK/lib\libcrypto.a(sha1-internal.o)
 .xtensa.info   0x00000000        0x0 c:/Espressif/ESP8266_RTOS_SDK/lib\libcrypto.a(sha1-pbkdf2.o)
 .xtensa.info   0x00000000        0x0 c:/Espressif/ESP8266_RTOS_SDK/lib\libcrypto.a(aes-internal-dec.o)
 .xtensa.info   0x00000000        0x0 c:/Espressif/ESP8266_RTOS_SDK/lib\libcrypto.a(aes-internal-enc.o)
 .xtensa.info   0x00000000        0x0 c:/Espressif/ESP8266_RTOS_SDK/lib\libcrypto.a(aes-internal.o)
 .xtensa.info   0x00000000        0x0 c:/Espressif/ESP8266_RTOS_SDK/lib\libmain.a(routines.o)
 .xtensa.info   0x00000000        0x0 c:/Espressif/ESP8266_RTOS_SDK/lib\liblwip.a(ethernetif.o)
 .xtensa.info   0x00000000        0x0 c:/Espressif/ESP8266_RTOS_SDK/lib\liblwip.a(ethip6.o)
 .xtensa.info   0x00000000        0x0 c:/Espressif/ESP8266_RTOS_SDK/lib\libmicrogcc.a(_ashrdi3.o)
 .xtensa.info   0x00000000        0x0 c:/Espressif/ESP8266_RTOS_SDK/lib\libmicrogcc.a(_divsf3.o)
 .xtensa.info   0x00000000        0x0 c:/Espressif/ESP8266_RTOS_SDK/lib\libmicrogcc.a(_fixsfsi.o)
 .xtensa.info   0x00000000        0x0 c:/Espressif/ESP8266_RTOS_SDK/lib\libnet80211.a(ieee80211_crypto_tkip.o)
 .xtensa.info   0x00000000        0x0 c:/Espressif/ESP8266_RTOS_SDK/lib\libnet80211.a(ieee80211_crypto_wep.o)

.xt.lit         0x00000000     0x1bc8
 .xt.lit        0x00000000       0x10 c:/Espressif/ESP8266_RTOS_SDK/lib\libmain.a(xtensa_vectors.o)
                                 0x40 (size before relaxing)
 .xt.lit        0x00000010       0xa0 c:/Espressif/ESP8266_RTOS_SDK/lib\libmain.a(app_main.o)
                                 0xb0 (size before relaxing)
 .xt.lit        0x000000b0       0x30 c:/Espressif/ESP8266_RTOS_SDK/lib\libmain.a(ets_timer.o)
                                 0x68 (size before relaxing)
 .xt.lit        0x000000e0       0x20 c:/Espressif/ESP8266_RTOS_SDK/lib\libmain.a(misc.o)
                                 0x38 (size before relaxing)
 .xt.lit        0x00000100       0x20 c:/Espressif/ESP8266_RTOS_SDK/lib\libmain.a(printf-stdarg.o)
                                 0x30 (size before relaxing)
 .xt.lit        0x00000120       0x48 c:/Espressif/ESP8266_RTOS_SDK/lib\libmain.a(spi_flash.o)
                                 0x58 (size before relaxing)
 .xt.lit        0x00000168        0x8 c:/Espressif/ESP8266_RTOS_SDK/lib\libmain.a(uart.o)
 .xt.lit        0x00000170      0x168 c:/Espressif/ESP8266_RTOS_SDK/lib\libmain.a(user_interface.o)
                                0x408 (size before relaxing)
 .xt.lit        0x000002d8        0x8 c:/Espressif/ESP8266_RTOS_SDK/lib\libmain.a(os_cpu_a.o)
                                 0x10 (size before relaxing)
 .xt.lit        0x000002e0       0x18 c:/Espressif/ESP8266_RTOS_SDK/lib\libfreertos.a(heap_4.o)
                                 0x38 (size before relaxing)
 .xt.lit        0x000002f8       0x20 c:/Espressif/ESP8266_RTOS_SDK/lib\libfreertos.a(port.o)
                                 0x58 (size before relaxing)
 .xt.lit        0x00000318       0x10 c:/Espressif/ESP8266_RTOS_SDK/lib\libfreertos.a(queue.o)
                                 0x90 (size before relaxing)
 .xt.lit        0x00000328       0x58 c:/Espressif/ESP8266_RTOS_SDK/lib\libfreertos.a(tasks.o)
                                0x148 (size before relaxing)
 .xt.lit        0x00000380       0x18 c:/Espressif/ESP8266_RTOS_SDK/lib\libfreertos.a(timers.o)
                                 0x68 (size before relaxing)
 .xt.lit        0x00000398       0x58 c:/Espressif/ESP8266_RTOS_SDK/lib\liblwip.a(dhcp.o)
                                 0xc8 (size before relaxing)
 .xt.lit        0x000003f0       0x28 c:/Espressif/ESP8266_RTOS_SDK/lib\liblwip.a(dhcpserver.o)
                                 0x98 (size before relaxing)
 .xt.lit        0x00000418       0x20 c:/Espressif/ESP8266_RTOS_SDK/lib\liblwip.a(dns.o)
                                 0x50 (size before relaxing)
 .xt.lit        0x00000438       0x28 c:/Espressif/ESP8266_RTOS_SDK/lib\liblwip.a(etharp.o)
                                 0x78 (size before relaxing)
 .xt.lit        0x00000460       0x18 c:/Espressif/ESP8266_RTOS_SDK/lib\liblwip.a(ip4_addr.o)
                                 0x20 (size before relaxing)
 .xt.lit        0x00000478       0x10 c:/Espressif/ESP8266_RTOS_SDK/lib\liblwip.a(ip4.o)
                                 0x18 (size before relaxing)
 .xt.lit        0x00000488       0x20 c:/Espressif/ESP8266_RTOS_SDK/lib\liblwip.a(ip6.o)
                                 0x28 (size before relaxing)
 .xt.lit        0x000004a8       0x10 c:/Espressif/ESP8266_RTOS_SDK/lib\liblwip.a(mld6.o)
                                 0x58 (size before relaxing)
 .xt.lit        0x000004b8       0x18 c:/Espressif/ESP8266_RTOS_SDK/lib\liblwip.a(nd6.o)
                                 0xb0 (size before relaxing)
 .xt.lit        0x000004d0       0x18 c:/Espressif/ESP8266_RTOS_SDK/lib\liblwip.a(netif.o)
                                 0x50 (size before relaxing)
 .xt.lit        0x000004e8        0x8 c:/Espressif/ESP8266_RTOS_SDK/lib\liblwip.a(pbuf.o)
                                 0x48 (size before relaxing)
 .xt.lit        0x000004f0        0x8 c:/Espressif/ESP8266_RTOS_SDK/lib\liblwip.a(raw.o)
                                 0x20 (size before relaxing)
 .xt.lit        0x000004f8        0x8 c:/Espressif/ESP8266_RTOS_SDK/lib\liblwip.a(sys_arch.o)
                                 0x98 (size before relaxing)
 .xt.lit        0x00000500       0x28 c:/Espressif/ESP8266_RTOS_SDK/lib\liblwip.a(tcp_in.o)
                                 0x30 (size before relaxing)
 .xt.lit        0x00000528       0x20 c:/Espressif/ESP8266_RTOS_SDK/lib\liblwip.a(tcpip.o)
                                 0x68 (size before relaxing)
 .xt.lit        0x00000548       0x38 c:/Espressif/ESP8266_RTOS_SDK/lib\liblwip.a(tcp.o)
                                 0xc0 (size before relaxing)
 .xt.lit        0x00000580       0x28 c:/Espressif/ESP8266_RTOS_SDK/lib\liblwip.a(tcp_out.o)
                                 0x68 (size before relaxing)
 .xt.lit        0x000005a8       0x40 c:/Espressif/ESP8266_RTOS_SDK/lib\liblwip.a(timers.o)
                                 0x68 (size before relaxing)
 .xt.lit        0x000005e8        0x8 c:/Espressif/ESP8266_RTOS_SDK/lib\liblwip.a(udp.o)
                                 0x40 (size before relaxing)
 .xt.lit        0x000005f0       0x30 c:/Espressif/ESP8266_RTOS_SDK/lib\liblwip.a(api_msg.o)
                                 0xe8 (size before relaxing)
 .xt.lit        0x00000620        0x0 c:/Espressif/ESP8266_RTOS_SDK/lib\liblwip.a(icmp6.o)
                                 0x10 (size before relaxing)
 .xt.lit        0x00000620        0x8 c:/Espressif/ESP8266_RTOS_SDK/lib\liblwip.a(icmp.o)
                                 0x10 (size before relaxing)
 .xt.lit        0x00000628        0x8 c:/Espressif/ESP8266_RTOS_SDK/lib\liblwip.a(init.o)
 .xt.lit        0x00000630        0x8 c:/Espressif/ESP8266_RTOS_SDK/lib\liblwip.a(ip6_addr.o)
                                 0x18 (size before relaxing)
 .xt.lit        0x00000638       0x10 c:/Espressif/ESP8266_RTOS_SDK/lib\liblwip.a(ip6_frag.o)
                                 0x20 (size before relaxing)
 .xt.lit        0x00000648        0x0 c:/Espressif/ESP8266_RTOS_SDK/lib\liblwip.a(netbuf.o)
                                 0x30 (size before relaxing)
 .xt.lit        0x00000648       0x48 c:/Espressif/ESP8266_RTOS_SDK/lib\liblwip.a(sockets.o)
                                 0xb8 (size before relaxing)
 .xt.lit        0x00000690       0x60 c:/Espressif/ESP8266_RTOS_SDK/lib\liblwip.a(api_lib.o)
                                 0x80 (size before relaxing)
 .xt.lit        0x000006f0       0x20 c:/Espressif/ESP8266_RTOS_SDK/lib\libminic.a(minic.o)
                                 0x60 (size before relaxing)
 .xt.lit        0x00000710       0x98 build/app_app.a(user_main_sming.o)
                                 0xa8 (size before relaxing)
 .xt.lit        0x000007a8       0x30 build/app_app.a(Digital.o)
                                 0x38 (size before relaxing)
 .xt.lit        0x000007d8       0x18 build/app_app.a(Temp_HardwareSerial.o)
                                 0x30 (size before relaxing)
 .xt.lit        0x000007f0       0x30 build/app_app.a(Timer.o)
                                 0x58 (size before relaxing)
 .xt.lit        0x00000820       0x10 build/app_app.a(WifiStation.o)
                                 0x20 (size before relaxing)
 .xt.lit        0x00000830        0x8 build/app_app.a(CQueue.o)
                                 0x38 (size before relaxing)
 .xt.lit        0x00000838        0x8 build/app_app.a(CTask.o)
                                 0x38 (size before relaxing)
 .xt.lit        0x00000840       0x18 build/app_app.a(IPAddress.o)
                                 0x30 (size before relaxing)
 .xt.lit        0x00000858        0x8 build/app_app.a(Print.o)
                                 0xa8 (size before relaxing)
 .xt.lit        0x00000860       0x80 build/app_app.a(WString.o)
                                0x248 (size before relaxing)
 .xt.lit        0x000008e0       0xa8 build/app_app.a(HttpResponse.o)
                                 0xd0 (size before relaxing)
 .xt.lit        0x00000988       0x50 build/app_app.a(HttpServer.o)
                                 0x98 (size before relaxing)
 .xt.lit        0x000009d8       0x30 build/app_app.a(HttpServerConnection.o)
                                 0x50 (size before relaxing)
 .xt.lit        0x00000a08       0x18 build/app_app.a(TcpClient.o)
                                 0x98 (size before relaxing)
 .xt.lit        0x00000a20       0xa8 build/app_app.a(TcpConnection.o)
                                 0xe8 (size before relaxing)
 .xt.lit        0x00000ac8       0x58 build/app_app.a(TcpServer.o)
                                 0x88 (size before relaxing)
 .xt.lit        0x00000b20       0x28 build/app_app.a(TelnetServer.o)
                                 0x48 (size before relaxing)
 .xt.lit        0x00000b48       0x40 build/app_app.a(UdpConnection.o)
                                 0x88 (size before relaxing)
 .xt.lit        0x00000b88       0x18 build/app_app.a(WebSocket.o)
                                 0x28 (size before relaxing)
 .xt.lit        0x00000ba0       0x40 build/app_app.a(CommandExecutor.o)
                                 0x48 (size before relaxing)
 .xt.lit        0x00000be0       0x58 build/app_app.a(CommandHandler.o)
                                 0x90 (size before relaxing)
 .xt.lit        0x00000c38       0x18 build/app_app.a(CommandOutput.o)
                                 0x38 (size before relaxing)
 .xt.lit        0x00000c50       0x10 build/app_app.a(base64.o)
                                 0x20 (size before relaxing)
 .xt.lit        0x00000c60        0x0 build/app_app.a(websocket.o)
                                  0x8 (size before relaxing)
 .xt.lit        0x00000c60        0x8 build/app_app.a(m_printf.o)
                                 0x18 (size before relaxing)
 .xt.lit        0x00000c68       0x60 build/app_app.a(uart.o)
                                 0x90 (size before relaxing)
 .xt.lit        0x00000cc8       0x50 build/app_app.a(DataSourceStream.o)
                                 0xf8 (size before relaxing)
 .xt.lit        0x00000d18       0x30 build/app_app.a(FileSystem.o)
                                 0xb0 (size before relaxing)
 .xt.lit        0x00000d48       0x20 build/app_app.a(SystemClock.o)
                                 0x28 (size before relaxing)
 .xt.lit        0x00000d68       0x18 build/app_app.a(stringconversion.o)
                                 0x28 (size before relaxing)
 .xt.lit        0x00000d80        0x0 build/app_app.a(SplitString.o)
                                 0x18 (size before relaxing)
 .xt.lit        0x00000d80       0x10 build/app_app.a(RTC.o)
                                 0x38 (size before relaxing)
 .xt.lit        0x00000d90       0x48 build/app_app.a(HttpRequest.o)
                                 0x78 (size before relaxing)
 .xt.lit        0x00000dd8        0x0 build/app_app.a(NetUtils.o)
                                 0x18 (size before relaxing)
 .xt.lit        0x00000dd8       0x38 build/app_app.a(ArduinoJson.o)
                                 0xe0 (size before relaxing)
 .xt.lit        0x00000e10       0x10 build/app_app.a(CommandDelegate.o)
                                 0x20 (size before relaxing)
 .xt.lit        0x00000e20       0x30 build/app_app.a(DateTime.o)
                                 0x50 (size before relaxing)
 .xt.lit        0x00000e50       0x48 build/app_app.a(spiffs_hydrogen.o)
                                 0xe8 (size before relaxing)
 .xt.lit        0x00000e98       0x58 build/app_app.a(spiffs_nucleus.o)
                                0x100 (size before relaxing)
 .xt.lit        0x00000ef0       0x20 build/app_app.a(spiffs_sming.o)
                                 0x68 (size before relaxing)
 .xt.lit        0x00000f10       0x10 build/app_app.a(escape.o)
                                 0x20 (size before relaxing)
 .xt.lit        0x00000f20       0x30 build/app_app.a(flashmem.o)
                                 0x60 (size before relaxing)
 .xt.lit        0x00000f50        0x0 build/app_app.a(spiffs_cache.o)
                                 0x38 (size before relaxing)
 .xt.lit        0x00000f50       0x20 build/app_app.a(spiffs_check.o)
                                 0x48 (size before relaxing)
 .xt.lit        0x00000f70        0x8 build/app_app.a(spiffs_gc.o)
                                 0x30 (size before relaxing)
 .xt.lit        0x00000f78        0x0 c:/Espressif/ESP8266_RTOS_SDK/lib\libmicroc.a(atof.o)
                                  0x8 (size before relaxing)
 .xt.lit        0x00000f78        0x8 c:/Espressif/ESP8266_RTOS_SDK/lib\libmicroc.a(strtod.o)
 .xt.lit        0x00000f80        0x8 c:/Espressif/ESP8266_RTOS_SDK/lib\libmicroc.a(memchr.o)
 .xt.lit        0x00000f88        0x8 c:/Espressif/ESP8266_RTOS_SDK/lib\libmicroc.a(__errno_location.o)
 .xt.lit        0x00000f90        0x8 c:/Espressif/ESP8266_RTOS_SDK/lib\libmicroc.a(floatscan.o)
 .xt.lit        0x00000f98        0x0 c:/Espressif/ESP8266_RTOS_SDK/lib\libmicroc.a(shgetc.o)
                                  0x8 (size before relaxing)
 .xt.lit        0x00000f98        0x0 c:/Espressif/ESP8266_RTOS_SDK/lib\libmicroc.a(__uflow.o)
                                  0x8 (size before relaxing)
 .xt.lit        0x00000f98        0x0 c:/Espressif/ESP8266_RTOS_SDK/lib\libmicroc.a(__toread.o)
                                  0x8 (size before relaxing)
 .xt.lit        0x00000f98        0x0 c:/Espressif/ESP8266_RTOS_SDK/lib\libmicroc.a(fmodl.o)
                                  0x8 (size before relaxing)
 .xt.lit        0x00000f98        0x8 c:/Espressif/ESP8266_RTOS_SDK/lib\libmicroc.a(scalbn.o)
 .xt.lit        0x00000fa0        0x0 c:/Espressif/ESP8266_RTOS_SDK/lib\libmicroc.a(scalbnl.o)
                                  0x8 (size before relaxing)
 .xt.lit        0x00000fa0        0x8 c:/Espressif/ESP8266_RTOS_SDK/lib\libmicroc.a(fmod.o)
 .xt.lit        0x00000fa8        0x8 c:/Espressif/ESP8266_RTOS_SDK/lib\libmicrogcc.a(_cmpdf2.o)
 .xt.lit        0x00000fb0        0x8 c:/Espressif/ESP8266_RTOS_SDK/lib\libgcc.a(_mulsf3.o)
 .xt.lit        0x00000fb8       0x10 c:/Espressif/ESP8266_RTOS_SDK/lib\libphy.a(phy.o)
                                 0x68 (size before relaxing)
 .xt.lit        0x00000fc8       0x88 c:/Espressif/ESP8266_RTOS_SDK/lib\libphy.a(phy_chip_v6_ana.o)
                                 0xc0 (size before relaxing)
 .xt.lit        0x00001050      0x140 c:/Espressif/ESP8266_RTOS_SDK/lib\libphy.a(phy_chip_v6.o)
                                0x220 (size before relaxing)
 .xt.lit        0x00001190       0x78 c:/Espressif/ESP8266_RTOS_SDK/lib\libphy.a(phy_chip_v6_cal.o)
                                 0xe8 (size before relaxing)
 .xt.lit        0x00001208       0x70 c:/Espressif/ESP8266_RTOS_SDK/lib\libphy.a(phy_sleep.o)
                                 0xd8 (size before relaxing)
 .xt.lit        0x00001278       0x40 c:/Espressif/ESP8266_RTOS_SDK/lib\libphy.a(phy_chip_v5_romfunc.o)
                                 0xd8 (size before relaxing)
 .xt.lit        0x000012b8       0x30 c:/Espressif/ESP8266_RTOS_SDK/lib\libphy.a(phy_chip_v5_ana_romfunc.o)
                                 0xd8 (size before relaxing)
 .xt.lit        0x000012e8       0x30 c:/Espressif/ESP8266_RTOS_SDK/lib\libphy.a(phy_chip_v5_cal_romfunc.o)
                                 0x58 (size before relaxing)
 .xt.lit        0x00001318       0x30 c:/Espressif/ESP8266_RTOS_SDK/lib\libpp.a(if_hwctrl.o)
                                 0x98 (size before relaxing)
 .xt.lit        0x00001348       0x70 c:/Espressif/ESP8266_RTOS_SDK/lib\libpp.a(lmac.o)
                                0x130 (size before relaxing)
 .xt.lit        0x000013b8       0xf0 c:/Espressif/ESP8266_RTOS_SDK/lib\libpp.a(pm.o)
                                0x1a0 (size before relaxing)
 .xt.lit        0x000014a8       0x60 c:/Espressif/ESP8266_RTOS_SDK/lib\libpp.a(pm_for_bcn_only_mode.o)
                                 0x98 (size before relaxing)
 .xt.lit        0x00001508       0xf0 c:/Espressif/ESP8266_RTOS_SDK/lib\libpp.a(pp.o)
                                0x1c8 (size before relaxing)
 .xt.lit        0x000015f8       0x18 c:/Espressif/ESP8266_RTOS_SDK/lib\libpp.a(rate_control.o)
                                 0x38 (size before relaxing)
 .xt.lit        0x00001610       0x60 c:/Espressif/ESP8266_RTOS_SDK/lib\libpp.a(trc.o)
                                 0xa8 (size before relaxing)
 .xt.lit        0x00001670       0xe8 c:/Espressif/ESP8266_RTOS_SDK/lib\libpp.a(wdev.o)
                                0x1a8 (size before relaxing)
 .xt.lit        0x00001758       0x18 c:/Espressif/ESP8266_RTOS_SDK/lib\libpp.a(esf_buf.o)
                                 0x20 (size before relaxing)
 .xt.lit        0x00001770       0x20 c:/Espressif/ESP8266_RTOS_SDK/lib\libnet80211.a(ieee80211.o)
                                 0x50 (size before relaxing)
 .xt.lit        0x00001790        0x0 c:/Espressif/ESP8266_RTOS_SDK/lib\libnet80211.a(ieee80211_crypto.o)
                                 0x10 (size before relaxing)
 .xt.lit        0x00001790        0x0 c:/Espressif/ESP8266_RTOS_SDK/lib\libnet80211.a(ieee80211_ets.o)
                                  0x8 (size before relaxing)
 .xt.lit        0x00001790       0x58 c:/Espressif/ESP8266_RTOS_SDK/lib\libnet80211.a(ieee80211_hostap.o)
                                 0x78 (size before relaxing)
 .xt.lit        0x000017e8       0x48 c:/Espressif/ESP8266_RTOS_SDK/lib\libnet80211.a(ieee80211_ht.o)
                                 0x68 (size before relaxing)
 .xt.lit        0x00001830       0x30 c:/Espressif/ESP8266_RTOS_SDK/lib\libnet80211.a(ieee80211_input.o)
                                 0x60 (size before relaxing)
 .xt.lit        0x00001860       0x18 c:/Espressif/ESP8266_RTOS_SDK/lib\libnet80211.a(ieee80211_mesh_quick.o)
                                 0x28 (size before relaxing)
 .xt.lit        0x00001878       0x30 c:/Espressif/ESP8266_RTOS_SDK/lib\libnet80211.a(ieee80211_output.o)
                                 0x98 (size before relaxing)
 .xt.lit        0x000018a8        0x8 c:/Espressif/ESP8266_RTOS_SDK/lib\libnet80211.a(ieee80211_phy.o)
                                 0x18 (size before relaxing)
 .xt.lit        0x000018b0        0x8 c:/Espressif/ESP8266_RTOS_SDK/lib\libnet80211.a(ieee80211_power.o)
                                 0x18 (size before relaxing)
 .xt.lit        0x000018b8       0x18 c:/Espressif/ESP8266_RTOS_SDK/lib\libnet80211.a(ieee80211_proto.o)
 .xt.lit        0x000018d0        0x0 c:/Espressif/ESP8266_RTOS_SDK/lib\libnet80211.a(ieee80211_rfid.o)
                                 0x30 (size before relaxing)
 .xt.lit        0x000018d0       0x50 c:/Espressif/ESP8266_RTOS_SDK/lib\libnet80211.a(ieee80211_scan.o)
                                 0xe0 (size before relaxing)
 .xt.lit        0x00001920       0x30 c:/Espressif/ESP8266_RTOS_SDK/lib\libnet80211.a(ieee80211_sta.o)
                                 0x60 (size before relaxing)
 .xt.lit        0x00001950       0x20 c:/Espressif/ESP8266_RTOS_SDK/lib\libnet80211.a(wl_chm.o)
                                 0x60 (size before relaxing)
 .xt.lit        0x00001970       0x90 c:/Espressif/ESP8266_RTOS_SDK/lib\libnet80211.a(wl_cnx.o)
                                0x138 (size before relaxing)
 .xt.lit        0x00001a00       0x20 c:/Espressif/ESP8266_RTOS_SDK/lib\libnet80211.a(ieee80211_action.o)
                                 0x30 (size before relaxing)
 .xt.lit        0x00001a20       0x20 c:/Espressif/ESP8266_RTOS_SDK/lib\libnet80211.a(ieee80211_action_vendor.o)
                                 0x50 (size before relaxing)
 .xt.lit        0x00001a40        0x0 c:/Espressif/ESP8266_RTOS_SDK/lib\libnet80211.a(ieee80211_crypto_ccmp.o)
                                 0x10 (size before relaxing)
 .xt.lit        0x00001a40        0x8 c:/Espressif/ESP8266_RTOS_SDK/lib\libnet80211.a(ieee80211_ie_vendor.o)
                                 0x38 (size before relaxing)
 .xt.lit        0x00001a48        0x8 c:/Espressif/ESP8266_RTOS_SDK/lib\libwpa.a(ap_config.o)
                                 0x40 (size before relaxing)
 .xt.lit        0x00001a50        0x8 c:/Espressif/ESP8266_RTOS_SDK/lib\libwpa.a(common.o)
                                 0x10 (size before relaxing)
 .xt.lit        0x00001a58        0x8 c:/Espressif/ESP8266_RTOS_SDK/lib\libwpa.a(os_xtensa.o)
                                 0x10 (size before relaxing)
 .xt.lit        0x00001a60       0x68 c:/Espressif/ESP8266_RTOS_SDK/lib\libwpa.a(wpa_auth.o)
                                0x100 (size before relaxing)
 .xt.lit        0x00001ac8        0x8 c:/Espressif/ESP8266_RTOS_SDK/lib\libwpa.a(wpa_auth_ie.o)
                                 0x38 (size before relaxing)
 .xt.lit        0x00001ad0       0x38 c:/Espressif/ESP8266_RTOS_SDK/lib\libwpa.a(wpa.o)
                                0x110 (size before relaxing)
 .xt.lit        0x00001b08       0x20 c:/Espressif/ESP8266_RTOS_SDK/lib\libwpa.a(wpa_common.o)
                                 0x58 (size before relaxing)
 .xt.lit        0x00001b28        0x0 c:/Espressif/ESP8266_RTOS_SDK/lib\libwpa.a(wpa_ie.o)
                                 0x18 (size before relaxing)
 .xt.lit        0x00001b28       0x10 c:/Espressif/ESP8266_RTOS_SDK/lib\libwpa.a(wpa_main.o)
                                 0x48 (size before relaxing)
 .xt.lit        0x00001b38        0x0 c:/Espressif/ESP8266_RTOS_SDK/lib\libwpa.a(wpas_glue.o)
                                 0x10 (size before relaxing)
 .xt.lit        0x00001b38        0x0 c:/Espressif/ESP8266_RTOS_SDK/lib\libcrypto.a(aes-unwrap.o)
                                  0x8 (size before relaxing)
 .xt.lit        0x00001b38        0x0 c:/Espressif/ESP8266_RTOS_SDK/lib\libcrypto.a(aes-wrap.o)
                                  0x8 (size before relaxing)
 .xt.lit        0x00001b38        0x0 c:/Espressif/ESP8266_RTOS_SDK/lib\libcrypto.a(md5.o)
                                  0x8 (size before relaxing)
 .xt.lit        0x00001b38       0x10 c:/Espressif/ESP8266_RTOS_SDK/lib\libcrypto.a(md5-internal.o)
                                 0x20 (size before relaxing)
 .xt.lit        0x00001b48        0x0 c:/Espressif/ESP8266_RTOS_SDK/lib\libcrypto.a(sha1.o)
                                 0x10 (size before relaxing)
 .xt.lit        0x00001b48       0x18 c:/Espressif/ESP8266_RTOS_SDK/lib\libcrypto.a(sha1-internal.o)
                                 0x20 (size before relaxing)
 .xt.lit        0x00001b60        0x0 c:/Espressif/ESP8266_RTOS_SDK/lib\libcrypto.a(sha1-pbkdf2.o)
                                 0x10 (size before relaxing)
 .xt.lit        0x00001b60       0x18 c:/Espressif/ESP8266_RTOS_SDK/lib\libcrypto.a(aes-internal-dec.o)
                                 0x20 (size before relaxing)
 .xt.lit        0x00001b78       0x18 c:/Espressif/ESP8266_RTOS_SDK/lib\libcrypto.a(aes-internal-enc.o)
 .xt.lit        0x00001b90        0x8 c:/Espressif/ESP8266_RTOS_SDK/lib\libcrypto.a(aes-internal.o)
 .xt.lit        0x00001b98        0x0 c:/Espressif/ESP8266_RTOS_SDK/lib\libmain.a(routines.o)
                                 0x20 (size before relaxing)
 .xt.lit        0x00001b98       0x10 c:/Espressif/ESP8266_RTOS_SDK/lib\liblwip.a(ethernetif.o)
                                 0x18 (size before relaxing)
 .xt.lit        0x00001ba8        0x8 c:/Espressif/ESP8266_RTOS_SDK/lib\liblwip.a(ethip6.o)
                                 0x10 (size before relaxing)
 .xt.lit        0x00001bb0        0x8 c:/Espressif/ESP8266_RTOS_SDK/lib\libmicrogcc.a(_divsf3.o)
 .xt.lit        0x00001bb8        0x0 c:/Espressif/ESP8266_RTOS_SDK/lib\libmicrogcc.a(_fixsfsi.o)
                                  0x8 (size before relaxing)
 .xt.lit        0x00001bb8       0x10 c:/Espressif/ESP8266_RTOS_SDK/lib\libnet80211.a(ieee80211_crypto_tkip.o)
 .xt.lit        0x00001bc8        0x0 c:/Espressif/ESP8266_RTOS_SDK/lib\libnet80211.a(ieee80211_crypto_wep.o)
                                  0x8 (size before relaxing)

.xt.prop        0x00000000    0x3cc0c
 .xt.prop       0x00000000      0x174 c:/Espressif/ESP8266_RTOS_SDK/lib\libmain.a(xtensa_vectors.o)
                                0x1bc (size before relaxing)
 .xt.prop       0x00000174      0x99c c:/Espressif/ESP8266_RTOS_SDK/lib\libmain.a(app_main.o)
                                0xa08 (size before relaxing)
 .xt.prop       0x00000b10      0x45c c:/Espressif/ESP8266_RTOS_SDK/lib\libmain.a(ets_timer.o)
                                0x4bc (size before relaxing)
 .xt.prop       0x00000f6c      0x168 c:/Espressif/ESP8266_RTOS_SDK/lib\libmain.a(misc.o)
                                0x180 (size before relaxing)
 .xt.prop       0x000010d4      0x5a0 c:/Espressif/ESP8266_RTOS_SDK/lib\libmain.a(printf-stdarg.o)
                                0x5ac (size before relaxing)
 .xt.prop       0x00001674      0x2d0 c:/Espressif/ESP8266_RTOS_SDK/lib\libmain.a(spi_flash.o)
                                0x2e8 (size before relaxing)
 .xt.prop       0x00001944       0x54 c:/Espressif/ESP8266_RTOS_SDK/lib\libmain.a(uart.o)
 .xt.prop       0x00001998     0x312c c:/Espressif/ESP8266_RTOS_SDK/lib\libmain.a(user_interface.o)
                               0x32c4 (size before relaxing)
 .xt.prop       0x00004ac4      0x138 c:/Espressif/ESP8266_RTOS_SDK/lib\libmain.a(os_cpu_a.o)
                                0x144 (size before relaxing)
 .xt.prop       0x00004bfc       0x30 c:/Espressif/ESP8266_RTOS_SDK/lib\libmain.a(xtensa_context.o)
 .xt.prop       0x00004c2c      0x258 c:/Espressif/ESP8266_RTOS_SDK/lib\libfreertos.a(heap_4.o)
                                0x2a0 (size before relaxing)
 .xt.prop       0x00004e84      0x2b8 c:/Espressif/ESP8266_RTOS_SDK/lib\libfreertos.a(port.o)
                                0x324 (size before relaxing)
 .xt.prop       0x0000513c      0x69c c:/Espressif/ESP8266_RTOS_SDK/lib\libfreertos.a(queue.o)
 .xt.prop       0x000057d8      0xc18 c:/Espressif/ESP8266_RTOS_SDK/lib\libfreertos.a(tasks.o)
                                0xd2c (size before relaxing)
 .xt.prop       0x000063f0      0x414 c:/Espressif/ESP8266_RTOS_SDK/lib\libfreertos.a(timers.o)
                                0x474 (size before relaxing)
 .xt.prop       0x00006804       0xa8 c:/Espressif/ESP8266_RTOS_SDK/lib\libfreertos.a(list.o)
 .xt.prop       0x000068ac      0xde0 c:/Espressif/ESP8266_RTOS_SDK/lib\liblwip.a(dhcp.o)
                                0xe1c (size before relaxing)
 .xt.prop       0x0000768c      0x8dc c:/Espressif/ESP8266_RTOS_SDK/lib\liblwip.a(dhcpserver.o)
                                0x948 (size before relaxing)
 .xt.prop       0x00007f68      0x474 c:/Espressif/ESP8266_RTOS_SDK/lib\liblwip.a(dns.o)
                                0x4bc (size before relaxing)
 .xt.prop       0x000083dc      0x6e4 c:/Espressif/ESP8266_RTOS_SDK/lib\liblwip.a(etharp.o)
                                0x720 (size before relaxing)
 .xt.prop       0x00008ac0      0x324 c:/Espressif/ESP8266_RTOS_SDK/lib\liblwip.a(ip4_addr.o)
                                0x330 (size before relaxing)
 .xt.prop       0x00008de4      0x2f4 c:/Espressif/ESP8266_RTOS_SDK/lib\liblwip.a(ip4.o)
                                0x30c (size before relaxing)
 .xt.prop       0x000090d8      0x5b8 c:/Espressif/ESP8266_RTOS_SDK/lib\liblwip.a(ip6.o)
 .xt.prop       0x00009690        0x0 c:/Espressif/ESP8266_RTOS_SDK/lib\liblwip.a(memp.o)
                                  0xc (size before relaxing)
 .xt.prop       0x00009690      0x5f4 c:/Espressif/ESP8266_RTOS_SDK/lib\liblwip.a(mld6.o)
                                0x600 (size before relaxing)
 .xt.prop       0x00009c84     0x1788 c:/Espressif/ESP8266_RTOS_SDK/lib\liblwip.a(nd6.o)
                               0x1818 (size before relaxing)
 .xt.prop       0x0000b40c      0x45c c:/Espressif/ESP8266_RTOS_SDK/lib\liblwip.a(netif.o)
                                0x48c (size before relaxing)
 .xt.prop       0x0000b868      0x714 c:/Espressif/ESP8266_RTOS_SDK/lib\liblwip.a(pbuf.o)
 .xt.prop       0x0000bf7c      0x558 c:/Espressif/ESP8266_RTOS_SDK/lib\liblwip.a(raw.o)
                                0x564 (size before relaxing)
 .xt.prop       0x0000c4d4      0x39c c:/Espressif/ESP8266_RTOS_SDK/lib\liblwip.a(sys_arch.o)
                                0x3b4 (size before relaxing)
 .xt.prop       0x0000c870      0xc24 c:/Espressif/ESP8266_RTOS_SDK/lib\liblwip.a(tcp_in.o)
                                0xc9c (size before relaxing)
 .xt.prop       0x0000d494      0x438 c:/Espressif/ESP8266_RTOS_SDK/lib\liblwip.a(tcpip.o)
                                0x474 (size before relaxing)
 .xt.prop       0x0000d8cc     0x12c0 c:/Espressif/ESP8266_RTOS_SDK/lib\liblwip.a(tcp.o)
                               0x1344 (size before relaxing)
 .xt.prop       0x0000eb8c      0xb34 c:/Espressif/ESP8266_RTOS_SDK/lib\liblwip.a(tcp_out.o)
 .xt.prop       0x0000f6c0      0x354 c:/Espressif/ESP8266_RTOS_SDK/lib\liblwip.a(timers.o)
                                0x378 (size before relaxing)
 .xt.prop       0x0000fa14      0x9d8 c:/Espressif/ESP8266_RTOS_SDK/lib\liblwip.a(udp.o)
                                0x9f0 (size before relaxing)
 .xt.prop       0x000103ec     0x10c8 c:/Espressif/ESP8266_RTOS_SDK/lib\liblwip.a(api_msg.o)
 .xt.prop       0x000114b4      0x1c8 c:/Espressif/ESP8266_RTOS_SDK/lib\liblwip.a(icmp6.o)
 .xt.prop       0x0001167c      0x114 c:/Espressif/ESP8266_RTOS_SDK/lib\liblwip.a(icmp.o)
 .xt.prop       0x00011790      0x1e0 c:/Espressif/ESP8266_RTOS_SDK/lib\liblwip.a(inet_chksum.o)
 .xt.prop       0x00011970       0x24 c:/Espressif/ESP8266_RTOS_SDK/lib\liblwip.a(init.o)
 .xt.prop       0x00011994      0x348 c:/Espressif/ESP8266_RTOS_SDK/lib\liblwip.a(ip6_addr.o)
                                0x360 (size before relaxing)
 .xt.prop       0x00011cdc      0x354 c:/Espressif/ESP8266_RTOS_SDK/lib\liblwip.a(ip6_frag.o)
                                0x36c (size before relaxing)
 .xt.prop       0x00012030      0x24c c:/Espressif/ESP8266_RTOS_SDK/lib\liblwip.a(netbuf.o)
 .xt.prop       0x0001227c     0x186c c:/Espressif/ESP8266_RTOS_SDK/lib\liblwip.a(sockets.o)
                               0x18c0 (size before relaxing)
 .xt.prop       0x00013ae8      0x8ac c:/Espressif/ESP8266_RTOS_SDK/lib\liblwip.a(api_lib.o)
 .xt.prop       0x00014394      0xd20 c:/Espressif/ESP8266_RTOS_SDK/lib\libminic.a(minic.o)
                                0xd44 (size before relaxing)
 .xt.prop       0x000150b4      0x444 build/app_app.a(user_main_sming.o)
 .xt.prop       0x000154f8      0x2ac build/app_app.a(Digital.o)
 .xt.prop       0x000157a4      0x210 build/app_app.a(Temp_HardwareSerial.o)
 .xt.prop       0x000159b4      0x348 build/app_app.a(Timer.o)
 .xt.prop       0x00015cfc       0xf0 build/app_app.a(WifiStation.o)
 .xt.prop       0x00015dec      0x120 build/app_app.a(CQueue.o)
 .xt.prop       0x00015f0c      0x138 build/app_app.a(CTask.o)
 .xt.prop       0x00016044      0x228 build/app_app.a(IPAddress.o)
 .xt.prop       0x0001626c      0x4b0 build/app_app.a(Print.o)
 .xt.prop       0x0001671c     0x1014 build/app_app.a(WString.o)
 .xt.prop       0x00017730      0x648 build/app_app.a(HttpResponse.o)
 .xt.prop       0x00017d78      0x4b0 build/app_app.a(HttpServer.o)
 .xt.prop       0x00018228      0x300 build/app_app.a(HttpServerConnection.o)
 .xt.prop       0x00018528      0x39c build/app_app.a(TcpClient.o)
 .xt.prop       0x000188c4      0x5f4 build/app_app.a(TcpConnection.o)
 .xt.prop       0x00018eb8      0x300 build/app_app.a(TcpServer.o)
 .xt.prop       0x000191b8      0x258 build/app_app.a(TelnetServer.o)
 .xt.prop       0x00019410      0x2d0 build/app_app.a(UdpConnection.o)
 .xt.prop       0x000196e0      0x240 build/app_app.a(WebSocket.o)
 .xt.prop       0x00019920      0x228 build/app_app.a(CommandExecutor.o)
 .xt.prop       0x00019b48      0x438 build/app_app.a(CommandHandler.o)
 .xt.prop       0x00019f80      0x150 build/app_app.a(CommandOutput.o)
 .xt.prop       0x0001a0d0      0x180 build/app_app.a(base64.o)
 .xt.prop       0x0001a250       0xfc build/app_app.a(websocket.o)
 .xt.prop       0x0001a34c      0x39c build/app_app.a(m_printf.o)
 .xt.prop       0x0001a6e8      0x384 build/app_app.a(uart.o)
 .xt.prop       0x0001aa6c      0x744 build/app_app.a(DataSourceStream.o)
 .xt.prop       0x0001b1b0      0x3b4 build/app_app.a(FileSystem.o)
 .xt.prop       0x0001b564      0x12c build/app_app.a(SystemClock.o)
 .xt.prop       0x0001b690      0x270 build/app_app.a(stringconversion.o)
 .xt.prop       0x0001b900      0x18c build/app_app.a(SplitString.o)
 .xt.prop       0x0001ba8c      0x120 build/app_app.a(RTC.o)
 .xt.prop       0x0001bbac      0x3f0 build/app_app.a(HttpRequest.o)
 .xt.prop       0x0001bf9c      0x198 build/app_app.a(NetUtils.o)
 .xt.prop       0x0001c134      0x9cc build/app_app.a(ArduinoJson.o)
 .xt.prop       0x0001cb00       0x9c build/app_app.a(CommandDelegate.o)
 .xt.prop       0x0001cb9c      0x45c build/app_app.a(DateTime.o)
 .xt.prop       0x0001cff8     0x1080 build/app_app.a(spiffs_hydrogen.o)
 .xt.prop       0x0001e078     0x1308 build/app_app.a(spiffs_nucleus.o)
 .xt.prop       0x0001f380      0x2a0 build/app_app.a(spiffs_sming.o)
 .xt.prop       0x0001f620      0x480 build/app_app.a(escape.o)
 .xt.prop       0x0001faa0      0x2d0 build/app_app.a(flashmem.o)
 .xt.prop       0x0001fd70      0x330 build/app_app.a(spiffs_cache.o)
 .xt.prop       0x000200a0      0xa50 build/app_app.a(spiffs_check.o)
 .xt.prop       0x00020af0      0x6f0 build/app_app.a(spiffs_gc.o)
 .xt.prop       0x000211e0       0x30 c:/Espressif/ESP8266_RTOS_SDK/lib\libmicroc.a(isprint.o)
 .xt.prop       0x00021210       0x30 c:/Espressif/ESP8266_RTOS_SDK/lib\libmicroc.a(isspace.o)
 .xt.prop       0x00021240       0x30 c:/Espressif/ESP8266_RTOS_SDK/lib\libmicroc.a(tolower.o)
 .xt.prop       0x00021270       0x30 c:/Espressif/ESP8266_RTOS_SDK/lib\libmicroc.a(toupper.o)
 .xt.prop       0x000212a0       0x30 c:/Espressif/ESP8266_RTOS_SDK/lib\libmicroc.a(isxdigit.o)
 .xt.prop       0x000212d0       0x24 c:/Espressif/ESP8266_RTOS_SDK/lib\libmicroc.a(atof.o)
                                 0x30 (size before relaxing)
 .xt.prop       0x000212f4       0x84 c:/Espressif/ESP8266_RTOS_SDK/lib\libmicroc.a(strtod.o)
 .xt.prop       0x00021378       0x60 c:/Espressif/ESP8266_RTOS_SDK/lib\libmicroc.a(__fpclassify.o)
                                 0x6c (size before relaxing)
 .xt.prop       0x000213d8       0xd8 c:/Espressif/ESP8266_RTOS_SDK/lib\libmicroc.a(memchr.o)
 .xt.prop       0x000214b0       0x30 c:/Espressif/ESP8266_RTOS_SDK/lib\libmicroc.a(__errno_location.o)
                                 0x3c (size before relaxing)
 .xt.prop       0x000214e0      0xd44 c:/Espressif/ESP8266_RTOS_SDK/lib\libmicroc.a(floatscan.o)
 .xt.prop       0x00022224       0xa8 c:/Espressif/ESP8266_RTOS_SDK/lib\libmicroc.a(shgetc.o)
                                 0xb4 (size before relaxing)
 .xt.prop       0x000222cc       0x54 c:/Espressif/ESP8266_RTOS_SDK/lib\libmicroc.a(__uflow.o)
                                 0x60 (size before relaxing)
 .xt.prop       0x00022320       0x6c c:/Espressif/ESP8266_RTOS_SDK/lib\libmicroc.a(__toread.o)
                                 0x78 (size before relaxing)
 .xt.prop       0x0002238c       0x24 c:/Espressif/ESP8266_RTOS_SDK/lib\libmicroc.a(__stdio_exit.o)
                                 0x30 (size before relaxing)
 .xt.prop       0x000223b0       0x24 c:/Espressif/ESP8266_RTOS_SDK/lib\libmicroc.a(fmodl.o)
                                 0x30 (size before relaxing)
 .xt.prop       0x000223d4       0x6c c:/Espressif/ESP8266_RTOS_SDK/lib\libmicroc.a(scalbn.o)
 .xt.prop       0x00022440       0x24 c:/Espressif/ESP8266_RTOS_SDK/lib\libmicroc.a(scalbnl.o)
                                 0x30 (size before relaxing)
 .xt.prop       0x00022464      0x180 c:/Espressif/ESP8266_RTOS_SDK/lib\libmicroc.a(fmod.o)
 .xt.prop       0x000225e4       0x3c c:/Espressif/ESP8266_RTOS_SDK/lib\libmicrogcc.a(_ashldi3.o)
 .xt.prop       0x00022620      0x288 c:/Espressif/ESP8266_RTOS_SDK/lib\libmicrogcc.a(_cmpdf2.o)
 .xt.prop       0x000228a8       0x3c c:/Espressif/ESP8266_RTOS_SDK/lib\libmicrogcc.a(_lshrdi3.o)
 .xt.prop       0x000228e4       0x84 c:/Espressif/ESP8266_RTOS_SDK/lib\libmicrogcc.a(_modsi3.o)
 .xt.prop       0x00022968      0x168 c:/Espressif/ESP8266_RTOS_SDK/lib\libgcc.a(_mulsf3.o)
 .xt.prop       0x00022ad0       0x78 c:/espressif/xtensa-lx106-elf/bin/../lib/gcc/xtensa-lx106-elf/5.1.0/../../../../xtensa-lx106-elf/lib\libhal.a(clock.o)
 .xt.prop       0x00022b48       0x24 c:/espressif/xtensa-lx106-elf/bin/../lib/gcc/xtensa-lx106-elf/5.1.0/../../../../xtensa-lx106-elf/lib\libhal.a(int_asm--set_intset.o)
 .xt.prop       0x00022b6c      0x1d4 c:/Espressif/ESP8266_RTOS_SDK/lib\libphy.a(phy.o)
                                0x1e0 (size before relaxing)
 .xt.prop       0x00022d40      0xcd8 c:/Espressif/ESP8266_RTOS_SDK/lib\libphy.a(phy_chip_v6_ana.o)
                                0xcf0 (size before relaxing)
 .xt.prop       0x00023a18     0x1fa4 c:/Espressif/ESP8266_RTOS_SDK/lib\libphy.a(phy_chip_v6.o)
                               0x2160 (size before relaxing)
 .xt.prop       0x000259bc      0xfb4 c:/Espressif/ESP8266_RTOS_SDK/lib\libphy.a(phy_chip_v6_cal.o)
                               0x1014 (size before relaxing)
 .xt.prop       0x00026970       0x60 c:/Espressif/ESP8266_RTOS_SDK/lib\libphy.a(phy_chip_v6_unused.o)
                                 0x6c (size before relaxing)
 .xt.prop       0x000269d0      0x87c c:/Espressif/ESP8266_RTOS_SDK/lib\libphy.a(phy_sleep.o)
                                0x8d0 (size before relaxing)
 .xt.prop       0x0002724c      0x5b8 c:/Espressif/ESP8266_RTOS_SDK/lib\libphy.a(phy_chip_v5_romfunc.o)
                                0x5e8 (size before relaxing)
 .xt.prop       0x00027804      0xa08 c:/Espressif/ESP8266_RTOS_SDK/lib\libphy.a(phy_chip_v5_ana_romfunc.o)
 .xt.prop       0x0002820c      0x7f8 c:/Espressif/ESP8266_RTOS_SDK/lib\libphy.a(phy_chip_v5_cal_romfunc.o)
                                0x804 (size before relaxing)
 .xt.prop       0x00028a04      0x4b0 c:/Espressif/ESP8266_RTOS_SDK/lib\libpp.a(if_hwctrl.o)
                                0x4c8 (size before relaxing)
 .xt.prop       0x00028eb4     0x1578 c:/Espressif/ESP8266_RTOS_SDK/lib\libpp.a(lmac.o)
                               0x15cc (size before relaxing)
 .xt.prop       0x0002a42c     0x192c c:/Espressif/ESP8266_RTOS_SDK/lib\libpp.a(pm.o)
                               0x1a40 (size before relaxing)
 .xt.prop       0x0002bd58      0xa98 c:/Espressif/ESP8266_RTOS_SDK/lib\libpp.a(pm_for_bcn_only_mode.o)
                                0xabc (size before relaxing)
 .xt.prop       0x0002c7f0     0x1c68 c:/Espressif/ESP8266_RTOS_SDK/lib\libpp.a(pp.o)
                               0x1e48 (size before relaxing)
 .xt.prop       0x0002e458      0x1bc c:/Espressif/ESP8266_RTOS_SDK/lib\libpp.a(rate_control.o)
                                0x1d4 (size before relaxing)
 .xt.prop       0x0002e614     0x1134 c:/Espressif/ESP8266_RTOS_SDK/lib\libpp.a(trc.o)
                               0x1194 (size before relaxing)
 .xt.prop       0x0002f748     0x13d4 c:/Espressif/ESP8266_RTOS_SDK/lib\libpp.a(wdev.o)
                               0x14d0 (size before relaxing)
 .xt.prop       0x00030b1c      0x2e8 c:/Espressif/ESP8266_RTOS_SDK/lib\libpp.a(esf_buf.o)
                                0x354 (size before relaxing)
 .xt.prop       0x00030e04      0x498 c:/Espressif/ESP8266_RTOS_SDK/lib\libnet80211.a(ieee80211.o)
                                0x4c8 (size before relaxing)
 .xt.prop       0x0003129c      0x15c c:/Espressif/ESP8266_RTOS_SDK/lib\libnet80211.a(ieee80211_crypto.o)
 .xt.prop       0x000313f8       0x48 c:/Espressif/ESP8266_RTOS_SDK/lib\libnet80211.a(ieee80211_ets.o)
 .xt.prop       0x00031440      0xe70 c:/Espressif/ESP8266_RTOS_SDK/lib\libnet80211.a(ieee80211_hostap.o)
                                0xf30 (size before relaxing)
 .xt.prop       0x000322b0      0x684 c:/Espressif/ESP8266_RTOS_SDK/lib\libnet80211.a(ieee80211_ht.o)
                                0x690 (size before relaxing)
 .xt.prop       0x00032934      0x8dc c:/Espressif/ESP8266_RTOS_SDK/lib\libnet80211.a(ieee80211_input.o)
 .xt.prop       0x00033210      0x450 c:/Espressif/ESP8266_RTOS_SDK/lib\libnet80211.a(ieee80211_mesh_quick.o)
                                0x45c (size before relaxing)
 .xt.prop       0x00033660     0x1158 c:/Espressif/ESP8266_RTOS_SDK/lib\libnet80211.a(ieee80211_output.o)
                               0x1164 (size before relaxing)
 .xt.prop       0x000347b8       0xfc c:/Espressif/ESP8266_RTOS_SDK/lib\libnet80211.a(ieee80211_phy.o)
 .xt.prop       0x000348b4      0x1b0 c:/Espressif/ESP8266_RTOS_SDK/lib\libnet80211.a(ieee80211_power.o)
 .xt.prop       0x00034a64      0x114 c:/Espressif/ESP8266_RTOS_SDK/lib\libnet80211.a(ieee80211_proto.o)
                                0x120 (size before relaxing)
 .xt.prop       0x00034b78      0x12c c:/Espressif/ESP8266_RTOS_SDK/lib\libnet80211.a(ieee80211_rfid.o)
 .xt.prop       0x00034ca4      0xc84 c:/Espressif/ESP8266_RTOS_SDK/lib\libnet80211.a(ieee80211_scan.o)
                                0xd20 (size before relaxing)
 .xt.prop       0x00035928      0xa74 c:/Espressif/ESP8266_RTOS_SDK/lib\libnet80211.a(ieee80211_sta.o)
                                0xa98 (size before relaxing)
 .xt.prop       0x0003639c      0x300 c:/Espressif/ESP8266_RTOS_SDK/lib\libnet80211.a(wl_chm.o)
                                0x30c (size before relaxing)
 .xt.prop       0x0003669c     0x1188 c:/Espressif/ESP8266_RTOS_SDK/lib\libnet80211.a(wl_cnx.o)
                               0x11d0 (size before relaxing)
 .xt.prop       0x00037824      0x33c c:/Espressif/ESP8266_RTOS_SDK/lib\libnet80211.a(ieee80211_action.o)
 .xt.prop       0x00037b60      0x354 c:/Espressif/ESP8266_RTOS_SDK/lib\libnet80211.a(ieee80211_action_vendor.o)
                                0x384 (size before relaxing)
 .xt.prop       0x00037eb4       0xcc c:/Espressif/ESP8266_RTOS_SDK/lib\libnet80211.a(ieee80211_crypto_ccmp.o)
                                 0xd8 (size before relaxing)
 .xt.prop       0x00037f80      0x114 c:/Espressif/ESP8266_RTOS_SDK/lib\libnet80211.a(ieee80211_ie_vendor.o)
 .xt.prop       0x00038094      0x2e8 c:/Espressif/ESP8266_RTOS_SDK/lib\libwpa.a(ap_config.o)
 .xt.prop       0x0003837c      0x1c8 c:/Espressif/ESP8266_RTOS_SDK/lib\libwpa.a(common.o)
 .xt.prop       0x00038544       0x90 c:/Espressif/ESP8266_RTOS_SDK/lib\libwpa.a(os_xtensa.o)
 .xt.prop       0x000385d4     0x162c c:/Espressif/ESP8266_RTOS_SDK/lib\libwpa.a(wpa_auth.o)
                               0x1650 (size before relaxing)
 .xt.prop       0x00039c00      0x480 c:/Espressif/ESP8266_RTOS_SDK/lib\libwpa.a(wpa_auth_ie.o)
 .xt.prop       0x0003a080      0xd5c c:/Espressif/ESP8266_RTOS_SDK/lib\libwpa.a(wpa.o)
                                0xd80 (size before relaxing)
 .xt.prop       0x0003addc      0x7a4 c:/Espressif/ESP8266_RTOS_SDK/lib\libwpa.a(wpa_common.o)
 .xt.prop       0x0003b580       0x30 c:/Espressif/ESP8266_RTOS_SDK/lib\libwpa.a(wpa_debug.o)
 .xt.prop       0x0003b5b0      0x378 c:/Espressif/ESP8266_RTOS_SDK/lib\libwpa.a(wpa_ie.o)
 .xt.prop       0x0003b928      0x318 c:/Espressif/ESP8266_RTOS_SDK/lib\libwpa.a(wpa_main.o)
 .xt.prop       0x0003bc40      0x12c c:/Espressif/ESP8266_RTOS_SDK/lib\libwpa.a(wpas_glue.o)
 .xt.prop       0x0003bd6c       0x78 c:/Espressif/ESP8266_RTOS_SDK/lib\libcrypto.a(aes-unwrap.o)
 .xt.prop       0x0003bde4       0x6c c:/Espressif/ESP8266_RTOS_SDK/lib\libcrypto.a(aes-wrap.o)
 .xt.prop       0x0003be50       0xa8 c:/Espressif/ESP8266_RTOS_SDK/lib\libcrypto.a(md5.o)
 .xt.prop       0x0003bef8      0x150 c:/Espressif/ESP8266_RTOS_SDK/lib\libcrypto.a(md5-internal.o)
                                0x15c (size before relaxing)
 .xt.prop       0x0003c048       0x84 c:/Espressif/ESP8266_RTOS_SDK/lib\libcrypto.a(rc4.o)
 .xt.prop       0x0003c0cc      0x120 c:/Espressif/ESP8266_RTOS_SDK/lib\libcrypto.a(sha1.o)
 .xt.prop       0x0003c1ec      0x144 c:/Espressif/ESP8266_RTOS_SDK/lib\libcrypto.a(sha1-internal.o)
                                0x15c (size before relaxing)
 .xt.prop       0x0003c330       0xd8 c:/Espressif/ESP8266_RTOS_SDK/lib\libcrypto.a(sha1-pbkdf2.o)
 .xt.prop       0x0003c408      0x120 c:/Espressif/ESP8266_RTOS_SDK/lib\libcrypto.a(aes-internal-dec.o)
 .xt.prop       0x0003c528       0xd8 c:/Espressif/ESP8266_RTOS_SDK/lib\libcrypto.a(aes-internal-enc.o)
 .xt.prop       0x0003c600       0x54 c:/Espressif/ESP8266_RTOS_SDK/lib\libcrypto.a(aes-internal.o)
                                 0x60 (size before relaxing)
 .xt.prop       0x0003c654       0xb4 c:/Espressif/ESP8266_RTOS_SDK/lib\libmain.a(routines.o)
                                 0xcc (size before relaxing)
 .xt.prop       0x0003c708       0xf0 c:/Espressif/ESP8266_RTOS_SDK/lib\liblwip.a(ethernetif.o)
                                 0xfc (size before relaxing)
 .xt.prop       0x0003c7f8       0xc0 c:/Espressif/ESP8266_RTOS_SDK/lib\liblwip.a(ethip6.o)
 .xt.prop       0x0003c8b8       0x3c c:/Espressif/ESP8266_RTOS_SDK/lib\libmicrogcc.a(_ashrdi3.o)
 .xt.prop       0x0003c8f4      0x168 c:/Espressif/ESP8266_RTOS_SDK/lib\libmicrogcc.a(_divsf3.o)
 .xt.prop       0x0003ca5c       0x60 c:/Espressif/ESP8266_RTOS_SDK/lib\libmicrogcc.a(_fixsfsi.o)
                                 0x6c (size before relaxing)
 .xt.prop       0x0003cabc       0xe4 c:/Espressif/ESP8266_RTOS_SDK/lib\libnet80211.a(ieee80211_crypto_tkip.o)
                                 0xfc (size before relaxing)
 .xt.prop       0x0003cba0       0x6c c:/Espressif/ESP8266_RTOS_SDK/lib\libnet80211.a(ieee80211_crypto_wep.o)
                                 0x78 (size before relaxing)

.comment        0x00000000     0x23f7
 .comment       0x00000000       0x55 c:/Espressif/ESP8266_RTOS_SDK/lib\libmain.a(app_main.o)
                                 0x56 (size before relaxing)
 .comment       0x00000055       0x56 c:/Espressif/ESP8266_RTOS_SDK/lib\libmain.a(ets_timer.o)
                                 0x57 (size before relaxing)
 .comment       0x000000ab       0x51 c:/Espressif/ESP8266_RTOS_SDK/lib\libmain.a(misc.o)
                                 0x52 (size before relaxing)
 .comment       0x000000fc       0x5a c:/Espressif/ESP8266_RTOS_SDK/lib\libmain.a(printf-stdarg.o)
                                 0x5b (size before relaxing)
 .comment       0x00000156       0x56 c:/Espressif/ESP8266_RTOS_SDK/lib\libmain.a(spi_flash.o)
                                 0x57 (size before relaxing)
 .comment       0x000001ac       0x51 c:/Espressif/ESP8266_RTOS_SDK/lib\libmain.a(uart.o)
                                 0x52 (size before relaxing)
 .comment       0x000001fd       0x5b c:/Espressif/ESP8266_RTOS_SDK/lib\libmain.a(user_interface.o)
                                 0x5c (size before relaxing)
 .comment       0x00000258       0x53 c:/Espressif/ESP8266_RTOS_SDK/lib\libfreertos.a(heap_4.o)
                                 0x54 (size before relaxing)
 .comment       0x000002ab       0x51 c:/Espressif/ESP8266_RTOS_SDK/lib\libfreertos.a(port.o)
                                 0x52 (size before relaxing)
 .comment       0x000002fc       0x52 c:/Espressif/ESP8266_RTOS_SDK/lib\libfreertos.a(queue.o)
                                 0x53 (size before relaxing)
 .comment       0x0000034e       0x52 c:/Espressif/ESP8266_RTOS_SDK/lib\libfreertos.a(tasks.o)
                                 0x53 (size before relaxing)
 .comment       0x000003a0       0x53 c:/Espressif/ESP8266_RTOS_SDK/lib\libfreertos.a(timers.o)
                                 0x54 (size before relaxing)
 .comment       0x000003f3       0x51 c:/Espressif/ESP8266_RTOS_SDK/lib\libfreertos.a(list.o)
                                 0x52 (size before relaxing)
 .comment       0x00000444       0x51 c:/Espressif/ESP8266_RTOS_SDK/lib\liblwip.a(dhcp.o)
                                 0x52 (size before relaxing)
 .comment       0x00000495       0x57 c:/Espressif/ESP8266_RTOS_SDK/lib\liblwip.a(dhcpserver.o)
                                 0x58 (size before relaxing)
 .comment       0x000004ec       0x50 c:/Espressif/ESP8266_RTOS_SDK/lib\liblwip.a(dns.o)
                                 0x51 (size before relaxing)
 .comment       0x0000053c       0x53 c:/Espressif/ESP8266_RTOS_SDK/lib\liblwip.a(etharp.o)
                                 0x54 (size before relaxing)
 .comment       0x0000058f       0x55 c:/Espressif/ESP8266_RTOS_SDK/lib\liblwip.a(ip4_addr.o)
                                 0x56 (size before relaxing)
 .comment       0x000005e4       0x50 c:/Espressif/ESP8266_RTOS_SDK/lib\liblwip.a(ip4.o)
                                 0x51 (size before relaxing)
 .comment       0x00000634       0x50 c:/Espressif/ESP8266_RTOS_SDK/lib\liblwip.a(ip6.o)
                                 0x51 (size before relaxing)
 .comment       0x00000684       0x51 c:/Espressif/ESP8266_RTOS_SDK/lib\liblwip.a(memp.o)
                                 0x52 (size before relaxing)
 .comment       0x000006d5       0x51 c:/Espressif/ESP8266_RTOS_SDK/lib\liblwip.a(mld6.o)
                                 0x52 (size before relaxing)
 .comment       0x00000726       0x50 c:/Espressif/ESP8266_RTOS_SDK/lib\liblwip.a(nd6.o)
                                 0x51 (size before relaxing)
 .comment       0x00000776       0x52 c:/Espressif/ESP8266_RTOS_SDK/lib\liblwip.a(netif.o)
                                 0x53 (size before relaxing)
 .comment       0x000007c8       0x51 c:/Espressif/ESP8266_RTOS_SDK/lib\liblwip.a(pbuf.o)
                                 0x52 (size before relaxing)
 .comment       0x00000819       0x50 c:/Espressif/ESP8266_RTOS_SDK/lib\liblwip.a(raw.o)
                                 0x51 (size before relaxing)
 .comment       0x00000869       0x55 c:/Espressif/ESP8266_RTOS_SDK/lib\liblwip.a(sys_arch.o)
                                 0x56 (size before relaxing)
 .comment       0x000008be       0x53 c:/Espressif/ESP8266_RTOS_SDK/lib\liblwip.a(tcp_in.o)
                                 0x54 (size before relaxing)
 .comment       0x00000911       0x52 c:/Espressif/ESP8266_RTOS_SDK/lib\liblwip.a(tcpip.o)
                                 0x53 (size before relaxing)
 .comment       0x00000963       0x50 c:/Espressif/ESP8266_RTOS_SDK/lib\liblwip.a(tcp.o)
                                 0x51 (size before relaxing)
 .comment       0x000009b3       0x54 c:/Espressif/ESP8266_RTOS_SDK/lib\liblwip.a(tcp_out.o)
                                 0x55 (size before relaxing)
 .comment       0x00000000       0x54 c:/Espressif/ESP8266_RTOS_SDK/lib\liblwip.a(timers.o)
 .comment       0x00000a07       0x50 c:/Espressif/ESP8266_RTOS_SDK/lib\liblwip.a(udp.o)
                                 0x51 (size before relaxing)
 .comment       0x00000a57       0x54 c:/Espressif/ESP8266_RTOS_SDK/lib\liblwip.a(api_msg.o)
                                 0x55 (size before relaxing)
 .comment       0x00000aab       0x52 c:/Espressif/ESP8266_RTOS_SDK/lib\liblwip.a(icmp6.o)
                                 0x53 (size before relaxing)
 .comment       0x00000afd       0x51 c:/Espressif/ESP8266_RTOS_SDK/lib\liblwip.a(icmp.o)
                                 0x52 (size before relaxing)
 .comment       0x00000b4e       0x58 c:/Espressif/ESP8266_RTOS_SDK/lib\liblwip.a(inet_chksum.o)
                                 0x59 (size before relaxing)
 .comment       0x00000ba6       0x51 c:/Espressif/ESP8266_RTOS_SDK/lib\liblwip.a(init.o)
                                 0x52 (size before relaxing)
 .comment       0x00000bf7       0x55 c:/Espressif/ESP8266_RTOS_SDK/lib\liblwip.a(ip6_addr.o)
                                 0x56 (size before relaxing)
 .comment       0x00000c4c       0x55 c:/Espressif/ESP8266_RTOS_SDK/lib\liblwip.a(ip6_frag.o)
                                 0x56 (size before relaxing)
 .comment       0x00000ca1       0x53 c:/Espressif/ESP8266_RTOS_SDK/lib\liblwip.a(netbuf.o)
                                 0x54 (size before relaxing)
 .comment       0x00000cf4       0x54 c:/Espressif/ESP8266_RTOS_SDK/lib\liblwip.a(sockets.o)
                                 0x55 (size before relaxing)
 .comment       0x00000d48       0x54 c:/Espressif/ESP8266_RTOS_SDK/lib\liblwip.a(api_lib.o)
                                 0x55 (size before relaxing)
 .comment       0x00000d9c       0x52 c:/Espressif/ESP8266_RTOS_SDK/lib\libminic.a(minic.o)
                                 0x53 (size before relaxing)
 .comment       0x00000dee       0x11 build/app_app.a(user_main_sming.o)
                                 0x12 (size before relaxing)
 .comment       0x00000000       0x12 build/app_app.a(Digital.o)
 .comment       0x00000000       0x12 build/app_app.a(Temp_HardwareSerial.o)
 .comment       0x00000000       0x12 build/app_app.a(Timer.o)
 .comment       0x00000000       0x12 build/app_app.a(WifiStation.o)
 .comment       0x00000000       0x12 build/app_app.a(CQueue.o)
 .comment       0x00000000       0x12 build/app_app.a(CTask.o)
 .comment       0x00000000       0x12 build/app_app.a(IPAddress.o)
 .comment       0x00000000       0x12 build/app_app.a(Print.o)
 .comment       0x00000000       0x12 build/app_app.a(WString.o)
 .comment       0x00000000       0x12 build/app_app.a(HttpResponse.o)
 .comment       0x00000000       0x12 build/app_app.a(HttpServer.o)
 .comment       0x00000000       0x12 build/app_app.a(HttpServerConnection.o)
 .comment       0x00000000       0x12 build/app_app.a(TcpClient.o)
 .comment       0x00000000       0x12 build/app_app.a(TcpConnection.o)
 .comment       0x00000000       0x12 build/app_app.a(TcpServer.o)
 .comment       0x00000000       0x12 build/app_app.a(TelnetServer.o)
 .comment       0x00000000       0x12 build/app_app.a(UdpConnection.o)
 .comment       0x00000000       0x12 build/app_app.a(WebSocket.o)
 .comment       0x00000000       0x12 build/app_app.a(CommandExecutor.o)
 .comment       0x00000000       0x12 build/app_app.a(CommandHandler.o)
 .comment       0x00000000       0x12 build/app_app.a(CommandOutput.o)
 .comment       0x00000000       0x12 build/app_app.a(base64.o)
 .comment       0x00000000       0x12 build/app_app.a(websocket.o)
 .comment       0x00000000       0x12 build/app_app.a(m_printf.o)
 .comment       0x00000000       0x12 build/app_app.a(uart.o)
 .comment       0x00000000       0x12 build/app_app.a(DataSourceStream.o)
 .comment       0x00000000       0x12 build/app_app.a(FileSystem.o)
 .comment       0x00000000       0x12 build/app_app.a(SystemClock.o)
 .comment       0x00000000       0x12 build/app_app.a(stringconversion.o)
 .comment       0x00000000       0x12 build/app_app.a(SplitString.o)
 .comment       0x00000000       0x12 build/app_app.a(RTC.o)
 .comment       0x00000000       0x12 build/app_app.a(HttpRequest.o)
 .comment       0x00000000       0x12 build/app_app.a(NetUtils.o)
 .comment       0x00000000       0x12 build/app_app.a(ArduinoJson.o)
 .comment       0x00000000       0x12 build/app_app.a(CommandDelegate.o)
 .comment       0x00000000       0x12 build/app_app.a(DateTime.o)
 .comment       0x00000000       0x12 build/app_app.a(spiffs_hydrogen.o)
 .comment       0x00000000       0x12 build/app_app.a(spiffs_nucleus.o)
 .comment       0x00000000       0x12 build/app_app.a(spiffs_sming.o)
 .comment       0x00000000       0x12 build/app_app.a(escape.o)
 .comment       0x00000000       0x12 build/app_app.a(flashmem.o)
 .comment       0x00000000       0x12 build/app_app.a(spiffs_cache.o)
 .comment       0x00000000       0x12 build/app_app.a(spiffs_check.o)
 .comment       0x00000000       0x12 build/app_app.a(spiffs_gc.o)
 .comment       0x00000000       0x12 c:/Espressif/ESP8266_RTOS_SDK/lib\libmicroc.a(isprint.o)
 .comment       0x00000000       0x12 c:/Espressif/ESP8266_RTOS_SDK/lib\libmicroc.a(isspace.o)
 .comment       0x00000000       0x12 c:/Espressif/ESP8266_RTOS_SDK/lib\libmicroc.a(tolower.o)
 .comment       0x00000000       0x12 c:/Espressif/ESP8266_RTOS_SDK/lib\libmicroc.a(toupper.o)
 .comment       0x00000000       0x12 c:/Espressif/ESP8266_RTOS_SDK/lib\libmicroc.a(isxdigit.o)
 .comment       0x00000000       0x12 c:/Espressif/ESP8266_RTOS_SDK/lib\libmicroc.a(atof.o)
 .comment       0x00000000       0x12 c:/Espressif/ESP8266_RTOS_SDK/lib\libmicroc.a(strtod.o)
 .comment       0x00000000       0x12 c:/Espressif/ESP8266_RTOS_SDK/lib\libmicroc.a(__fpclassify.o)
 .comment       0x00000000       0x12 c:/Espressif/ESP8266_RTOS_SDK/lib\libmicroc.a(memchr.o)
 .comment       0x00000000       0x12 c:/Espressif/ESP8266_RTOS_SDK/lib\libmicroc.a(__errno_location.o)
 .comment       0x00000000       0x12 c:/Espressif/ESP8266_RTOS_SDK/lib\libmicroc.a(floatscan.o)
 .comment       0x00000000       0x12 c:/Espressif/ESP8266_RTOS_SDK/lib\libmicroc.a(shgetc.o)
 .comment       0x00000000       0x12 c:/Espressif/ESP8266_RTOS_SDK/lib\libmicroc.a(__uflow.o)
 .comment       0x00000000       0x12 c:/Espressif/ESP8266_RTOS_SDK/lib\libmicroc.a(__toread.o)
 .comment       0x00000000       0x12 c:/Espressif/ESP8266_RTOS_SDK/lib\libmicroc.a(__stdio_exit.o)
 .comment       0x00000000       0x12 c:/Espressif/ESP8266_RTOS_SDK/lib\libmicroc.a(fmodl.o)
 .comment       0x00000000       0x12 c:/Espressif/ESP8266_RTOS_SDK/lib\libmicroc.a(scalbn.o)
 .comment       0x00000000       0x12 c:/Espressif/ESP8266_RTOS_SDK/lib\libmicroc.a(scalbnl.o)
 .comment       0x00000000       0x12 c:/Espressif/ESP8266_RTOS_SDK/lib\libmicroc.a(fmod.o)
 .comment       0x00000dff       0x41 c:/Espressif/ESP8266_RTOS_SDK/lib\libphy.a(phy.o)
 .comment       0x00000e40       0x4d c:/Espressif/ESP8266_RTOS_SDK/lib\libphy.a(phy_chip_v6_ana.o)
 .comment       0x00000e8d       0x49 c:/Espressif/ESP8266_RTOS_SDK/lib\libphy.a(phy_chip_v6.o)
 .comment       0x00000ed6       0x4d c:/Espressif/ESP8266_RTOS_SDK/lib\libphy.a(phy_chip_v6_cal.o)
 .comment       0x00000f23       0x50 c:/Espressif/ESP8266_RTOS_SDK/lib\libphy.a(phy_chip_v6_unused.o)
 .comment       0x00000f73       0x47 c:/Espressif/ESP8266_RTOS_SDK/lib\libphy.a(phy_sleep.o)
 .comment       0x00000fba       0x51 c:/Espressif/ESP8266_RTOS_SDK/lib\libphy.a(phy_chip_v5_romfunc.o)
 .comment       0x0000100b       0x55 c:/Espressif/ESP8266_RTOS_SDK/lib\libphy.a(phy_chip_v5_ana_romfunc.o)
 .comment       0x00001060       0x55 c:/Espressif/ESP8266_RTOS_SDK/lib\libphy.a(phy_chip_v5_cal_romfunc.o)
 .comment       0x000010b5       0x56 c:/Espressif/ESP8266_RTOS_SDK/lib\libpp.a(if_hwctrl.o)
                                 0x57 (size before relaxing)
 .comment       0x0000110b       0x51 c:/Espressif/ESP8266_RTOS_SDK/lib\libpp.a(lmac.o)
                                 0x52 (size before relaxing)
 .comment       0x0000115c       0x4f c:/Espressif/ESP8266_RTOS_SDK/lib\libpp.a(pm.o)
                                 0x50 (size before relaxing)
 .comment       0x000011ab       0x61 c:/Espressif/ESP8266_RTOS_SDK/lib\libpp.a(pm_for_bcn_only_mode.o)
                                 0x62 (size before relaxing)
 .comment       0x0000120c       0x4f c:/Espressif/ESP8266_RTOS_SDK/lib\libpp.a(pp.o)
                                 0x50 (size before relaxing)
 .comment       0x0000125b       0x59 c:/Espressif/ESP8266_RTOS_SDK/lib\libpp.a(rate_control.o)
                                 0x5a (size before relaxing)
 .comment       0x000012b4       0x50 c:/Espressif/ESP8266_RTOS_SDK/lib\libpp.a(trc.o)
                                 0x51 (size before relaxing)
 .comment       0x00001304       0x51 c:/Espressif/ESP8266_RTOS_SDK/lib\libpp.a(wdev.o)
                                 0x52 (size before relaxing)
 .comment       0x00001355       0x54 c:/Espressif/ESP8266_RTOS_SDK/lib\libpp.a(esf_buf.o)
                                 0x55 (size before relaxing)
 .comment       0x000013a9       0x56 c:/Espressif/ESP8266_RTOS_SDK/lib\libnet80211.a(ieee80211.o)
                                 0x57 (size before relaxing)
 .comment       0x000013ff       0x5d c:/Espressif/ESP8266_RTOS_SDK/lib\libnet80211.a(ieee80211_crypto.o)
                                 0x5e (size before relaxing)
 .comment       0x0000145c       0x5a c:/Espressif/ESP8266_RTOS_SDK/lib\libnet80211.a(ieee80211_ets.o)
                                 0x5b (size before relaxing)
 .comment       0x000014b6       0x5d c:/Espressif/ESP8266_RTOS_SDK/lib\libnet80211.a(ieee80211_hostap.o)
                                 0x5e (size before relaxing)
 .comment       0x00001513       0x59 c:/Espressif/ESP8266_RTOS_SDK/lib\libnet80211.a(ieee80211_ht.o)
                                 0x5a (size before relaxing)
 .comment       0x0000156c       0x5c c:/Espressif/ESP8266_RTOS_SDK/lib\libnet80211.a(ieee80211_input.o)
                                 0x5d (size before relaxing)
 .comment       0x000015c8       0x61 c:/Espressif/ESP8266_RTOS_SDK/lib\libnet80211.a(ieee80211_mesh_quick.o)
                                 0x62 (size before relaxing)
 .comment       0x00001629       0x5d c:/Espressif/ESP8266_RTOS_SDK/lib\libnet80211.a(ieee80211_output.o)
                                 0x5e (size before relaxing)
 .comment       0x00001686       0x5a c:/Espressif/ESP8266_RTOS_SDK/lib\libnet80211.a(ieee80211_phy.o)
                                 0x5b (size before relaxing)
 .comment       0x000016e0       0x5c c:/Espressif/ESP8266_RTOS_SDK/lib\libnet80211.a(ieee80211_power.o)
                                 0x5d (size before relaxing)
 .comment       0x0000173c       0x5c c:/Espressif/ESP8266_RTOS_SDK/lib\libnet80211.a(ieee80211_proto.o)
                                 0x5d (size before relaxing)
 .comment       0x00001798       0x5b c:/Espressif/ESP8266_RTOS_SDK/lib\libnet80211.a(ieee80211_rfid.o)
                                 0x5c (size before relaxing)
 .comment       0x000017f3       0x5b c:/Espressif/ESP8266_RTOS_SDK/lib\libnet80211.a(ieee80211_scan.o)
                                 0x5c (size before relaxing)
 .comment       0x0000184e       0x5a c:/Espressif/ESP8266_RTOS_SDK/lib\libnet80211.a(ieee80211_sta.o)
                                 0x5b (size before relaxing)
 .comment       0x000018a8       0x53 c:/Espressif/ESP8266_RTOS_SDK/lib\libnet80211.a(wl_chm.o)
                                 0x54 (size before relaxing)
 .comment       0x000018fb       0x53 c:/Espressif/ESP8266_RTOS_SDK/lib\libnet80211.a(wl_cnx.o)
                                 0x54 (size before relaxing)
 .comment       0x0000194e       0x5d c:/Espressif/ESP8266_RTOS_SDK/lib\libnet80211.a(ieee80211_action.o)
                                 0x5e (size before relaxing)
 .comment       0x000019ab       0x64 c:/Espressif/ESP8266_RTOS_SDK/lib\libnet80211.a(ieee80211_action_vendor.o)
                                 0x65 (size before relaxing)
 .comment       0x00001a0f       0x62 c:/Espressif/ESP8266_RTOS_SDK/lib\libnet80211.a(ieee80211_crypto_ccmp.o)
                                 0x63 (size before relaxing)
 .comment       0x00001a71       0x60 c:/Espressif/ESP8266_RTOS_SDK/lib\libnet80211.a(ieee80211_ie_vendor.o)
                                 0x61 (size before relaxing)
 .comment       0x00001ad1       0x56 c:/Espressif/ESP8266_RTOS_SDK/lib\libwpa.a(ap_config.o)
                                 0x57 (size before relaxing)
 .comment       0x00001b27       0x53 c:/Espressif/ESP8266_RTOS_SDK/lib\libwpa.a(common.o)
                                 0x54 (size before relaxing)
 .comment       0x00001b7a       0x56 c:/Espressif/ESP8266_RTOS_SDK/lib\libwpa.a(os_xtensa.o)
                                 0x57 (size before relaxing)
 .comment       0x00001bd0       0x55 c:/Espressif/ESP8266_RTOS_SDK/lib\libwpa.a(wpa_auth.o)
                                 0x56 (size before relaxing)
 .comment       0x00001c25       0x58 c:/Espressif/ESP8266_RTOS_SDK/lib\libwpa.a(wpa_auth_ie.o)
                                 0x59 (size before relaxing)
 .comment       0x00001c7d       0x50 c:/Espressif/ESP8266_RTOS_SDK/lib\libwpa.a(wpa.o)
                                 0x51 (size before relaxing)
 .comment       0x00001ccd       0x57 c:/Espressif/ESP8266_RTOS_SDK/lib\libwpa.a(wpa_common.o)
                                 0x58 (size before relaxing)
 .comment       0x00001d24       0x56 c:/Espressif/ESP8266_RTOS_SDK/lib\libwpa.a(wpa_debug.o)
                                 0x57 (size before relaxing)
 .comment       0x00001d7a       0x53 c:/Espressif/ESP8266_RTOS_SDK/lib\libwpa.a(wpa_ie.o)
                                 0x54 (size before relaxing)
 .comment       0x00001dcd       0x55 c:/Espressif/ESP8266_RTOS_SDK/lib\libwpa.a(wpa_main.o)
                                 0x56 (size before relaxing)
 .comment       0x00001e22       0x56 c:/Espressif/ESP8266_RTOS_SDK/lib\libwpa.a(wpas_glue.o)
                                 0x57 (size before relaxing)
 .comment       0x00001e78       0x57 c:/Espressif/ESP8266_RTOS_SDK/lib\libcrypto.a(aes-unwrap.o)
                                 0x58 (size before relaxing)
 .comment       0x00001ecf       0x55 c:/Espressif/ESP8266_RTOS_SDK/lib\libcrypto.a(aes-wrap.o)
                                 0x56 (size before relaxing)
 .comment       0x00001f24       0x50 c:/Espressif/ESP8266_RTOS_SDK/lib\libcrypto.a(md5.o)
                                 0x51 (size before relaxing)
 .comment       0x00001f74       0x59 c:/Espressif/ESP8266_RTOS_SDK/lib\libcrypto.a(md5-internal.o)
                                 0x5a (size before relaxing)
 .comment       0x00001fcd       0x50 c:/Espressif/ESP8266_RTOS_SDK/lib\libcrypto.a(rc4.o)
                                 0x51 (size before relaxing)
 .comment       0x0000201d       0x51 c:/Espressif/ESP8266_RTOS_SDK/lib\libcrypto.a(sha1.o)
                                 0x52 (size before relaxing)
 .comment       0x0000206e       0x5a c:/Espressif/ESP8266_RTOS_SDK/lib\libcrypto.a(sha1-internal.o)
                                 0x5b (size before relaxing)
 .comment       0x000020c8       0x58 c:/Espressif/ESP8266_RTOS_SDK/lib\libcrypto.a(sha1-pbkdf2.o)
                                 0x59 (size before relaxing)
 .comment       0x00002120       0x5d c:/Espressif/ESP8266_RTOS_SDK/lib\libcrypto.a(aes-internal-dec.o)
                                 0x5e (size before relaxing)
 .comment       0x0000217d       0x5d c:/Espressif/ESP8266_RTOS_SDK/lib\libcrypto.a(aes-internal-enc.o)
                                 0x5e (size before relaxing)
 .comment       0x000021da       0x59 c:/Espressif/ESP8266_RTOS_SDK/lib\libcrypto.a(aes-internal.o)
                                 0x5a (size before relaxing)
 .comment       0x00002233       0x57 c:/Espressif/ESP8266_RTOS_SDK/lib\libmain.a(routines.o)
                                 0x58 (size before relaxing)
 .comment       0x0000228a       0x57 c:/Espressif/ESP8266_RTOS_SDK/lib\liblwip.a(ethernetif.o)
                                 0x58 (size before relaxing)
 .comment       0x000022e1       0x53 c:/Espressif/ESP8266_RTOS_SDK/lib\liblwip.a(ethip6.o)
                                 0x54 (size before relaxing)
 .comment       0x00002334       0x62 c:/Espressif/ESP8266_RTOS_SDK/lib\libnet80211.a(ieee80211_crypto_tkip.o)
                                 0x63 (size before relaxing)
 .comment       0x00002396       0x61 c:/Espressif/ESP8266_RTOS_SDK/lib\libnet80211.a(ieee80211_crypto_wep.o)
                                 0x62 (size before relaxing)

.xt.lit._ZN14FunctionCallerIPFvR9TcpClientbEvJS1_bEED0Ev
                0x00000000        0x8
 .xt.lit._ZN14FunctionCallerIPFvR9TcpClientbEvJS1_bEED0Ev
                0x00000000        0x8 build/app_app.a(user_main_sming.o)

.xt.lit._ZN14FunctionCallerIPFbR9TcpClientPciEbJS1_S2_iEED0Ev
                0x00000000        0x0
 .xt.lit._ZN14FunctionCallerIPFbR9TcpClientPciEbJS1_S2_iEED0Ev
                0x00000000        0x0 build/app_app.a(user_main_sming.o)
                                  0x8 (size before relaxing)

.xt.lit._ZN14FunctionCallerIPFvP9TcpClientEvJS1_EED0Ev
                0x00000000        0x0
 .xt.lit._ZN14FunctionCallerIPFvP9TcpClientEvJS1_EED0Ev
                0x00000000        0x0 build/app_app.a(user_main_sming.o)
                                  0x8 (size before relaxing)

.xt.lit._ZN14FunctionCallerIPFvvEvJEED0Ev
                0x00000000        0x0
 .xt.lit._ZN14FunctionCallerIPFvvEvJEED0Ev
                0x00000000        0x0 build/app_app.a(user_main_sming.o)
                                  0x8 (size before relaxing)

.xt.lit._ZN14FunctionCallerIPFvR13UdpConnectionPci9IPAddresstEvJS1_S2_iS3_tEED0Ev
                0x00000000        0x0
 .xt.lit._ZN14FunctionCallerIPFvR13UdpConnectionPci9IPAddresstEvJS1_S2_iS3_tEED0Ev
                0x00000000        0x0 build/app_app.a(user_main_sming.o)
                                  0x8 (size before relaxing)

.xt.lit._ZN14FunctionCallerIPFvR11HttpRequestR12HttpResponseEvJS1_S3_EED0Ev
                0x00000000        0x0
 .xt.lit._ZN14FunctionCallerIPFvR11HttpRequestR12HttpResponseEvJS1_S3_EED0Ev
                0x00000000        0x0 build/app_app.a(user_main_sming.o)
                                  0x8 (size before relaxing)

.xt.lit._ZN6VectorI6StringED2Ev
                0x00000000        0x8
 .xt.lit._ZN6VectorI6StringED2Ev
                0x00000000        0x8 build/app_app.a(user_main_sming.o)

.xt.lit._ZN6VectorI6StringED0Ev
                0x00000000        0x0
 .xt.lit._ZN6VectorI6StringED0Ev
                0x00000000        0x0 build/app_app.a(user_main_sming.o)
                                  0x8 (size before relaxing)

.xt.lit._ZN6VectorI6StringEixEj
                0x00000000        0x8
 .xt.lit._ZN6VectorI6StringEixEj
                0x00000000        0x8 build/app_app.a(user_main_sming.o)

.xt.lit._ZNK6VectorI6StringEixEj
                0x00000000        0x0
 .xt.lit._ZNK6VectorI6StringEixEj
                0x00000000        0x0 build/app_app.a(user_main_sming.o)
                                  0x8 (size before relaxing)

.xt.lit._ZN12DelegateDemo12callDelegateEv
                0x00000000        0x8
 .xt.lit._ZN12DelegateDemo12callDelegateEv
                0x00000000        0x8 build/app_app.a(user_main_sming.o)

.xt.prop._ZN14FunctionCallerIPFvR11HttpRequestR12HttpResponseEvJS1_S3_EED2Ev
                0x00000000       0x24
 .xt.prop._ZN14FunctionCallerIPFvR11HttpRequestR12HttpResponseEvJS1_S3_EED2Ev
                0x00000000       0x24 build/app_app.a(user_main_sming.o)

.xt.prop._ZN14FunctionCallerIPFvR13UdpConnectionPci9IPAddresstEvJS1_S2_iS3_tEED2Ev
                0x00000000       0x24
 .xt.prop._ZN14FunctionCallerIPFvR13UdpConnectionPci9IPAddresstEvJS1_S2_iS3_tEED2Ev
                0x00000000       0x24 build/app_app.a(user_main_sming.o)

.xt.prop._ZN14FunctionCallerIPFvvEvJEED2Ev
                0x00000000       0x24
 .xt.prop._ZN14FunctionCallerIPFvvEvJEED2Ev
                0x00000000       0x24 build/app_app.a(user_main_sming.o)

.xt.prop._ZN14FunctionCallerIPFvP9TcpClientEvJS1_EED2Ev
                0x00000000       0x24
 .xt.prop._ZN14FunctionCallerIPFvP9TcpClientEvJS1_EED2Ev
                0x00000000       0x24 build/app_app.a(user_main_sming.o)

.xt.prop._ZN14FunctionCallerIPFbR9TcpClientPciEbJS1_S2_iEED2Ev
                0x00000000       0x24
 .xt.prop._ZN14FunctionCallerIPFbR9TcpClientPciEbJS1_S2_iEED2Ev
                0x00000000       0x24 build/app_app.a(user_main_sming.o)

.xt.prop._ZN14FunctionCallerIPFvR9TcpClientbEvJS1_bEED2Ev
                0x00000000       0x24
 .xt.prop._ZN14FunctionCallerIPFvR9TcpClientbEvJS1_bEED2Ev
                0x00000000       0x24 build/app_app.a(user_main_sming.o)

.xt.prop._ZN14FunctionCallerIPFvR11HttpRequestR12HttpResponseEvJS1_S3_EE6invokeES1_S3_
                0x00000000       0x24
 .xt.prop._ZN14FunctionCallerIPFvR11HttpRequestR12HttpResponseEvJS1_S3_EE6invokeES1_S3_
                0x00000000       0x24 build/app_app.a(user_main_sming.o)

.xt.prop._ZN14FunctionCallerIPFvR13UdpConnectionPci9IPAddresstEvJS1_S2_iS3_tEE6invokeES1_S2_iS3_t
                0x00000000       0x24
 .xt.prop._ZN14FunctionCallerIPFvR13UdpConnectionPci9IPAddresstEvJS1_S2_iS3_tEE6invokeES1_S2_iS3_t
                0x00000000       0x24 build/app_app.a(user_main_sming.o)

.xt.prop._ZN14FunctionCallerIPFvvEvJEE6invokeEv
                0x00000000       0x24
 .xt.prop._ZN14FunctionCallerIPFvvEvJEE6invokeEv
                0x00000000       0x24 build/app_app.a(user_main_sming.o)

.xt.prop._ZN14FunctionCallerIPFvP9TcpClientEvJS1_EE6invokeES1_
                0x00000000       0x24
 .xt.prop._ZN14FunctionCallerIPFvP9TcpClientEvJS1_EE6invokeES1_
                0x00000000       0x24 build/app_app.a(user_main_sming.o)

.xt.prop._ZN14FunctionCallerIPFbR9TcpClientPciEbJS1_S2_iEE6invokeES1_S2_i
                0x00000000       0x24
 .xt.prop._ZN14FunctionCallerIPFbR9TcpClientPciEbJS1_S2_iEE6invokeES1_S2_i
                0x00000000       0x24 build/app_app.a(user_main_sming.o)

.xt.prop._ZN14FunctionCallerIPFvR9TcpClientbEvJS1_bEE6invokeES1_b
                0x00000000       0x24
 .xt.prop._ZN14FunctionCallerIPFvR9TcpClientbEvJS1_bEE6invokeES1_b
                0x00000000       0x24 build/app_app.a(user_main_sming.o)

.xt.prop._ZNK6VectorI6StringE5countEv
                0x00000000       0x24
 .xt.prop._ZNK6VectorI6StringE5countEv
                0x00000000       0x24 build/app_app.a(user_main_sming.o)

.xt.prop._ZN14FunctionCallerIPFvR9TcpClientbEvJS1_bEED0Ev
                0x00000000       0x24
 .xt.prop._ZN14FunctionCallerIPFvR9TcpClientbEvJS1_bEED0Ev
                0x00000000       0x24 build/app_app.a(user_main_sming.o)

.xt.prop._ZN14FunctionCallerIPFbR9TcpClientPciEbJS1_S2_iEED0Ev
                0x00000000       0x24
 .xt.prop._ZN14FunctionCallerIPFbR9TcpClientPciEbJS1_S2_iEED0Ev
                0x00000000       0x24 build/app_app.a(user_main_sming.o)

.xt.prop._ZN14FunctionCallerIPFvP9TcpClientEvJS1_EED0Ev
                0x00000000       0x24
 .xt.prop._ZN14FunctionCallerIPFvP9TcpClientEvJS1_EED0Ev
                0x00000000       0x24 build/app_app.a(user_main_sming.o)

.xt.prop._ZN14FunctionCallerIPFvvEvJEED0Ev
                0x00000000       0x24
 .xt.prop._ZN14FunctionCallerIPFvvEvJEED0Ev
                0x00000000       0x24 build/app_app.a(user_main_sming.o)

.xt.prop._ZN14FunctionCallerIPFvR13UdpConnectionPci9IPAddresstEvJS1_S2_iS3_tEED0Ev
                0x00000000       0x24
 .xt.prop._ZN14FunctionCallerIPFvR13UdpConnectionPci9IPAddresstEvJS1_S2_iS3_tEED0Ev
                0x00000000       0x24 build/app_app.a(user_main_sming.o)

.xt.prop._ZN14FunctionCallerIPFvR11HttpRequestR12HttpResponseEvJS1_S3_EED0Ev
                0x00000000       0x24
 .xt.prop._ZN14FunctionCallerIPFvR11HttpRequestR12HttpResponseEvJS1_S3_EED0Ev
                0x00000000       0x24 build/app_app.a(user_main_sming.o)

.xt.prop._ZN6VectorI6StringED2Ev
                0x00000000       0x48
 .xt.prop._ZN6VectorI6StringED2Ev
                0x00000000       0x48 build/app_app.a(user_main_sming.o)

.xt.prop._ZN6VectorI6StringED0Ev
                0x00000000       0x24
 .xt.prop._ZN6VectorI6StringED0Ev
                0x00000000       0x24 build/app_app.a(user_main_sming.o)

.xt.prop._ZN6VectorI6StringEixEj
                0x00000000       0x3c
 .xt.prop._ZN6VectorI6StringEixEj
                0x00000000       0x3c build/app_app.a(user_main_sming.o)

.xt.prop._ZNK6VectorI6StringEixEj
                0x00000000       0x30
 .xt.prop._ZNK6VectorI6StringEixEj
                0x00000000       0x30 build/app_app.a(user_main_sming.o)

.xt.prop._ZN12DelegateDemo12callDelegateEv
                0x00000000       0x3c
 .xt.prop._ZN12DelegateDemo12callDelegateEv
                0x00000000       0x3c build/app_app.a(user_main_sming.o)

.xt.prop._ZTV6VectorI6StringE
                0x00000000        0xc
 .xt.prop._ZTV6VectorI6StringE
                0x00000000        0xc build/app_app.a(user_main_sming.o)

.xt.prop._ZTV14FunctionCallerIPFvR9TcpClientbEvJS1_bEE
                0x00000000        0xc
 .xt.prop._ZTV14FunctionCallerIPFvR9TcpClientbEvJS1_bEE
                0x00000000        0xc build/app_app.a(user_main_sming.o)

.xt.prop._ZTV14FunctionCallerIPFbR9TcpClientPciEbJS1_S2_iEE
                0x00000000        0xc
 .xt.prop._ZTV14FunctionCallerIPFbR9TcpClientPciEbJS1_S2_iEE
                0x00000000        0xc build/app_app.a(user_main_sming.o)

.xt.prop._ZTV14FunctionCallerIPFvP9TcpClientEvJS1_EE
                0x00000000        0xc
 .xt.prop._ZTV14FunctionCallerIPFvP9TcpClientEvJS1_EE
                0x00000000        0xc build/app_app.a(user_main_sming.o)

.xt.prop._ZTV14FunctionCallerIPFvvEvJEE
                0x00000000        0xc
 .xt.prop._ZTV14FunctionCallerIPFvvEvJEE
                0x00000000        0xc build/app_app.a(user_main_sming.o)

.xt.prop._ZTV14FunctionCallerIPFvR13UdpConnectionPci9IPAddresstEvJS1_S2_iS3_tEE
                0x00000000        0xc
 .xt.prop._ZTV14FunctionCallerIPFvR13UdpConnectionPci9IPAddresstEvJS1_S2_iS3_tEE
                0x00000000        0xc build/app_app.a(user_main_sming.o)

.xt.prop._ZTV14FunctionCallerIPFvR11HttpRequestR12HttpResponseEvJS1_S3_EE
                0x00000000        0xc
 .xt.prop._ZTV14FunctionCallerIPFvR11HttpRequestR12HttpResponseEvJS1_S3_EE
                0x00000000        0xc build/app_app.a(user_main_sming.o)

.xt.prop._ZTV14HardwareSerial
                0x00000000        0xc
 .xt.prop._ZTV14HardwareSerial
                0x00000000        0xc build/app_app.a(Temp_HardwareSerial.o)

.xt.prop._ZN8DelegateIFvvEE4copyERKS1_
                0x00000000       0x24
 .xt.prop._ZN8DelegateIFvvEE4copyERKS1_
                0x00000000       0x24 build/app_app.a(Timer.o)

.xt.prop._ZTV11WifiStation
                0x00000000        0xc
 .xt.prop._ZTV11WifiStation
                0x00000000        0xc build/app_app.a(WifiStation.o)

.xt.prop._ZNK6CQueue7IsValidEv
                0x00000000       0x24
 .xt.prop._ZNK6CQueue7IsValidEv
                0x00000000       0x24 build/app_app.a(CQueue.o)

.xt.prop._ZN6CQueue6DetachEv
                0x00000000       0x24
 .xt.prop._ZN6CQueue6DetachEv
                0x00000000       0x24 build/app_app.a(CQueue.o)

.xt.prop._ZTV6CQueue
                0x00000000        0xc
 .xt.prop._ZTV6CQueue
                0x00000000        0xc build/app_app.a(CQueue.o)

.xt.prop._ZNK5CTask7IsValidEv
                0x00000000       0x24
 .xt.prop._ZNK5CTask7IsValidEv
                0x00000000       0x24 build/app_app.a(CTask.o)

.xt.prop._ZN5CTask6DetachEv
                0x00000000       0x24
 .xt.prop._ZN5CTask6DetachEv
                0x00000000       0x24 build/app_app.a(CTask.o)

.xt.prop._ZTV5CTask
                0x00000000        0xc
 .xt.prop._ZTV5CTask
                0x00000000        0xc build/app_app.a(CTask.o)

.xt.lit._ZN5Print5writeEPKc
                0x00000000        0x8
 .xt.lit._ZN5Print5writeEPKc
                0x00000000        0x8 build/app_app.a(Print.o)

.xt.prop._ZN5Print5writeEPKc
                0x00000000       0x30
 .xt.prop._ZN5Print5writeEPKc
                0x00000000       0x30 build/app_app.a(Print.o)

.xt.prop._ZTV5Print
                0x00000000        0xc
 .xt.prop._ZTV5Print
                0x00000000        0xc build/app_app.a(Print.o)

.xt.lit._ZNK7HashMapI6StringS0_E8containsES0_
                0x00000000        0x8
 .xt.lit._ZNK7HashMapI6StringS0_E8containsES0_
                0x00000000        0x8 build/app_app.a(HttpResponse.o)

.xt.lit._ZN7HashMapI6StringS0_E8allocateEi
                0x00000000        0x8
 .xt.lit._ZN7HashMapI6StringS0_E8allocateEi
                0x00000000        0x8 build/app_app.a(HttpResponse.o)

.xt.prop._ZNK7HashMapI6StringS0_E8containsES0_
                0x00000000       0x78
 .xt.prop._ZNK7HashMapI6StringS0_E8containsES0_
                0x00000000       0x78 build/app_app.a(HttpResponse.o)

.xt.prop._ZN7HashMapI6StringS0_E8allocateEi
                0x00000000       0x78
 .xt.prop._ZN7HashMapI6StringS0_E8allocateEi
                0x00000000       0x78 build/app_app.a(HttpResponse.o)

.xt.prop._ZTV12HttpResponse
                0x00000000        0xc
 .xt.prop._ZTV12HttpResponse
                0x00000000        0xc build/app_app.a(HttpResponse.o)

.xt.lit._ZN12MethodCallerIM10HttpServerFvR20HttpServerConnectionEED0Ev
                0x00000000        0x0
 .xt.lit._ZN12MethodCallerIM10HttpServerFvR20HttpServerConnectionEED0Ev
                0x00000000        0x0 build/app_app.a(HttpServer.o)
                                  0x8 (size before relaxing)

.xt.lit._ZN6VectorI9WebSocketEixEj
                0x00000000        0x0
 .xt.lit._ZN6VectorI9WebSocketEixEj
                0x00000000        0x0 build/app_app.a(HttpServer.o)
                                  0x8 (size before relaxing)

.xt.lit._ZNK6VectorI9WebSocketEixEj
                0x00000000        0x0
 .xt.lit._ZNK6VectorI9WebSocketEixEj
                0x00000000        0x0 build/app_app.a(HttpServer.o)
                                  0x8 (size before relaxing)

.xt.lit._ZN6VectorI9WebSocketED2Ev
                0x00000000        0x8
 .xt.lit._ZN6VectorI9WebSocketED2Ev
                0x00000000        0x8 build/app_app.a(HttpServer.o)

.xt.lit._ZN6VectorI9WebSocketED0Ev
                0x00000000        0x0
 .xt.lit._ZN6VectorI9WebSocketED0Ev
                0x00000000        0x0 build/app_app.a(HttpServer.o)
                                  0x8 (size before relaxing)

.xt.lit._ZNK7HashMapI6String8DelegateIFvR11HttpRequestR12HttpResponseEEE8containsES0_
                0x00000000        0x0
 .xt.lit._ZNK7HashMapI6String8DelegateIFvR11HttpRequestR12HttpResponseEEE8containsES0_
                0x00000000        0x0 build/app_app.a(HttpServer.o)
                                  0x8 (size before relaxing)

.xt.lit._ZN7HashMapI6String8DelegateIFvR11HttpRequestR12HttpResponseEEE5clearEv
                0x00000000        0x0
 .xt.lit._ZN7HashMapI6String8DelegateIFvR11HttpRequestR12HttpResponseEEE5clearEv
                0x00000000        0x0 build/app_app.a(HttpServer.o)
                                  0x8 (size before relaxing)

.xt.lit._ZN7HashMapI6String8DelegateIFvR11HttpRequestR12HttpResponseEEE8allocateEi
                0x00000000        0x0
 .xt.lit._ZN7HashMapI6String8DelegateIFvR11HttpRequestR12HttpResponseEEE8allocateEi
                0x00000000        0x0 build/app_app.a(HttpServer.o)
                                  0x8 (size before relaxing)

.xt.lit._ZN7HashMapI6String8DelegateIFvR11HttpRequestR12HttpResponseEEEixES0_
                0x00000000        0x0
 .xt.lit._ZN7HashMapI6String8DelegateIFvR11HttpRequestR12HttpResponseEEEixES0_
                0x00000000        0x0 build/app_app.a(HttpServer.o)
                                  0x8 (size before relaxing)

.xt.prop._ZNK6VectorI9WebSocketE5countEv
                0x00000000       0x24
 .xt.prop._ZNK6VectorI9WebSocketE5countEv
                0x00000000       0x24 build/app_app.a(HttpServer.o)

.xt.prop._ZN12MethodCallerIM10HttpServerFvR20HttpServerConnectionEED2Ev
                0x00000000       0x24
 .xt.prop._ZN12MethodCallerIM10HttpServerFvR20HttpServerConnectionEED2Ev
                0x00000000       0x24 build/app_app.a(HttpServer.o)

.xt.prop._ZN12MethodCallerIM10HttpServerFvR20HttpServerConnectionEE6invokeES2_
                0x00000000       0x30
 .xt.prop._ZN12MethodCallerIM10HttpServerFvR20HttpServerConnectionEE6invokeES2_
                0x00000000       0x30 build/app_app.a(HttpServer.o)

.xt.prop._ZN12MethodCallerIM10HttpServerFvR20HttpServerConnectionEED0Ev
                0x00000000       0x24
 .xt.prop._ZN12MethodCallerIM10HttpServerFvR20HttpServerConnectionEED0Ev
                0x00000000       0x24 build/app_app.a(HttpServer.o)

.xt.prop._ZN6VectorI9WebSocketEixEj
                0x00000000       0x3c
 .xt.prop._ZN6VectorI9WebSocketEixEj
                0x00000000       0x3c build/app_app.a(HttpServer.o)

.xt.prop._ZNK6VectorI9WebSocketEixEj
                0x00000000       0x30
 .xt.prop._ZNK6VectorI9WebSocketEixEj
                0x00000000       0x30 build/app_app.a(HttpServer.o)

.xt.prop._ZN6VectorI9WebSocketED2Ev
                0x00000000       0x48
 .xt.prop._ZN6VectorI9WebSocketED2Ev
                0x00000000       0x48 build/app_app.a(HttpServer.o)

.xt.prop._ZN6VectorI9WebSocketED0Ev
                0x00000000       0x24
 .xt.prop._ZN6VectorI9WebSocketED0Ev
                0x00000000       0x24 build/app_app.a(HttpServer.o)

.xt.prop._ZNK7HashMapI6String8DelegateIFvR11HttpRequestR12HttpResponseEEE8containsES0_
                0x00000000       0x78
 .xt.prop._ZNK7HashMapI6String8DelegateIFvR11HttpRequestR12HttpResponseEEE8containsES0_
                0x00000000       0x78 build/app_app.a(HttpServer.o)

.xt.prop._ZN7HashMapI6String8DelegateIFvR11HttpRequestR12HttpResponseEEE5clearEv
                0x00000000       0x6c
 .xt.prop._ZN7HashMapI6String8DelegateIFvR11HttpRequestR12HttpResponseEEE5clearEv
                0x00000000       0x6c build/app_app.a(HttpServer.o)

.xt.prop._ZN7HashMapI6String8DelegateIFvR11HttpRequestR12HttpResponseEEE8allocateEi
                0x00000000       0x78
 .xt.prop._ZN7HashMapI6String8DelegateIFvR11HttpRequestR12HttpResponseEEE8allocateEi
                0x00000000       0x78 build/app_app.a(HttpServer.o)

.xt.prop._ZN8DelegateIFvR11HttpRequestR12HttpResponseEE4copyERKS5_
                0x00000000       0x24
 .xt.prop._ZN8DelegateIFvR11HttpRequestR12HttpResponseEE4copyERKS5_
                0x00000000       0x24 build/app_app.a(HttpServer.o)

.xt.prop._ZN7HashMapI6String8DelegateIFvR11HttpRequestR12HttpResponseEEEixES0_
                0x00000000       0x84
 .xt.prop._ZN7HashMapI6String8DelegateIFvR11HttpRequestR12HttpResponseEEEixES0_
                0x00000000       0x84 build/app_app.a(HttpServer.o)

.xt.prop._ZN8DelegateIFvR9WebSocketEE4copyERKS3_
                0x00000000       0x24
 .xt.prop._ZN8DelegateIFvR9WebSocketEE4copyERKS3_
                0x00000000       0x24 build/app_app.a(HttpServer.o)

.xt.prop._ZTV6VectorI9WebSocketE
                0x00000000        0xc
 .xt.prop._ZTV6VectorI9WebSocketE
                0x00000000        0xc build/app_app.a(HttpServer.o)

.xt.prop._ZTV10HttpServer
                0x00000000        0xc
 .xt.prop._ZTV10HttpServer
                0x00000000        0xc build/app_app.a(HttpServer.o)

.xt.prop._ZTV12MethodCallerIM10HttpServerFvR20HttpServerConnectionEE
                0x00000000        0xc
 .xt.prop._ZTV12MethodCallerIM10HttpServerFvR20HttpServerConnectionEE
                0x00000000        0xc build/app_app.a(HttpServer.o)

.xt.prop._ZN8DelegateIFvR20HttpServerConnectionEEaSEOS3_
                0x00000000       0x30
 .xt.prop._ZN8DelegateIFvR20HttpServerConnectionEEaSEOS3_
                0x00000000       0x30 build/app_app.a(HttpServerConnection.o)

.xt.prop._ZTV20HttpServerConnection
                0x00000000        0xc
 .xt.prop._ZTV20HttpServerConnection
                0x00000000        0xc build/app_app.a(HttpServerConnection.o)

.xt.prop._ZN8DelegateIFvR9TcpClientbEE4copyERKS3_
                0x00000000       0x24
 .xt.prop._ZN8DelegateIFvR9TcpClientbEE4copyERKS3_
                0x00000000       0x24 build/app_app.a(TcpClient.o)

.xt.prop._ZN8DelegateIFbR9TcpClientPciEE4copyERKS4_
                0x00000000       0x24
 .xt.prop._ZN8DelegateIFbR9TcpClientPciEE4copyERKS4_
                0x00000000       0x24 build/app_app.a(TcpClient.o)

.xt.prop._ZTV9TcpClient
                0x00000000        0xc
 .xt.prop._ZTV9TcpClient
                0x00000000        0xc build/app_app.a(TcpClient.o)

.xt.prop._ZN13TcpConnection13checkSelfFreeEv
                0x00000000       0x24
 .xt.prop._ZN13TcpConnection13checkSelfFreeEv
                0x00000000       0x24 build/app_app.a(TcpConnection.o)

.xt.prop._ZTV13TcpConnection
                0x00000000        0xc
 .xt.prop._ZTV13TcpConnection
                0x00000000        0xc build/app_app.a(TcpConnection.o)

.xt.lit._ZN12MethodCallerIM9TcpServerFvR9TcpClientbEED0Ev
                0x00000000        0x0
 .xt.lit._ZN12MethodCallerIM9TcpServerFvR9TcpClientbEED0Ev
                0x00000000        0x0 build/app_app.a(TcpServer.o)
                                  0x8 (size before relaxing)

.xt.lit._ZN12MethodCallerIM9TcpServerFbR9TcpClientPciEED0Ev
                0x00000000        0x0
 .xt.lit._ZN12MethodCallerIM9TcpServerFbR9TcpClientPciEED0Ev
                0x00000000        0x0 build/app_app.a(TcpServer.o)
                                  0x8 (size before relaxing)

.xt.prop._ZN12MethodCallerIM9TcpServerFvR9TcpClientbEED2Ev
                0x00000000       0x24
 .xt.prop._ZN12MethodCallerIM9TcpServerFvR9TcpClientbEED2Ev
                0x00000000       0x24 build/app_app.a(TcpServer.o)

.xt.prop._ZN12MethodCallerIM9TcpServerFbR9TcpClientPciEED2Ev
                0x00000000       0x24
 .xt.prop._ZN12MethodCallerIM9TcpServerFbR9TcpClientPciEED2Ev
                0x00000000       0x24 build/app_app.a(TcpServer.o)

.xt.prop._ZN12MethodCallerIM9TcpServerFvR9TcpClientbEE6invokeES2_b
                0x00000000       0x30
 .xt.prop._ZN12MethodCallerIM9TcpServerFvR9TcpClientbEE6invokeES2_b
                0x00000000       0x30 build/app_app.a(TcpServer.o)

.xt.prop._ZN12MethodCallerIM9TcpServerFbR9TcpClientPciEE6invokeES2_S3_i
                0x00000000       0x30
 .xt.prop._ZN12MethodCallerIM9TcpServerFbR9TcpClientPciEE6invokeES2_S3_i
                0x00000000       0x30 build/app_app.a(TcpServer.o)

.xt.prop._ZN12MethodCallerIM9TcpServerFvR9TcpClientbEED0Ev
                0x00000000       0x24
 .xt.prop._ZN12MethodCallerIM9TcpServerFvR9TcpClientbEED0Ev
                0x00000000       0x24 build/app_app.a(TcpServer.o)

.xt.prop._ZN12MethodCallerIM9TcpServerFbR9TcpClientPciEED0Ev
                0x00000000       0x24
 .xt.prop._ZN12MethodCallerIM9TcpServerFbR9TcpClientPciEED0Ev
                0x00000000       0x24 build/app_app.a(TcpServer.o)

.xt.prop._ZTV9TcpServer
                0x00000000        0xc
 .xt.prop._ZTV9TcpServer
                0x00000000        0xc build/app_app.a(TcpServer.o)

.xt.prop._ZTV12MethodCallerIM9TcpServerFbR9TcpClientPciEE
                0x00000000        0xc
 .xt.prop._ZTV12MethodCallerIM9TcpServerFbR9TcpClientPciEE
                0x00000000        0xc build/app_app.a(TcpServer.o)

.xt.prop._ZTV12MethodCallerIM9TcpServerFvR9TcpClientbEE
                0x00000000        0xc
 .xt.prop._ZTV12MethodCallerIM9TcpServerFvR9TcpClientbEE
                0x00000000        0xc build/app_app.a(TcpServer.o)

.xt.prop._ZTV12TelnetServer
                0x00000000        0xc
 .xt.prop._ZTV12TelnetServer
                0x00000000        0xc build/app_app.a(TelnetServer.o)

.xt.prop._ZTV13UdpConnection
                0x00000000        0xc
 .xt.prop._ZTV13UdpConnection
                0x00000000        0xc build/app_app.a(UdpConnection.o)

.xt.prop._ZTV9WebSocket
                0x00000000        0xc
 .xt.prop._ZTV9WebSocket
                0x00000000        0xc build/app_app.a(WebSocket.o)

.xt.lit._ZN12MethodCallerIM14CommandHandlerFv6StringP13CommandOutputEE6invokeES1_S3_
                0x00000000        0x0
 .xt.lit._ZN12MethodCallerIM14CommandHandlerFv6StringP13CommandOutputEE6invokeES1_S3_
                0x00000000        0x0 build/app_app.a(CommandHandler.o)
                                  0x8 (size before relaxing)

.xt.lit._ZN12MethodCallerIM14CommandHandlerFv6StringP13CommandOutputEED0Ev
                0x00000000        0x0
 .xt.lit._ZN12MethodCallerIM14CommandHandlerFv6StringP13CommandOutputEED0Ev
                0x00000000        0x0 build/app_app.a(CommandHandler.o)
                                  0x8 (size before relaxing)

.xt.lit._ZNK7HashMapI6String15CommandDelegateE8containsES0_
                0x00000000        0x0
 .xt.lit._ZNK7HashMapI6String15CommandDelegateE8containsES0_
                0x00000000        0x0 build/app_app.a(CommandHandler.o)
                                  0x8 (size before relaxing)

.xt.lit._ZN15CommandDelegateC2ERKS_
                0x00000000        0x0
 .xt.lit._ZN15CommandDelegateC2ERKS_
                0x00000000        0x0 build/app_app.a(CommandHandler.o)
                                  0x8 (size before relaxing)

.xt.lit._ZN15CommandDelegateaSERKS_
                0x00000000        0x0
 .xt.lit._ZN15CommandDelegateaSERKS_
                0x00000000        0x0 build/app_app.a(CommandHandler.o)
                                  0x8 (size before relaxing)

.xt.lit._ZNK7HashMapI6String15CommandDelegateE7indexOfES0_
                0x00000000        0x0
 .xt.lit._ZNK7HashMapI6String15CommandDelegateE7indexOfES0_
                0x00000000        0x0 build/app_app.a(CommandHandler.o)
                                  0x8 (size before relaxing)

.xt.lit._ZN7HashMapI6String15CommandDelegateE6removeES0_
                0x00000000        0x0
 .xt.lit._ZN7HashMapI6String15CommandDelegateE6removeES0_
                0x00000000        0x0 build/app_app.a(CommandHandler.o)
                                  0x8 (size before relaxing)

.xt.lit._ZN7HashMapI6String15CommandDelegateE8allocateEi
                0x00000000        0x8
 .xt.lit._ZN7HashMapI6String15CommandDelegateE8allocateEi
                0x00000000        0x8 build/app_app.a(CommandHandler.o)

.xt.lit._ZN7HashMapI6String15CommandDelegateEixES0_
                0x00000000        0x0
 .xt.lit._ZN7HashMapI6String15CommandDelegateEixES0_
                0x00000000        0x0 build/app_app.a(CommandHandler.o)
                                  0x8 (size before relaxing)

.xt.prop._ZN12MethodCallerIM14CommandHandlerFv6StringP13CommandOutputEED2Ev
                0x00000000       0x24
 .xt.prop._ZN12MethodCallerIM14CommandHandlerFv6StringP13CommandOutputEED2Ev
                0x00000000       0x24 build/app_app.a(CommandHandler.o)

.xt.prop._ZN12MethodCallerIM14CommandHandlerFv6StringP13CommandOutputEE6invokeES1_S3_
                0x00000000       0x30
 .xt.prop._ZN12MethodCallerIM14CommandHandlerFv6StringP13CommandOutputEE6invokeES1_S3_
                0x00000000       0x30 build/app_app.a(CommandHandler.o)

.xt.prop._ZN12MethodCallerIM14CommandHandlerFv6StringP13CommandOutputEED0Ev
                0x00000000       0x24
 .xt.prop._ZN12MethodCallerIM14CommandHandlerFv6StringP13CommandOutputEED0Ev
                0x00000000       0x24 build/app_app.a(CommandHandler.o)

.xt.prop._ZNK7HashMapI6String15CommandDelegateE8containsES0_
                0x00000000       0x78
 .xt.prop._ZNK7HashMapI6String15CommandDelegateE8containsES0_
                0x00000000       0x78 build/app_app.a(CommandHandler.o)

.xt.prop._ZN8DelegateIFv6StringP13CommandOutputEE4copyERKS4_
                0x00000000       0x24
 .xt.prop._ZN8DelegateIFv6StringP13CommandOutputEE4copyERKS4_
                0x00000000       0x24 build/app_app.a(CommandHandler.o)

.xt.prop._ZN15CommandDelegateC2ERKS_
                0x00000000       0x24
 .xt.prop._ZN15CommandDelegateC2ERKS_
                0x00000000       0x24 build/app_app.a(CommandHandler.o)

.xt.prop._ZN15CommandDelegateaSERKS_
                0x00000000       0x24
 .xt.prop._ZN15CommandDelegateaSERKS_
                0x00000000       0x24 build/app_app.a(CommandHandler.o)

.xt.prop._ZNK7HashMapI6String15CommandDelegateE7indexOfES0_
                0x00000000       0x6c
 .xt.prop._ZNK7HashMapI6String15CommandDelegateE7indexOfES0_
                0x00000000       0x6c build/app_app.a(CommandHandler.o)

.xt.prop._ZN7HashMapI6String15CommandDelegateE6removeES0_
                0x00000000       0x3c
 .xt.prop._ZN7HashMapI6String15CommandDelegateE6removeES0_
                0x00000000       0x3c build/app_app.a(CommandHandler.o)

.xt.prop._ZN7HashMapI6String15CommandDelegateE8allocateEi
                0x00000000       0x78
 .xt.prop._ZN7HashMapI6String15CommandDelegateE8allocateEi
                0x00000000       0x78 build/app_app.a(CommandHandler.o)

.xt.prop._ZN7HashMapI6String15CommandDelegateEixES0_
                0x00000000       0x48
 .xt.prop._ZN7HashMapI6String15CommandDelegateEixES0_
                0x00000000       0x48 build/app_app.a(CommandHandler.o)

.xt.prop._ZTV12MethodCallerIM14CommandHandlerFv6StringP13CommandOutputEE
                0x00000000        0xc
 .xt.prop._ZTV12MethodCallerIM14CommandHandlerFv6StringP13CommandOutputEE
                0x00000000        0xc build/app_app.a(CommandHandler.o)

.xt.prop._ZTV13CommandOutput
                0x00000000        0xc
 .xt.prop._ZTV13CommandOutput
                0x00000000        0xc build/app_app.a(CommandOutput.o)

.xt.lit._ZN11ArduinoJson9Internals15BlockJsonBufferINS0_16DefaultAllocatorEE5allocEj
                0x00000000        0x0
 .xt.lit._ZN11ArduinoJson9Internals15BlockJsonBufferINS0_16DefaultAllocatorEE5allocEj
                0x00000000        0x0 build/app_app.a(DataSourceStream.o)
                                  0x8 (size before relaxing)

.xt.lit._ZN7HashMapI6StringS0_EixES0_
                0x00000000        0x0
 .xt.lit._ZN7HashMapI6StringS0_EixES0_
                0x00000000        0x0 build/app_app.a(DataSourceStream.o)
                                  0x8 (size before relaxing)

.xt.lit._ZN7HashMapI6StringS0_E11setMultipleERKS1_
                0x00000000        0x0
 .xt.lit._ZN7HashMapI6StringS0_E11setMultipleERKS1_
                0x00000000        0x0 build/app_app.a(DataSourceStream.o)
                                  0x8 (size before relaxing)

.xt.prop._ZN16MemoryDataStream13getStreamTypeEv
                0x00000000       0x3c
 .xt.prop._ZN16MemoryDataStream13getStreamTypeEv
                0x00000000       0x3c build/app_app.a(DataSourceStream.o)

.xt.prop._ZN10FileStream13getStreamTypeEv
                0x00000000       0x24
 .xt.prop._ZN10FileStream13getStreamTypeEv
                0x00000000       0x24 build/app_app.a(DataSourceStream.o)

.xt.prop._ZN18TemplateFileStream13getStreamTypeEv
                0x00000000       0x24
 .xt.prop._ZN18TemplateFileStream13getStreamTypeEv
                0x00000000       0x24 build/app_app.a(DataSourceStream.o)

.xt.prop._ZN16JsonObjectStream13getStreamTypeEv
                0x00000000       0x3c
 .xt.prop._ZN16JsonObjectStream13getStreamTypeEv
                0x00000000       0x3c build/app_app.a(DataSourceStream.o)

.xt.prop._ZN11ArduinoJson9Internals15BlockJsonBufferINS0_16DefaultAllocatorEE5allocEj
                0x00000000       0x60
 .xt.prop._ZN11ArduinoJson9Internals15BlockJsonBufferINS0_16DefaultAllocatorEE5allocEj
                0x00000000       0x60 build/app_app.a(DataSourceStream.o)

.xt.prop._ZN7HashMapI6StringS0_EixES0_
                0x00000000       0x84
 .xt.prop._ZN7HashMapI6StringS0_EixES0_
                0x00000000       0x84 build/app_app.a(DataSourceStream.o)

.xt.prop._ZN7HashMapI6StringS0_E11setMultipleERKS1_
                0x00000000       0x3c
 .xt.prop._ZN7HashMapI6StringS0_E11setMultipleERKS1_
                0x00000000       0x3c build/app_app.a(DataSourceStream.o)

.xt.prop._ZTVN11ArduinoJson9Internals15BlockJsonBufferINS0_16DefaultAllocatorEEE
                0x00000000        0xc
 .xt.prop._ZTVN11ArduinoJson9Internals15BlockJsonBufferINS0_16DefaultAllocatorEEE
                0x00000000        0xc build/app_app.a(DataSourceStream.o)

.xt.prop._ZTV16MemoryDataStream
                0x00000000        0xc
 .xt.prop._ZTV16MemoryDataStream
                0x00000000        0xc build/app_app.a(DataSourceStream.o)

.xt.prop._ZTV10FileStream
                0x00000000        0xc
 .xt.prop._ZTV10FileStream
                0x00000000        0xc build/app_app.a(DataSourceStream.o)

.xt.prop._ZTV18TemplateFileStream
                0x00000000        0xc
 .xt.prop._ZTV18TemplateFileStream
                0x00000000        0xc build/app_app.a(DataSourceStream.o)

.xt.prop._ZTV16JsonObjectStream
                0x00000000        0xc
 .xt.prop._ZTV16JsonObjectStream
                0x00000000        0xc build/app_app.a(DataSourceStream.o)

.xt.lit._ZN6VectorIlE10addElementERKl
                0x00000000        0x0
 .xt.lit._ZN6VectorIlE10addElementERKl
                0x00000000        0x0 build/app_app.a(SplitString.o)
                                  0x8 (size before relaxing)

.xt.lit._ZN6VectorIiE10addElementERKi
                0x00000000        0x0
 .xt.lit._ZN6VectorIiE10addElementERKi
                0x00000000        0x0 build/app_app.a(SplitString.o)
                                  0x8 (size before relaxing)

.xt.lit._ZN6VectorI6StringE10addElementERKS0_
                0x00000000        0x0
 .xt.lit._ZN6VectorI6StringE10addElementERKS0_
                0x00000000        0x0 build/app_app.a(SplitString.o)
                                  0x8 (size before relaxing)

.xt.prop._ZN6VectorIlE10addElementERKl
                0x00000000       0x30
 .xt.prop._ZN6VectorIlE10addElementERKl
                0x00000000       0x30 build/app_app.a(SplitString.o)

.xt.prop._ZN6VectorIiE10addElementERKi
                0x00000000       0x30
 .xt.prop._ZN6VectorIiE10addElementERKi
                0x00000000       0x30 build/app_app.a(SplitString.o)

.xt.prop._ZN6VectorI6StringE10addElementERKS0_
                0x00000000       0x30
 .xt.prop._ZN6VectorI6StringE10addElementERKS0_
                0x00000000       0x30 build/app_app.a(SplitString.o)

.xt.lit._ZN7HashMapI6StringS0_ED2Ev
                0x00000000        0x0
 .xt.lit._ZN7HashMapI6StringS0_ED2Ev
                0x00000000        0x0 build/app_app.a(HttpRequest.o)
                                  0x8 (size before relaxing)

.xt.lit._ZN7HashMapI6StringS0_EC2EPFbS0_S0_E
                0x00000000        0x0
 .xt.lit._ZN7HashMapI6StringS0_EC2EPFbS0_S0_E
                0x00000000        0x0 build/app_app.a(HttpRequest.o)
                                  0x8 (size before relaxing)

.xt.prop._ZN7HashMapI6StringS0_ED2Ev
                0x00000000       0x6c
 .xt.prop._ZN7HashMapI6StringS0_ED2Ev
                0x00000000       0x6c build/app_app.a(HttpRequest.o)

.xt.prop._ZN7HashMapI6StringS0_EC2EPFbS0_S0_E
                0x00000000       0x24
 .xt.prop._ZN7HashMapI6StringS0_EC2EPFbS0_S0_E
                0x00000000       0x24 build/app_app.a(HttpRequest.o)

.xt.prop._ZTV11HttpRequest
                0x00000000        0xc
 .xt.prop._ZTV11HttpRequest
                0x00000000        0xc build/app_app.a(HttpRequest.o)

.xt.lit._ZN11ArduinoJson9Internals20DynamicStringBuilder5writeEh
                0x00000000        0x0
 .xt.lit._ZN11ArduinoJson9Internals20DynamicStringBuilder5writeEh
                0x00000000        0x0 build/app_app.a(ArduinoJson.o)
                                  0x8 (size before relaxing)

.xt.lit._ZN11ArduinoJson9Internals10JsonWriter11writeStringEPKc
                0x00000000        0x8
 .xt.lit._ZN11ArduinoJson9Internals10JsonWriter11writeStringEPKc
                0x00000000        0x8 build/app_app.a(ArduinoJson.o)

.xt.lit._ZN11ArduinoJson9Internals4ListINS_8JsonPairEE10addNewNodeEv
                0x00000000        0x0
 .xt.lit._ZN11ArduinoJson9Internals4ListINS_8JsonPairEE10addNewNodeEv
                0x00000000        0x0 build/app_app.a(ArduinoJson.o)
                                  0x8 (size before relaxing)

.xt.lit._ZN11ArduinoJson9Internals4ListINS_11JsonVariantEE10addNewNodeEv
                0x00000000        0x0
 .xt.lit._ZN11ArduinoJson9Internals4ListINS_11JsonVariantEE10addNewNodeEv
                0x00000000        0x0 build/app_app.a(ArduinoJson.o)
                                  0x8 (size before relaxing)

.xt.lit._ZN11ArduinoJson9Internals10Prettyfier16handleNormalCharEh
                0x00000000        0x0
 .xt.lit._ZN11ArduinoJson9Internals10Prettyfier16handleNormalCharEh
                0x00000000        0x0 build/app_app.a(ArduinoJson.o)
                                  0x8 (size before relaxing)

.xt.lit._ZN11ArduinoJson9Internals10Prettyfier16handleMarkupCharEh
                0x00000000        0x0
 .xt.lit._ZN11ArduinoJson9Internals10Prettyfier16handleMarkupCharEh
                0x00000000        0x0 build/app_app.a(ArduinoJson.o)
                                  0x8 (size before relaxing)

.xt.lit._ZN11ArduinoJson10JsonObject13createArrayAtIPKcEERNS_9JsonArrayET_
                0x00000000        0x0
 .xt.lit._ZN11ArduinoJson10JsonObject13createArrayAtIPKcEERNS_9JsonArrayET_
                0x00000000        0x0 build/app_app.a(ArduinoJson.o)
                                  0x8 (size before relaxing)

.xt.lit._ZN11ArduinoJson10JsonObject14createObjectAtIPKcEERS0_T_
                0x00000000        0x0
 .xt.lit._ZN11ArduinoJson10JsonObject14createObjectAtIPKcEERS0_T_
                0x00000000        0x0 build/app_app.a(ArduinoJson.o)
                                  0x8 (size before relaxing)

.xt.lit._ZN11ArduinoJson10JsonObject13createArrayAtIRK6StringEERNS_9JsonArrayET_
                0x00000000        0x0
 .xt.lit._ZN11ArduinoJson10JsonObject13createArrayAtIRK6StringEERNS_9JsonArrayET_
                0x00000000        0x0 build/app_app.a(ArduinoJson.o)
                                  0x8 (size before relaxing)

.xt.lit._ZN11ArduinoJson10JsonObject14createObjectAtIRK6StringEERS0_T_
                0x00000000        0x0
 .xt.lit._ZN11ArduinoJson10JsonObject14createObjectAtIRK6StringEERS0_T_
                0x00000000        0x0 build/app_app.a(ArduinoJson.o)
                                  0x8 (size before relaxing)

.xt.prop._ZN11ArduinoJson9Internals20DynamicStringBuilder5writeEh
                0x00000000       0x24
 .xt.prop._ZN11ArduinoJson9Internals20DynamicStringBuilder5writeEh
                0x00000000       0x24 build/app_app.a(ArduinoJson.o)

.xt.prop._ZN11ArduinoJson9Internals10JsonWriter5writeEc
                0x00000000       0x24
 .xt.prop._ZN11ArduinoJson9Internals10JsonWriter5writeEc
                0x00000000       0x24 build/app_app.a(ArduinoJson.o)

.xt.prop._ZN11ArduinoJson9Internals10JsonWriter11writeStringEPKc
                0x00000000       0x84
 .xt.prop._ZN11ArduinoJson9Internals10JsonWriter11writeStringEPKc
                0x00000000       0x84 build/app_app.a(ArduinoJson.o)

.xt.prop._ZN11ArduinoJson9Internals19JsonBufferAllocatednwEjPNS_10JsonBufferE
                0x00000000       0x30
 .xt.prop._ZN11ArduinoJson9Internals19JsonBufferAllocatednwEjPNS_10JsonBufferE
                0x00000000       0x30 build/app_app.a(ArduinoJson.o)

.xt.prop._ZN11ArduinoJson9Internals4ListINS_8JsonPairEEC2EPNS_10JsonBufferE
                0x00000000       0x24
 .xt.prop._ZN11ArduinoJson9Internals4ListINS_8JsonPairEEC2EPNS_10JsonBufferE
                0x00000000       0x24 build/app_app.a(ArduinoJson.o)

.xt.prop._ZNK11ArduinoJson9Internals4ListINS_8JsonPairEE7successEv
                0x00000000       0x24
 .xt.prop._ZNK11ArduinoJson9Internals4ListINS_8JsonPairEE7successEv
                0x00000000       0x24 build/app_app.a(ArduinoJson.o)

.xt.prop._ZNK11ArduinoJson9Internals4ListINS_8JsonPairEE4sizeEv
                0x00000000       0x3c
 .xt.prop._ZNK11ArduinoJson9Internals4ListINS_8JsonPairEE4sizeEv
                0x00000000       0x3c build/app_app.a(ArduinoJson.o)

.xt.prop._ZN11ArduinoJson9Internals4ListINS_8JsonPairEE5beginEv
                0x00000000       0x24
 .xt.prop._ZN11ArduinoJson9Internals4ListINS_8JsonPairEE5beginEv
                0x00000000       0x24 build/app_app.a(ArduinoJson.o)

.xt.prop._ZN11ArduinoJson9Internals4ListINS_8JsonPairEE3endEv
                0x00000000       0x24
 .xt.prop._ZN11ArduinoJson9Internals4ListINS_8JsonPairEE3endEv
                0x00000000       0x24 build/app_app.a(ArduinoJson.o)

.xt.prop._ZNK11ArduinoJson9Internals4ListINS_8JsonPairEE5beginEv
                0x00000000       0x24
 .xt.prop._ZNK11ArduinoJson9Internals4ListINS_8JsonPairEE5beginEv
                0x00000000       0x24 build/app_app.a(ArduinoJson.o)

.xt.prop._ZNK11ArduinoJson9Internals4ListINS_8JsonPairEE3endEv
                0x00000000       0x24
 .xt.prop._ZNK11ArduinoJson9Internals4ListINS_8JsonPairEE3endEv
                0x00000000       0x24 build/app_app.a(ArduinoJson.o)

.xt.prop._ZN11ArduinoJson9Internals4ListINS_8JsonPairEE10addNewNodeEv
                0x00000000       0x60
 .xt.prop._ZN11ArduinoJson9Internals4ListINS_8JsonPairEE10addNewNodeEv
                0x00000000       0x60 build/app_app.a(ArduinoJson.o)

.xt.prop._ZN11ArduinoJson9Internals4ListINS_8JsonPairEE10removeNodeEPNS0_8ListNodeIS2_EE
                0x00000000       0x60
 .xt.prop._ZN11ArduinoJson9Internals4ListINS_8JsonPairEE10removeNodeEPNS0_8ListNodeIS2_EE
                0x00000000       0x60 build/app_app.a(ArduinoJson.o)

.xt.prop._ZN11ArduinoJson9Internals4ListINS_11JsonVariantEEC2EPNS_10JsonBufferE
                0x00000000       0x24
 .xt.prop._ZN11ArduinoJson9Internals4ListINS_11JsonVariantEEC2EPNS_10JsonBufferE
                0x00000000       0x24 build/app_app.a(ArduinoJson.o)

.xt.prop._ZNK11ArduinoJson9Internals4ListINS_11JsonVariantEE7successEv
                0x00000000       0x24
 .xt.prop._ZNK11ArduinoJson9Internals4ListINS_11JsonVariantEE7successEv
                0x00000000       0x24 build/app_app.a(ArduinoJson.o)

.xt.prop._ZNK11ArduinoJson9Internals4ListINS_11JsonVariantEE4sizeEv
                0x00000000       0x3c
 .xt.prop._ZNK11ArduinoJson9Internals4ListINS_11JsonVariantEE4sizeEv
                0x00000000       0x3c build/app_app.a(ArduinoJson.o)

.xt.prop._ZN11ArduinoJson9Internals4ListINS_11JsonVariantEE5beginEv
                0x00000000       0x24
 .xt.prop._ZN11ArduinoJson9Internals4ListINS_11JsonVariantEE5beginEv
                0x00000000       0x24 build/app_app.a(ArduinoJson.o)

.xt.prop._ZN11ArduinoJson9Internals4ListINS_11JsonVariantEE3endEv
                0x00000000       0x24
 .xt.prop._ZN11ArduinoJson9Internals4ListINS_11JsonVariantEE3endEv
                0x00000000       0x24 build/app_app.a(ArduinoJson.o)

.xt.prop._ZNK11ArduinoJson9Internals4ListINS_11JsonVariantEE5beginEv
                0x00000000       0x24
 .xt.prop._ZNK11ArduinoJson9Internals4ListINS_11JsonVariantEE5beginEv
                0x00000000       0x24 build/app_app.a(ArduinoJson.o)

.xt.prop._ZNK11ArduinoJson9Internals4ListINS_11JsonVariantEE3endEv
                0x00000000       0x24
 .xt.prop._ZNK11ArduinoJson9Internals4ListINS_11JsonVariantEE3endEv
                0x00000000       0x24 build/app_app.a(ArduinoJson.o)

.xt.prop._ZN11ArduinoJson9Internals4ListINS_11JsonVariantEE10addNewNodeEv
                0x00000000       0x60
 .xt.prop._ZN11ArduinoJson9Internals4ListINS_11JsonVariantEE10addNewNodeEv
                0x00000000       0x60 build/app_app.a(ArduinoJson.o)

.xt.prop._ZN11ArduinoJson9Internals4ListINS_11JsonVariantEE10removeNodeEPNS0_8ListNodeIS2_EE
                0x00000000       0x60
 .xt.prop._ZN11ArduinoJson9Internals4ListINS_11JsonVariantEE10removeNodeEPNS0_8ListNodeIS2_EE
                0x00000000       0x60 build/app_app.a(ArduinoJson.o)

.xt.prop._ZN11ArduinoJson9Internals10Prettyfier16handleNormalCharEh
                0x00000000       0x24
 .xt.prop._ZN11ArduinoJson9Internals10Prettyfier16handleNormalCharEh
                0x00000000       0x24 build/app_app.a(ArduinoJson.o)

.xt.prop._ZN11ArduinoJson9Internals10Prettyfier16handleMarkupCharEh
                0x00000000       0x9c
 .xt.prop._ZN11ArduinoJson9Internals10Prettyfier16handleMarkupCharEh
                0x00000000       0x9c build/app_app.a(ArduinoJson.o)

.xt.prop._ZN11ArduinoJson10JsonObject13createArrayAtIPKcEERNS_9JsonArrayET_
                0x00000000       0x30
 .xt.prop._ZN11ArduinoJson10JsonObject13createArrayAtIPKcEERNS_9JsonArrayET_
                0x00000000       0x30 build/app_app.a(ArduinoJson.o)

.xt.prop._ZN11ArduinoJson10JsonObject14createObjectAtIPKcEERS0_T_
                0x00000000       0x30
 .xt.prop._ZN11ArduinoJson10JsonObject14createObjectAtIPKcEERS0_T_
                0x00000000       0x30 build/app_app.a(ArduinoJson.o)

.xt.prop._ZN11ArduinoJson10JsonObject13createArrayAtIRK6StringEERNS_9JsonArrayET_
                0x00000000       0x24
 .xt.prop._ZN11ArduinoJson10JsonObject13createArrayAtIRK6StringEERNS_9JsonArrayET_
                0x00000000       0x24 build/app_app.a(ArduinoJson.o)

.xt.prop._ZN11ArduinoJson10JsonObject14createObjectAtIRK6StringEERS0_T_
                0x00000000       0x24
 .xt.prop._ZN11ArduinoJson10JsonObject14createObjectAtIRK6StringEERS0_T_
                0x00000000       0x24 build/app_app.a(ArduinoJson.o)

.xt.prop._ZTVN11ArduinoJson9Internals13IndentedPrintE
                0x00000000        0xc
 .xt.prop._ZTVN11ArduinoJson9Internals13IndentedPrintE
                0x00000000        0xc build/app_app.a(ArduinoJson.o)

.xt.prop._ZTVN11ArduinoJson9Internals20DynamicStringBuilderE
                0x00000000        0xc
 .xt.prop._ZTVN11ArduinoJson9Internals20DynamicStringBuilderE
                0x00000000        0xc build/app_app.a(ArduinoJson.o)

.xt.prop._ZTVN11ArduinoJson9Internals10PrettyfierE
                0x00000000        0xc
 .xt.prop._ZTVN11ArduinoJson9Internals10PrettyfierE
                0x00000000        0xc build/app_app.a(ArduinoJson.o)

.xt.prop._ZTVN11ArduinoJson9Internals19StaticStringBuilderE
                0x00000000        0xc
 .xt.prop._ZTVN11ArduinoJson9Internals19StaticStringBuilderE
                0x00000000        0xc build/app_app.a(ArduinoJson.o)

.debug_frame    0x00000000     0x76d0
 .debug_frame   0x00000000      0x5ac build/app_app.a(user_main_sming.o)
 .debug_frame   0x000005ac       0xb8 build/app_app.a(Digital.o)
 .debug_frame   0x00000664      0x178 build/app_app.a(Temp_HardwareSerial.o)
 .debug_frame   0x000007dc      0x28c build/app_app.a(Timer.o)
 .debug_frame   0x00000a68       0x94 build/app_app.a(WifiStation.o)
 .debug_frame   0x00000afc      0x11c build/app_app.a(CQueue.o)
 .debug_frame   0x00000c18      0x12c build/app_app.a(CTask.o)
 .debug_frame   0x00000d44      0x188 build/app_app.a(IPAddress.o)
 .debug_frame   0x00000ecc      0x3b4 build/app_app.a(Print.o)
 .debug_frame   0x00001280      0xaa8 build/app_app.a(WString.o)
 .debug_frame   0x00001d28      0x478 build/app_app.a(HttpResponse.o)
 .debug_frame   0x000021a0      0x5c8 build/app_app.a(HttpServer.o)
 .debug_frame   0x00002768      0x1e4 build/app_app.a(HttpServerConnection.o)
 .debug_frame   0x0000294c      0x35c build/app_app.a(TcpClient.o)
 .debug_frame   0x00002ca8      0x450 build/app_app.a(TcpConnection.o)
 .debug_frame   0x000030f8      0x388 build/app_app.a(TcpServer.o)
 .debug_frame   0x00003480      0x18c build/app_app.a(TelnetServer.o)
 .debug_frame   0x0000360c      0x288 build/app_app.a(UdpConnection.o)
 .debug_frame   0x00003894      0x130 build/app_app.a(WebSocket.o)
 .debug_frame   0x000039c4      0x188 build/app_app.a(CommandExecutor.o)
 .debug_frame   0x00003b4c      0x528 build/app_app.a(CommandHandler.o)
 .debug_frame   0x00004074      0x100 build/app_app.a(CommandOutput.o)
 .debug_frame   0x00004174       0x6c build/app_app.a(base64.o)
 .debug_frame   0x000041e0       0x50 build/app_app.a(websocket.o)
 .debug_frame   0x00004230       0x70 build/app_app.a(m_printf.o)
 .debug_frame   0x000042a0      0x1b0 build/app_app.a(uart.o)
 .debug_frame   0x00004450      0x604 build/app_app.a(DataSourceStream.o)
 .debug_frame   0x00004a54      0x3cc build/app_app.a(FileSystem.o)
 .debug_frame   0x00004e20       0xd8 build/app_app.a(SystemClock.o)
 .debug_frame   0x00004ef8       0xd8 build/app_app.a(stringconversion.o)
 .debug_frame   0x00004fd0      0x118 build/app_app.a(SplitString.o)
 .debug_frame   0x000050e8      0x100 build/app_app.a(RTC.o)
 .debug_frame   0x000051e8      0x354 build/app_app.a(HttpRequest.o)
 .debug_frame   0x0000553c       0xc0 build/app_app.a(NetUtils.o)
 .debug_frame   0x000055fc      0x754 build/app_app.a(ArduinoJson.o)
 .debug_frame   0x00005d50       0xac build/app_app.a(CommandDelegate.o)
 .debug_frame   0x00005dfc      0x1c4 build/app_app.a(DateTime.o)
 .debug_frame   0x00005fc0      0x4dc build/app_app.a(spiffs_hydrogen.o)
 .debug_frame   0x0000649c      0x568 build/app_app.a(spiffs_nucleus.o)
 .debug_frame   0x00006a04      0x1e4 build/app_app.a(spiffs_sming.o)
 .debug_frame   0x00006be8       0xe8 build/app_app.a(escape.o)
 .debug_frame   0x00006cd0      0x18c build/app_app.a(flashmem.o)
 .debug_frame   0x00006e5c      0x180 build/app_app.a(spiffs_cache.o)
 .debug_frame   0x00006fdc      0x190 build/app_app.a(spiffs_check.o)
 .debug_frame   0x0000716c      0x124 build/app_app.a(spiffs_gc.o)
 .debug_frame   0x00007290       0x20 c:/Espressif/ESP8266_RTOS_SDK/lib\libmicroc.a(isprint.o)
 .debug_frame   0x000072b0       0x20 c:/Espressif/ESP8266_RTOS_SDK/lib\libmicroc.a(isspace.o)
 .debug_frame   0x000072d0       0x20 c:/Espressif/ESP8266_RTOS_SDK/lib\libmicroc.a(tolower.o)
 .debug_frame   0x000072f0       0x20 c:/Espressif/ESP8266_RTOS_SDK/lib\libmicroc.a(toupper.o)
 .debug_frame   0x00007310       0x20 c:/Espressif/ESP8266_RTOS_SDK/lib\libmicroc.a(isxdigit.o)
 .debug_frame   0x00007330       0x30 c:/Espressif/ESP8266_RTOS_SDK/lib\libmicroc.a(atof.o)
 .debug_frame   0x00007360       0xa0 c:/Espressif/ESP8266_RTOS_SDK/lib\libmicroc.a(strtod.o)
 .debug_frame   0x00007400       0x40 c:/Espressif/ESP8266_RTOS_SDK/lib\libmicroc.a(__fpclassify.o)
 .debug_frame   0x00007440       0x20 c:/Espressif/ESP8266_RTOS_SDK/lib\libmicroc.a(memchr.o)
 .debug_frame   0x00007460       0x20 c:/Espressif/ESP8266_RTOS_SDK/lib\libmicroc.a(__errno_location.o)
 .debug_frame   0x00007480       0x94 c:/Espressif/ESP8266_RTOS_SDK/lib\libmicroc.a(floatscan.o)
 .debug_frame   0x00007514       0x48 c:/Espressif/ESP8266_RTOS_SDK/lib\libmicroc.a(shgetc.o)
 .debug_frame   0x0000755c       0x38 c:/Espressif/ESP8266_RTOS_SDK/lib\libmicroc.a(__uflow.o)
 .debug_frame   0x00007594       0x50 c:/Espressif/ESP8266_RTOS_SDK/lib\libmicroc.a(__toread.o)
 .debug_frame   0x000075e4       0x20 c:/Espressif/ESP8266_RTOS_SDK/lib\libmicroc.a(__stdio_exit.o)
 .debug_frame   0x00007604       0x30 c:/Espressif/ESP8266_RTOS_SDK/lib\libmicroc.a(fmodl.o)
 .debug_frame   0x00007634       0x34 c:/Espressif/ESP8266_RTOS_SDK/lib\libmicroc.a(scalbn.o)
 .debug_frame   0x00007668       0x30 c:/Espressif/ESP8266_RTOS_SDK/lib\libmicroc.a(scalbnl.o)
 .debug_frame   0x00007698       0x38 c:/Espressif/ESP8266_RTOS_SDK/lib\libmicroc.a(fmod.o)

.debug_info     0x00000000    0x72bf8
 .debug_info    0x00000000     0x73c7 build/app_app.a(user_main_sming.o)
 .debug_info    0x000073c7      0x3ef build/app_app.a(Digital.o)
 .debug_info    0x000077b6     0x1258 build/app_app.a(Temp_HardwareSerial.o)
 .debug_info    0x00008a0e     0x11f9 build/app_app.a(Timer.o)
 .debug_info    0x00009c07      0x92a build/app_app.a(WifiStation.o)
 .debug_info    0x0000a531      0xcfe build/app_app.a(CQueue.o)
 .debug_info    0x0000b22f      0xf6d build/app_app.a(CTask.o)
 .debug_info    0x0000c19c     0x1dda build/app_app.a(IPAddress.o)
 .debug_info    0x0000df76     0x29b9 build/app_app.a(Print.o)
 .debug_info    0x0001092f     0x3c2d build/app_app.a(WString.o)
 .debug_info    0x0001455c     0x3c55 build/app_app.a(HttpResponse.o)
 .debug_info    0x000181b1     0x7153 build/app_app.a(HttpServer.o)
 .debug_info    0x0001f304     0x375f build/app_app.a(HttpServerConnection.o)
 .debug_info    0x00022a63     0x4396 build/app_app.a(TcpClient.o)
 .debug_info    0x00026df9     0x39c0 build/app_app.a(TcpConnection.o)
 .debug_info    0x0002a7b9     0x47a9 build/app_app.a(TcpServer.o)
 .debug_info    0x0002ef62     0x2947 build/app_app.a(TelnetServer.o)
 .debug_info    0x000318a9     0x2e23 build/app_app.a(UdpConnection.o)
 .debug_info    0x000346cc     0x281a build/app_app.a(WebSocket.o)
 .debug_info    0x00036ee6     0x2f7b build/app_app.a(CommandExecutor.o)
 .debug_info    0x00039e61     0x5a0c build/app_app.a(CommandHandler.o)
 .debug_info    0x0003f86d     0x24e9 build/app_app.a(CommandOutput.o)
 .debug_info    0x00041d56      0x303 build/app_app.a(base64.o)
 .debug_info    0x00042059      0x4a9 build/app_app.a(websocket.o)
 .debug_info    0x00042502      0x41f build/app_app.a(m_printf.o)
 .debug_info    0x00042921      0x9e2 build/app_app.a(uart.o)
 .debug_info    0x00043303     0x7c03 build/app_app.a(DataSourceStream.o)
 .debug_info    0x0004af06     0x2d6f build/app_app.a(FileSystem.o)
 .debug_info    0x0004dc75     0x1f9b build/app_app.a(SystemClock.o)
 .debug_info    0x0004fc10      0x588 build/app_app.a(stringconversion.o)
 .debug_info    0x00050198     0x2046 build/app_app.a(SplitString.o)
 .debug_info    0x000521de      0x66c build/app_app.a(RTC.o)
 .debug_info    0x0005284a     0x3d3f build/app_app.a(HttpRequest.o)
 .debug_info    0x00056589     0x18a8 build/app_app.a(NetUtils.o)
 .debug_info    0x00057e31     0x8da8 build/app_app.a(ArduinoJson.o)
 .debug_info    0x00060bd9     0x21c7 build/app_app.a(CommandDelegate.o)
 .debug_info    0x00062da0     0x220b build/app_app.a(DateTime.o)
 .debug_info    0x00064fab     0x21eb build/app_app.a(spiffs_hydrogen.o)
 .debug_info    0x00067196     0x3287 build/app_app.a(spiffs_nucleus.o)
 .debug_info    0x0006a41d      0xfc1 build/app_app.a(spiffs_sming.o)
 .debug_info    0x0006b3de      0x4d3 build/app_app.a(escape.o)
 .debug_info    0x0006b8b1      0x863 build/app_app.a(flashmem.o)
 .debug_info    0x0006c114      0xc63 build/app_app.a(spiffs_cache.o)
 .debug_info    0x0006cd77     0x1e02 build/app_app.a(spiffs_check.o)
 .debug_info    0x0006eb79     0x12b5 build/app_app.a(spiffs_gc.o)
 .debug_info    0x0006fe2e       0xab c:/Espressif/ESP8266_RTOS_SDK/lib\libmicroc.a(isprint.o)
 .debug_info    0x0006fed9       0xab c:/Espressif/ESP8266_RTOS_SDK/lib\libmicroc.a(isspace.o)
 .debug_info    0x0006ff84       0xab c:/Espressif/ESP8266_RTOS_SDK/lib\libmicroc.a(tolower.o)
 .debug_info    0x0007002f       0xab c:/Espressif/ESP8266_RTOS_SDK/lib\libmicroc.a(toupper.o)
 .debug_info    0x000700da       0xab c:/Espressif/ESP8266_RTOS_SDK/lib\libmicroc.a(isxdigit.o)
 .debug_info    0x00070185       0xf9 c:/Espressif/ESP8266_RTOS_SDK/lib\libmicroc.a(atof.o)
 .debug_info    0x0007027e      0x4d3 c:/Espressif/ESP8266_RTOS_SDK/lib\libmicroc.a(strtod.o)
 .debug_info    0x00070751      0x11a c:/Espressif/ESP8266_RTOS_SDK/lib\libmicroc.a(__fpclassify.o)
 .debug_info    0x0007086b      0x123 c:/Espressif/ESP8266_RTOS_SDK/lib\libmicroc.a(memchr.o)
 .debug_info    0x0007098e       0x59 c:/Espressif/ESP8266_RTOS_SDK/lib\libmicroc.a(__errno_location.o)
 .debug_info    0x000709e7      0xbe5 c:/Espressif/ESP8266_RTOS_SDK/lib\libmicroc.a(floatscan.o)
 .debug_info    0x000715cc      0x33a c:/Espressif/ESP8266_RTOS_SDK/lib\libmicroc.a(shgetc.o)
 .debug_info    0x00071906      0x324 c:/Espressif/ESP8266_RTOS_SDK/lib\libmicroc.a(__uflow.o)
 .debug_info    0x00071c2a      0x318 c:/Espressif/ESP8266_RTOS_SDK/lib\libmicroc.a(__toread.o)
 .debug_info    0x00071f42      0x2dc c:/Espressif/ESP8266_RTOS_SDK/lib\libmicroc.a(__stdio_exit.o)
 .debug_info    0x0007221e       0xf1 c:/Espressif/ESP8266_RTOS_SDK/lib\libmicroc.a(fmodl.o)
 .debug_info    0x0007230f       0xe6 c:/Espressif/ESP8266_RTOS_SDK/lib\libmicroc.a(scalbn.o)
 .debug_info    0x000723f5       0xeb c:/Espressif/ESP8266_RTOS_SDK/lib\libmicroc.a(scalbnl.o)
 .debug_info    0x000724e0      0x174 c:/Espressif/ESP8266_RTOS_SDK/lib\libmicroc.a(fmod.o)
 .debug_info    0x00072654       0xab c:/Espressif/ESP8266_RTOS_SDK/lib\libmicrogcc.a(_ashldi3.o)
 .debug_info    0x000726ff       0xac c:/Espressif/ESP8266_RTOS_SDK/lib\libmicrogcc.a(_cmpdf2.o)
 .debug_info    0x000727ab       0xab c:/Espressif/ESP8266_RTOS_SDK/lib\libmicrogcc.a(_lshrdi3.o)
 .debug_info    0x00072856       0xab c:/Espressif/ESP8266_RTOS_SDK/lib\libmicrogcc.a(_modsi3.o)
 .debug_info    0x00072901       0xf4 c:/Espressif/ESP8266_RTOS_SDK/lib\libgcc.a(_mulsf3.o)
 .debug_info    0x000729f5       0xab c:/Espressif/ESP8266_RTOS_SDK/lib\libmicrogcc.a(_ashrdi3.o)
 .debug_info    0x00072aa0       0xac c:/Espressif/ESP8266_RTOS_SDK/lib\libmicrogcc.a(_divsf3.o)
 .debug_info    0x00072b4c       0xac c:/Espressif/ESP8266_RTOS_SDK/lib\libmicrogcc.a(_fixsfsi.o)

.debug_abbrev   0x00000000     0xd5ce
 .debug_abbrev  0x00000000      0x956 build/app_app.a(user_main_sming.o)
 .debug_abbrev  0x00000956      0x1e5 build/app_app.a(Digital.o)
 .debug_abbrev  0x00000b3b      0x4a4 build/app_app.a(Temp_HardwareSerial.o)
 .debug_abbrev  0x00000fdf      0x39c build/app_app.a(Timer.o)
 .debug_abbrev  0x0000137b      0x2ac build/app_app.a(WifiStation.o)
 .debug_abbrev  0x00001627      0x2e1 build/app_app.a(CQueue.o)
 .debug_abbrev  0x00001908      0x3dd build/app_app.a(CTask.o)
 .debug_abbrev  0x00001ce5      0x39a build/app_app.a(IPAddress.o)
 .debug_abbrev  0x0000207f      0x4e5 build/app_app.a(Print.o)
 .debug_abbrev  0x00002564      0x43a build/app_app.a(WString.o)
 .debug_abbrev  0x0000299e      0x651 build/app_app.a(HttpResponse.o)
 .debug_abbrev  0x00002fef      0x79c build/app_app.a(HttpServer.o)
 .debug_abbrev  0x0000378b      0x61c build/app_app.a(HttpServerConnection.o)
 .debug_abbrev  0x00003da7      0x5b8 build/app_app.a(TcpClient.o)
 .debug_abbrev  0x0000435f      0x715 build/app_app.a(TcpConnection.o)
 .debug_abbrev  0x00004a74      0x6ac build/app_app.a(TcpServer.o)
 .debug_abbrev  0x00005120      0x548 build/app_app.a(TelnetServer.o)
 .debug_abbrev  0x00005668      0x600 build/app_app.a(UdpConnection.o)
 .debug_abbrev  0x00005c68      0x570 build/app_app.a(WebSocket.o)
 .debug_abbrev  0x000061d8      0x542 build/app_app.a(CommandExecutor.o)
 .debug_abbrev  0x0000671a      0x77e build/app_app.a(CommandHandler.o)
 .debug_abbrev  0x00006e98      0x4b1 build/app_app.a(CommandOutput.o)
 .debug_abbrev  0x00007349      0x116 build/app_app.a(base64.o)
 .debug_abbrev  0x0000745f      0x1ad build/app_app.a(websocket.o)
 .debug_abbrev  0x0000760c      0x201 build/app_app.a(m_printf.o)
 .debug_abbrev  0x0000780d      0x2bb build/app_app.a(uart.o)
 .debug_abbrev  0x00007ac8      0x839 build/app_app.a(DataSourceStream.o)
 .debug_abbrev  0x00008301      0x65c build/app_app.a(FileSystem.o)
 .debug_abbrev  0x0000895d      0x44a build/app_app.a(SystemClock.o)
 .debug_abbrev  0x00008da7      0x16d build/app_app.a(stringconversion.o)
 .debug_abbrev  0x00008f14      0x399 build/app_app.a(SplitString.o)
 .debug_abbrev  0x000092ad      0x2db build/app_app.a(RTC.o)
 .debug_abbrev  0x00009588      0x593 build/app_app.a(HttpRequest.o)
 .debug_abbrev  0x00009b1b      0x32b build/app_app.a(NetUtils.o)
 .debug_abbrev  0x00009e46      0x6fa build/app_app.a(ArduinoJson.o)
 .debug_abbrev  0x0000a540      0x458 build/app_app.a(CommandDelegate.o)
 .debug_abbrev  0x0000a998      0x409 build/app_app.a(DateTime.o)
 .debug_abbrev  0x0000ada1      0x40d build/app_app.a(spiffs_hydrogen.o)
 .debug_abbrev  0x0000b1ae      0x3fa build/app_app.a(spiffs_nucleus.o)
 .debug_abbrev  0x0000b5a8      0x34a build/app_app.a(spiffs_sming.o)
 .debug_abbrev  0x0000b8f2      0x1e3 build/app_app.a(escape.o)
 .debug_abbrev  0x0000bad5      0x24f build/app_app.a(flashmem.o)
 .debug_abbrev  0x0000bd24      0x34c build/app_app.a(spiffs_cache.o)
 .debug_abbrev  0x0000c070      0x3a0 build/app_app.a(spiffs_check.o)
 .debug_abbrev  0x0000c410      0x2af build/app_app.a(spiffs_gc.o)
 .debug_abbrev  0x0000c6bf       0x53 c:/Espressif/ESP8266_RTOS_SDK/lib\libmicroc.a(isprint.o)
 .debug_abbrev  0x0000c712       0x53 c:/Espressif/ESP8266_RTOS_SDK/lib\libmicroc.a(isspace.o)
 .debug_abbrev  0x0000c765       0x53 c:/Espressif/ESP8266_RTOS_SDK/lib\libmicroc.a(tolower.o)
 .debug_abbrev  0x0000c7b8       0x53 c:/Espressif/ESP8266_RTOS_SDK/lib\libmicroc.a(toupper.o)
 .debug_abbrev  0x0000c80b       0x53 c:/Espressif/ESP8266_RTOS_SDK/lib\libmicroc.a(isxdigit.o)
 .debug_abbrev  0x0000c85e       0x9f c:/Espressif/ESP8266_RTOS_SDK/lib\libmicroc.a(atof.o)
 .debug_abbrev  0x0000c8fd      0x17f c:/Espressif/ESP8266_RTOS_SDK/lib\libmicroc.a(strtod.o)
 .debug_abbrev  0x0000ca7c       0xcb c:/Espressif/ESP8266_RTOS_SDK/lib\libmicroc.a(__fpclassify.o)
 .debug_abbrev  0x0000cb47       0x96 c:/Espressif/ESP8266_RTOS_SDK/lib\libmicroc.a(memchr.o)
 .debug_abbrev  0x0000cbdd       0x51 c:/Espressif/ESP8266_RTOS_SDK/lib\libmicroc.a(__errno_location.o)
 .debug_abbrev  0x0000cc2e      0x2c1 c:/Espressif/ESP8266_RTOS_SDK/lib\libmicroc.a(floatscan.o)
 .debug_abbrev  0x0000ceef      0x121 c:/Espressif/ESP8266_RTOS_SDK/lib\libmicroc.a(shgetc.o)
 .debug_abbrev  0x0000d010      0x103 c:/Espressif/ESP8266_RTOS_SDK/lib\libmicroc.a(__uflow.o)
 .debug_abbrev  0x0000d113      0x108 c:/Espressif/ESP8266_RTOS_SDK/lib\libmicroc.a(__toread.o)
 .debug_abbrev  0x0000d21b       0xbb c:/Espressif/ESP8266_RTOS_SDK/lib\libmicroc.a(__stdio_exit.o)
 .debug_abbrev  0x0000d2d6       0x86 c:/Espressif/ESP8266_RTOS_SDK/lib\libmicroc.a(fmodl.o)
 .debug_abbrev  0x0000d35c       0x96 c:/Espressif/ESP8266_RTOS_SDK/lib\libmicroc.a(scalbn.o)
 .debug_abbrev  0x0000d3f2       0x86 c:/Espressif/ESP8266_RTOS_SDK/lib\libmicroc.a(scalbnl.o)
 .debug_abbrev  0x0000d478       0xb6 c:/Espressif/ESP8266_RTOS_SDK/lib\libmicroc.a(fmod.o)
 .debug_abbrev  0x0000d52e       0x14 c:/Espressif/ESP8266_RTOS_SDK/lib\libmicrogcc.a(_ashldi3.o)
 .debug_abbrev  0x0000d542       0x14 c:/Espressif/ESP8266_RTOS_SDK/lib\libmicrogcc.a(_cmpdf2.o)
 .debug_abbrev  0x0000d556       0x14 c:/Espressif/ESP8266_RTOS_SDK/lib\libmicrogcc.a(_lshrdi3.o)
 .debug_abbrev  0x0000d56a       0x14 c:/Espressif/ESP8266_RTOS_SDK/lib\libmicrogcc.a(_modsi3.o)
 .debug_abbrev  0x0000d57e       0x14 c:/Espressif/ESP8266_RTOS_SDK/lib\libgcc.a(_mulsf3.o)
 .debug_abbrev  0x0000d592       0x14 c:/Espressif/ESP8266_RTOS_SDK/lib\libmicrogcc.a(_ashrdi3.o)
 .debug_abbrev  0x0000d5a6       0x14 c:/Espressif/ESP8266_RTOS_SDK/lib\libmicrogcc.a(_divsf3.o)
 .debug_abbrev  0x0000d5ba       0x14 c:/Espressif/ESP8266_RTOS_SDK/lib\libmicrogcc.a(_fixsfsi.o)

.debug_loc      0x00000000    0x23194
 .debug_loc     0x00000000     0x10a5 build/app_app.a(user_main_sming.o)
 .debug_loc     0x000010a5      0x37b build/app_app.a(Digital.o)
 .debug_loc     0x00001420      0x31e build/app_app.a(Temp_HardwareSerial.o)
 .debug_loc     0x0000173e      0x805 build/app_app.a(Timer.o)
 .debug_loc     0x00001f43       0xad build/app_app.a(WifiStation.o)
 .debug_loc     0x00001ff0      0x1f5 build/app_app.a(CQueue.o)
 .debug_loc     0x000021e5      0x2bb build/app_app.a(CTask.o)
 .debug_loc     0x000024a0      0x3a5 build/app_app.a(IPAddress.o)
 .debug_loc     0x00002845     0x1406 build/app_app.a(Print.o)
 .debug_loc     0x00003c4b     0x21ac build/app_app.a(WString.o)
 .debug_loc     0x00005df7     0x1116 build/app_app.a(HttpResponse.o)
 .debug_loc     0x00006f0d     0x1d17 build/app_app.a(HttpServer.o)
 .debug_loc     0x00008c24      0x7eb build/app_app.a(HttpServerConnection.o)
 .debug_loc     0x0000940f     0x10f5 build/app_app.a(TcpClient.o)
 .debug_loc     0x0000a504      0xf2e build/app_app.a(TcpConnection.o)
 .debug_loc     0x0000b432     0x10e5 build/app_app.a(TcpServer.o)
 .debug_loc     0x0000c517      0x33a build/app_app.a(TelnetServer.o)
 .debug_loc     0x0000c851      0x8df build/app_app.a(UdpConnection.o)
 .debug_loc     0x0000d130      0x965 build/app_app.a(WebSocket.o)
 .debug_loc     0x0000da95      0x4f1 build/app_app.a(CommandExecutor.o)
 .debug_loc     0x0000df86     0x1a6f build/app_app.a(CommandHandler.o)
 .debug_loc     0x0000f9f5      0x309 build/app_app.a(CommandOutput.o)
 .debug_loc     0x0000fcfe      0x568 build/app_app.a(base64.o)
 .debug_loc     0x00010266      0x33d build/app_app.a(websocket.o)
 .debug_loc     0x000105a3      0x779 build/app_app.a(m_printf.o)
 .debug_loc     0x00010d1c      0x593 build/app_app.a(uart.o)
 .debug_loc     0x000112af     0x14a1 build/app_app.a(DataSourceStream.o)
 .debug_loc     0x00012750      0xa2b build/app_app.a(FileSystem.o)
 .debug_loc     0x0001317b      0x1d0 build/app_app.a(SystemClock.o)
 .debug_loc     0x0001334b      0x694 build/app_app.a(stringconversion.o)
 .debug_loc     0x000139df      0x92c build/app_app.a(SplitString.o)
 .debug_loc     0x0001430b      0x269 build/app_app.a(RTC.o)
 .debug_loc     0x00014574      0xe28 build/app_app.a(HttpRequest.o)
 .debug_loc     0x0001539c      0x3f3 build/app_app.a(NetUtils.o)
 .debug_loc     0x0001578f     0x213b build/app_app.a(ArduinoJson.o)
 .debug_loc     0x000178ca      0x232 build/app_app.a(CommandDelegate.o)
 .debug_loc     0x00017afc      0xafd build/app_app.a(DateTime.o)
 .debug_loc     0x000185f9     0x18e9 build/app_app.a(spiffs_hydrogen.o)
 .debug_loc     0x00019ee2     0x31ef build/app_app.a(spiffs_nucleus.o)
 .debug_loc     0x0001d0d1      0x528 build/app_app.a(spiffs_sming.o)
 .debug_loc     0x0001d5f9      0x6f4 build/app_app.a(escape.o)
 .debug_loc     0x0001dced      0x5b7 build/app_app.a(flashmem.o)
 .debug_loc     0x0001e2a4      0x879 build/app_app.a(spiffs_cache.o)
 .debug_loc     0x0001eb1d     0x1562 build/app_app.a(spiffs_check.o)
 .debug_loc     0x0002007f     0x1023 build/app_app.a(spiffs_gc.o)
 .debug_loc     0x000210a2       0x20 c:/Espressif/ESP8266_RTOS_SDK/lib\libmicroc.a(isprint.o)
 .debug_loc     0x000210c2       0x20 c:/Espressif/ESP8266_RTOS_SDK/lib\libmicroc.a(isspace.o)
 .debug_loc     0x000210e2       0x21 c:/Espressif/ESP8266_RTOS_SDK/lib\libmicroc.a(tolower.o)
 .debug_loc     0x00021103       0x21 c:/Espressif/ESP8266_RTOS_SDK/lib\libmicroc.a(toupper.o)
 .debug_loc     0x00021124       0x1e c:/Espressif/ESP8266_RTOS_SDK/lib\libmicroc.a(isxdigit.o)
 .debug_loc     0x00021142       0x21 c:/Espressif/ESP8266_RTOS_SDK/lib\libmicroc.a(atof.o)
 .debug_loc     0x00021163      0x189 c:/Espressif/ESP8266_RTOS_SDK/lib\libmicroc.a(strtod.o)
 .debug_loc     0x000212ec       0xb8 c:/Espressif/ESP8266_RTOS_SDK/lib\libmicroc.a(__fpclassify.o)
 .debug_loc     0x000213a4       0xd1 c:/Espressif/ESP8266_RTOS_SDK/lib\libmicroc.a(memchr.o)
 .debug_loc     0x00021475     0x1752 c:/Espressif/ESP8266_RTOS_SDK/lib\libmicroc.a(floatscan.o)
 .debug_loc     0x00022bc7       0x6a c:/Espressif/ESP8266_RTOS_SDK/lib\libmicroc.a(shgetc.o)
 .debug_loc     0x00022c31       0x2c c:/Espressif/ESP8266_RTOS_SDK/lib\libmicroc.a(__uflow.o)
 .debug_loc     0x00022c5d       0x2c c:/Espressif/ESP8266_RTOS_SDK/lib\libmicroc.a(__toread.o)
 .debug_loc     0x00022c89       0x50 c:/Espressif/ESP8266_RTOS_SDK/lib\libmicroc.a(fmodl.o)
 .debug_loc     0x00022cd9      0x185 c:/Espressif/ESP8266_RTOS_SDK/lib\libmicroc.a(scalbn.o)
 .debug_loc     0x00022e5e       0x49 c:/Espressif/ESP8266_RTOS_SDK/lib\libmicroc.a(scalbnl.o)
 .debug_loc     0x00022ea7      0x2ed c:/Espressif/ESP8266_RTOS_SDK/lib\libmicroc.a(fmod.o)

.debug_aranges  0x00000000     0x2118
 .debug_aranges
                0x00000000      0x188 build/app_app.a(user_main_sming.o)
 .debug_aranges
                0x00000188       0x50 build/app_app.a(Digital.o)
 .debug_aranges
                0x000001d8       0x78 build/app_app.a(Temp_HardwareSerial.o)
 .debug_aranges
                0x00000250       0xa8 build/app_app.a(Timer.o)
 .debug_aranges
                0x000002f8       0x48 build/app_app.a(WifiStation.o)
 .debug_aranges
                0x00000340       0x60 build/app_app.a(CQueue.o)
 .debug_aranges
                0x000003a0       0x68 build/app_app.a(CTask.o)
 .debug_aranges
                0x00000408       0x88 build/app_app.a(IPAddress.o)
 .debug_aranges
                0x00000490       0xe8 build/app_app.a(Print.o)
 .debug_aranges
                0x00000578      0x290 build/app_app.a(WString.o)
 .debug_aranges
                0x00000808      0x100 build/app_app.a(HttpResponse.o)
 .debug_aranges
                0x00000908      0x158 build/app_app.a(HttpServer.o)
 .debug_aranges
                0x00000a60       0x78 build/app_app.a(HttpServerConnection.o)
 .debug_aranges
                0x00000ad8       0xc8 build/app_app.a(TcpClient.o)
 .debug_aranges
                0x00000ba0      0x108 build/app_app.a(TcpConnection.o)
 .debug_aranges
                0x00000ca8       0xe0 build/app_app.a(TcpServer.o)
 .debug_aranges
                0x00000d88       0x70 build/app_app.a(TelnetServer.o)
 .debug_aranges
                0x00000df8       0xa0 build/app_app.a(UdpConnection.o)
 .debug_aranges
                0x00000e98       0x60 build/app_app.a(WebSocket.o)
 .debug_aranges
                0x00000ef8       0x68 build/app_app.a(CommandExecutor.o)
 .debug_aranges
                0x00000f60      0x148 build/app_app.a(CommandHandler.o)
 .debug_aranges
                0x000010a8       0x50 build/app_app.a(CommandOutput.o)
 .debug_aranges
                0x000010f8       0x38 build/app_app.a(base64.o)
 .debug_aranges
                0x00001130       0x28 build/app_app.a(websocket.o)
 .debug_aranges
                0x00001158       0x30 build/app_app.a(m_printf.o)
 .debug_aranges
                0x00001188       0xa8 build/app_app.a(uart.o)
 .debug_aranges
                0x00001230      0x148 build/app_app.a(DataSourceStream.o)
 .debug_aranges
                0x00001378       0xf0 build/app_app.a(FileSystem.o)
 .debug_aranges
                0x00001468       0x40 build/app_app.a(SystemClock.o)
 .debug_aranges
                0x000014a8       0x40 build/app_app.a(stringconversion.o)
 .debug_aranges
                0x000014e8       0x48 build/app_app.a(SplitString.o)
 .debug_aranges
                0x00001530       0x50 build/app_app.a(RTC.o)
 .debug_aranges
                0x00001580       0xb8 build/app_app.a(HttpRequest.o)
 .debug_aranges
                0x00001638       0x48 build/app_app.a(NetUtils.o)
 .debug_aranges
                0x00001680      0x1f8 build/app_app.a(ArduinoJson.o)
 .debug_aranges
                0x00001878       0x38 build/app_app.a(CommandDelegate.o)
 .debug_aranges
                0x000018b0       0x80 build/app_app.a(DateTime.o)
 .debug_aranges
                0x00001930      0x118 build/app_app.a(spiffs_hydrogen.o)
 .debug_aranges
                0x00001a48      0x118 build/app_app.a(spiffs_nucleus.o)
 .debug_aranges
                0x00001b60       0x80 build/app_app.a(spiffs_sming.o)
 .debug_aranges
                0x00001be0       0x48 build/app_app.a(escape.o)
 .debug_aranges
                0x00001c28       0x78 build/app_app.a(flashmem.o)
 .debug_aranges
                0x00001ca0       0x70 build/app_app.a(spiffs_cache.o)
 .debug_aranges
                0x00001d10       0x60 build/app_app.a(spiffs_check.o)
 .debug_aranges
                0x00001d70       0x48 build/app_app.a(spiffs_gc.o)
 .debug_aranges
                0x00001db8       0x20 c:/Espressif/ESP8266_RTOS_SDK/lib\libmicroc.a(isprint.o)
 .debug_aranges
                0x00001dd8       0x20 c:/Espressif/ESP8266_RTOS_SDK/lib\libmicroc.a(isspace.o)
 .debug_aranges
                0x00001df8       0x20 c:/Espressif/ESP8266_RTOS_SDK/lib\libmicroc.a(tolower.o)
 .debug_aranges
                0x00001e18       0x20 c:/Espressif/ESP8266_RTOS_SDK/lib\libmicroc.a(toupper.o)
 .debug_aranges
                0x00001e38       0x20 c:/Espressif/ESP8266_RTOS_SDK/lib\libmicroc.a(isxdigit.o)
 .debug_aranges
                0x00001e58       0x20 c:/Espressif/ESP8266_RTOS_SDK/lib\libmicroc.a(atof.o)
 .debug_aranges
                0x00001e78       0x20 c:/Espressif/ESP8266_RTOS_SDK/lib\libmicroc.a(strtod.o)
 .debug_aranges
                0x00001e98       0x20 c:/Espressif/ESP8266_RTOS_SDK/lib\libmicroc.a(__fpclassify.o)
 .debug_aranges
                0x00001eb8       0x20 c:/Espressif/ESP8266_RTOS_SDK/lib\libmicroc.a(memchr.o)
 .debug_aranges
                0x00001ed8       0x20 c:/Espressif/ESP8266_RTOS_SDK/lib\libmicroc.a(__errno_location.o)
 .debug_aranges
                0x00001ef8       0x20 c:/Espressif/ESP8266_RTOS_SDK/lib\libmicroc.a(floatscan.o)
 .debug_aranges
                0x00001f18       0x20 c:/Espressif/ESP8266_RTOS_SDK/lib\libmicroc.a(shgetc.o)
 .debug_aranges
                0x00001f38       0x20 c:/Espressif/ESP8266_RTOS_SDK/lib\libmicroc.a(__uflow.o)
 .debug_aranges
                0x00001f58       0x20 c:/Espressif/ESP8266_RTOS_SDK/lib\libmicroc.a(__toread.o)
 .debug_aranges
                0x00001f78       0x20 c:/Espressif/ESP8266_RTOS_SDK/lib\libmicroc.a(__stdio_exit.o)
 .debug_aranges
                0x00001f98       0x20 c:/Espressif/ESP8266_RTOS_SDK/lib\libmicroc.a(fmodl.o)
 .debug_aranges
                0x00001fb8       0x20 c:/Espressif/ESP8266_RTOS_SDK/lib\libmicroc.a(scalbn.o)
 .debug_aranges
                0x00001fd8       0x20 c:/Espressif/ESP8266_RTOS_SDK/lib\libmicroc.a(scalbnl.o)
 .debug_aranges
                0x00001ff8       0x20 c:/Espressif/ESP8266_RTOS_SDK/lib\libmicroc.a(fmod.o)
 .debug_aranges
                0x00002018       0x20 c:/Espressif/ESP8266_RTOS_SDK/lib\libmicrogcc.a(_ashldi3.o)
 .debug_aranges
                0x00002038       0x20 c:/Espressif/ESP8266_RTOS_SDK/lib\libmicrogcc.a(_cmpdf2.o)
 .debug_aranges
                0x00002058       0x20 c:/Espressif/ESP8266_RTOS_SDK/lib\libmicrogcc.a(_lshrdi3.o)
 .debug_aranges
                0x00002078       0x20 c:/Espressif/ESP8266_RTOS_SDK/lib\libmicrogcc.a(_modsi3.o)
 .debug_aranges
                0x00002098       0x20 c:/Espressif/ESP8266_RTOS_SDK/lib\libgcc.a(_mulsf3.o)
 .debug_aranges
                0x000020b8       0x20 c:/Espressif/ESP8266_RTOS_SDK/lib\libmicrogcc.a(_ashrdi3.o)
 .debug_aranges
                0x000020d8       0x20 c:/Espressif/ESP8266_RTOS_SDK/lib\libmicrogcc.a(_divsf3.o)
 .debug_aranges
                0x000020f8       0x20 c:/Espressif/ESP8266_RTOS_SDK/lib\libmicrogcc.a(_fixsfsi.o)

.debug_ranges   0x00000000     0x33a0
 .debug_ranges  0x00000000      0x310 build/app_app.a(user_main_sming.o)
 .debug_ranges  0x00000310       0x40 build/app_app.a(Digital.o)
 .debug_ranges  0x00000350      0x120 build/app_app.a(Temp_HardwareSerial.o)
 .debug_ranges  0x00000470      0x118 build/app_app.a(Timer.o)
 .debug_ranges  0x00000588       0x38 build/app_app.a(WifiStation.o)
 .debug_ranges  0x000005c0       0x50 build/app_app.a(CQueue.o)
 .debug_ranges  0x00000610       0x58 build/app_app.a(CTask.o)
 .debug_ranges  0x00000668       0x78 build/app_app.a(IPAddress.o)
 .debug_ranges  0x000006e0      0x198 build/app_app.a(Print.o)
 .debug_ranges  0x00000878      0x400 build/app_app.a(WString.o)
 .debug_ranges  0x00000c78      0x188 build/app_app.a(HttpResponse.o)
 .debug_ranges  0x00000e00      0x300 build/app_app.a(HttpServer.o)
 .debug_ranges  0x00001100       0xa0 build/app_app.a(HttpServerConnection.o)
 .debug_ranges  0x000011a0      0x138 build/app_app.a(TcpClient.o)
 .debug_ranges  0x000012d8      0x1a0 build/app_app.a(TcpConnection.o)
 .debug_ranges  0x00001478      0x168 build/app_app.a(TcpServer.o)
 .debug_ranges  0x000015e0       0x80 build/app_app.a(TelnetServer.o)
 .debug_ranges  0x00001660       0xf8 build/app_app.a(UdpConnection.o)
 .debug_ranges  0x00001758       0x70 build/app_app.a(WebSocket.o)
 .debug_ranges  0x000017c8       0x90 build/app_app.a(CommandExecutor.o)
 .debug_ranges  0x00001858      0x3c8 build/app_app.a(CommandHandler.o)
 .debug_ranges  0x00001c20       0xa8 build/app_app.a(CommandOutput.o)
 .debug_ranges  0x00001cc8       0x68 build/app_app.a(base64.o)
 .debug_ranges  0x00001d30       0x30 build/app_app.a(websocket.o)
 .debug_ranges  0x00001d60       0x20 build/app_app.a(m_printf.o)
 .debug_ranges  0x00001d80       0xc8 build/app_app.a(uart.o)
 .debug_ranges  0x00001e48      0x288 build/app_app.a(DataSourceStream.o)
 .debug_ranges  0x000020d0      0x128 build/app_app.a(FileSystem.o)
 .debug_ranges  0x000021f8       0x88 build/app_app.a(SystemClock.o)
 .debug_ranges  0x00002280       0x30 build/app_app.a(stringconversion.o)
 .debug_ranges  0x000022b0      0x180 build/app_app.a(SplitString.o)
 .debug_ranges  0x00002430       0x70 build/app_app.a(RTC.o)
 .debug_ranges  0x000024a0      0x110 build/app_app.a(HttpRequest.o)
 .debug_ranges  0x000025b0       0x38 build/app_app.a(NetUtils.o)
 .debug_ranges  0x000025e8      0x4a0 build/app_app.a(ArduinoJson.o)
 .debug_ranges  0x00002a88       0x78 build/app_app.a(CommandDelegate.o)
 .debug_ranges  0x00002b00       0x70 build/app_app.a(DateTime.o)
 .debug_ranges  0x00002b70      0x138 build/app_app.a(spiffs_hydrogen.o)
 .debug_ranges  0x00002ca8      0x1f8 build/app_app.a(spiffs_nucleus.o)
 .debug_ranges  0x00002ea0       0x70 build/app_app.a(spiffs_sming.o)
 .debug_ranges  0x00002f10       0x50 build/app_app.a(escape.o)
 .debug_ranges  0x00002f60       0x68 build/app_app.a(flashmem.o)
 .debug_ranges  0x00002fc8       0x90 build/app_app.a(spiffs_cache.o)
 .debug_ranges  0x00003058      0x230 build/app_app.a(spiffs_check.o)
 .debug_ranges  0x00003288       0x98 build/app_app.a(spiffs_gc.o)
 .debug_ranges  0x00003320       0x80 c:/Espressif/ESP8266_RTOS_SDK/lib\libmicroc.a(floatscan.o)

.debug_line     0x00000000    0x1d1b7
 .debug_line    0x00000000     0x1390 build/app_app.a(user_main_sming.o)
 .debug_line    0x00001390      0x384 build/app_app.a(Digital.o)
 .debug_line    0x00001714      0x504 build/app_app.a(Temp_HardwareSerial.o)
 .debug_line    0x00001c18      0x616 build/app_app.a(Timer.o)
 .debug_line    0x0000222e      0x28e build/app_app.a(WifiStation.o)
 .debug_line    0x000024bc      0x29d build/app_app.a(CQueue.o)
 .debug_line    0x00002759      0x2e0 build/app_app.a(CTask.o)
 .debug_line    0x00002a39      0x4e2 build/app_app.a(IPAddress.o)
 .debug_line    0x00002f1b      0x83e build/app_app.a(Print.o)
 .debug_line    0x00003759     0x15b0 build/app_app.a(WString.o)
 .debug_line    0x00004d09      0xf1b build/app_app.a(HttpResponse.o)
 .debug_line    0x00005c24     0x150c build/app_app.a(HttpServer.o)
 .debug_line    0x00007130      0x93f build/app_app.a(HttpServerConnection.o)
 .debug_line    0x00007a6f      0xb0a build/app_app.a(TcpClient.o)
 .debug_line    0x00008579      0xcb0 build/app_app.a(TcpConnection.o)
 .debug_line    0x00009229      0xa35 build/app_app.a(TcpServer.o)
 .debug_line    0x00009c5e      0x6a2 build/app_app.a(TelnetServer.o)
 .debug_line    0x0000a300      0x74a build/app_app.a(UdpConnection.o)
 .debug_line    0x0000aa4a      0x88e build/app_app.a(WebSocket.o)
 .debug_line    0x0000b2d8      0x738 build/app_app.a(CommandExecutor.o)
 .debug_line    0x0000ba10     0x1434 build/app_app.a(CommandHandler.o)
 .debug_line    0x0000ce44      0x5ae build/app_app.a(CommandOutput.o)
 .debug_line    0x0000d3f2      0x318 build/app_app.a(base64.o)
 .debug_line    0x0000d70a      0x25a build/app_app.a(websocket.o)
 .debug_line    0x0000d964      0x48a build/app_app.a(m_printf.o)
 .debug_line    0x0000ddee      0x57c build/app_app.a(uart.o)
 .debug_line    0x0000e36a     0x1389 build/app_app.a(DataSourceStream.o)
 .debug_line    0x0000f6f3      0x8f2 build/app_app.a(FileSystem.o)
 .debug_line    0x0000ffe5      0x4f3 build/app_app.a(SystemClock.o)
 .debug_line    0x000104d8      0x434 build/app_app.a(stringconversion.o)
 .debug_line    0x0001090c      0x566 build/app_app.a(SplitString.o)
 .debug_line    0x00010e72      0x2be build/app_app.a(RTC.o)
 .debug_line    0x00011130      0xe28 build/app_app.a(HttpRequest.o)
 .debug_line    0x00011f58      0x3f6 build/app_app.a(NetUtils.o)
 .debug_line    0x0001234e     0x18f6 build/app_app.a(ArduinoJson.o)
 .debug_line    0x00013c44      0x4a0 build/app_app.a(CommandDelegate.o)
 .debug_line    0x000140e4      0x906 build/app_app.a(DateTime.o)
 .debug_line    0x000149ea     0x1293 build/app_app.a(spiffs_hydrogen.o)
 .debug_line    0x00015c7d     0x2092 build/app_app.a(spiffs_nucleus.o)
 .debug_line    0x00017d0f      0x55d build/app_app.a(spiffs_sming.o)
 .debug_line    0x0001826c      0x42a build/app_app.a(escape.o)
 .debug_line    0x00018696      0x4a1 build/app_app.a(flashmem.o)
 .debug_line    0x00018b37      0x682 build/app_app.a(spiffs_cache.o)
 .debug_line    0x000191b9      0xe3f build/app_app.a(spiffs_check.o)
 .debug_line    0x00019ff8      0xa2e build/app_app.a(spiffs_gc.o)
 .debug_line    0x0001aa26       0x4a c:/Espressif/ESP8266_RTOS_SDK/lib\libmicroc.a(isprint.o)
 .debug_line    0x0001aa70       0x4a c:/Espressif/ESP8266_RTOS_SDK/lib\libmicroc.a(isspace.o)
 .debug_line    0x0001aaba       0x56 c:/Espressif/ESP8266_RTOS_SDK/lib\libmicroc.a(tolower.o)
 .debug_line    0x0001ab10       0x56 c:/Espressif/ESP8266_RTOS_SDK/lib\libmicroc.a(toupper.o)
 .debug_line    0x0001ab66       0x67 c:/Espressif/ESP8266_RTOS_SDK/lib\libmicroc.a(isxdigit.o)
 .debug_line    0x0001abcd       0x68 c:/Espressif/ESP8266_RTOS_SDK/lib\libmicroc.a(atof.o)
 .debug_line    0x0001ac35      0x142 c:/Espressif/ESP8266_RTOS_SDK/lib\libmicroc.a(strtod.o)
 .debug_line    0x0001ad77       0xc4 c:/Espressif/ESP8266_RTOS_SDK/lib\libmicroc.a(__fpclassify.o)
 .debug_line    0x0001ae3b      0x11a c:/Espressif/ESP8266_RTOS_SDK/lib\libmicroc.a(memchr.o)
 .debug_line    0x0001af55       0x4d c:/Espressif/ESP8266_RTOS_SDK/lib\libmicroc.a(__errno_location.o)
 .debug_line    0x0001afa2      0xe3b c:/Espressif/ESP8266_RTOS_SDK/lib\libmicroc.a(floatscan.o)
 .debug_line    0x0001bddd      0x124 c:/Espressif/ESP8266_RTOS_SDK/lib\libmicroc.a(shgetc.o)
 .debug_line    0x0001bf01       0xaf c:/Espressif/ESP8266_RTOS_SDK/lib\libmicroc.a(__uflow.o)
 .debug_line    0x0001bfb0       0xf8 c:/Espressif/ESP8266_RTOS_SDK/lib\libmicroc.a(__toread.o)
 .debug_line    0x0001c0a8       0x8c c:/Espressif/ESP8266_RTOS_SDK/lib\libmicroc.a(__stdio_exit.o)
 .debug_line    0x0001c134       0x59 c:/Espressif/ESP8266_RTOS_SDK/lib\libmicroc.a(fmodl.o)
 .debug_line    0x0001c18d       0xd0 c:/Espressif/ESP8266_RTOS_SDK/lib\libmicroc.a(scalbn.o)
 .debug_line    0x0001c25d       0x5b c:/Espressif/ESP8266_RTOS_SDK/lib\libmicroc.a(scalbnl.o)
 .debug_line    0x0001c2b8      0x1ec c:/Espressif/ESP8266_RTOS_SDK/lib\libmicroc.a(fmod.o)
 .debug_line    0x0001c4a4       0x85 c:/Espressif/ESP8266_RTOS_SDK/lib\libmicrogcc.a(_ashldi3.o)
 .debug_line    0x0001c529      0x35c c:/Espressif/ESP8266_RTOS_SDK/lib\libmicrogcc.a(_cmpdf2.o)
 .debug_line    0x0001c885       0x85 c:/Espressif/ESP8266_RTOS_SDK/lib\libmicrogcc.a(_lshrdi3.o)
 .debug_line    0x0001c90a       0xe5 c:/Espressif/ESP8266_RTOS_SDK/lib\libmicrogcc.a(_modsi3.o)
 .debug_line    0x0001c9ef      0x37f c:/Espressif/ESP8266_RTOS_SDK/lib\libgcc.a(_mulsf3.o)
 .debug_line    0x0001cd6e       0x85 c:/Espressif/ESP8266_RTOS_SDK/lib\libmicrogcc.a(_ashrdi3.o)
 .debug_line    0x0001cdf3      0x2e4 c:/Espressif/ESP8266_RTOS_SDK/lib\libmicrogcc.a(_divsf3.o)
 .debug_line    0x0001d0d7       0xe0 c:/Espressif/ESP8266_RTOS_SDK/lib\libmicrogcc.a(_fixsfsi.o)

.debug_str      0x00000000    0x1a851
 .debug_str     0x00000000     0x4dcd build/app_app.a(user_main_sming.o)
                               0x512d (size before relaxing)
 .debug_str     0x00004dcd       0xb5 build/app_app.a(Digital.o)
                                0x363 (size before relaxing)
 .debug_str     0x00004e82      0xb77 build/app_app.a(Temp_HardwareSerial.o)
                                0xf2b (size before relaxing)
 .debug_str     0x000059f9       0x98 build/app_app.a(Timer.o)
                                0x9b3 (size before relaxing)
 .debug_str     0x00005a91      0x141 build/app_app.a(WifiStation.o)
                                0xc26 (size before relaxing)
 .debug_str     0x00005bd2      0x417 build/app_app.a(CQueue.o)
                                0xe9c (size before relaxing)
 .debug_str     0x00005fe9      0x55f build/app_app.a(CTask.o)
                               0x1176 (size before relaxing)
 .debug_str     0x00006548      0x10f build/app_app.a(IPAddress.o)
                               0x1891 (size before relaxing)
 .debug_str     0x00006657      0x382 build/app_app.a(Print.o)
                               0x18c7 (size before relaxing)
 .debug_str     0x000069d9      0x2eb build/app_app.a(WString.o)
                               0x17e6 (size before relaxing)
 .debug_str     0x00006cc4      0xa5f build/app_app.a(HttpResponse.o)
                               0x1d2f (size before relaxing)
 .debug_str     0x00007723     0x2350 build/app_app.a(HttpServer.o)
                               0x5087 (size before relaxing)
 .debug_str     0x00009a73      0x6e1 build/app_app.a(HttpServerConnection.o)
                               0x2b0b (size before relaxing)
 .debug_str     0x0000a154      0xbe7 build/app_app.a(TcpClient.o)
                               0x346b (size before relaxing)
 .debug_str     0x0000ad3b      0x6b0 build/app_app.a(TcpConnection.o)
                               0x268f (size before relaxing)
 .debug_str     0x0000b3eb      0x945 build/app_app.a(TcpServer.o)
                               0x340c (size before relaxing)
 .debug_str     0x0000bd30      0x4b1 build/app_app.a(TelnetServer.o)
                               0x2220 (size before relaxing)
 .debug_str     0x0000c1e1      0x45c build/app_app.a(UdpConnection.o)
                               0x2533 (size before relaxing)
 .debug_str     0x0000c63d      0x1e3 build/app_app.a(WebSocket.o)
                               0x1de3 (size before relaxing)
 .debug_str     0x0000c820      0xb29 build/app_app.a(CommandExecutor.o)
                               0x2aa5 (size before relaxing)
 .debug_str     0x0000d349      0xda7 build/app_app.a(CommandHandler.o)
                               0x3ba7 (size before relaxing)
 .debug_str     0x0000e0f0      0x1d3 build/app_app.a(CommandOutput.o)
                               0x1e70 (size before relaxing)
 .debug_str     0x0000e2c3       0x81 build/app_app.a(base64.o)
                                0x221 (size before relaxing)
 .debug_str     0x0000e344       0xb8 build/app_app.a(websocket.o)
                                0x3f1 (size before relaxing)
 .debug_str     0x0000e3fc       0x9e build/app_app.a(m_printf.o)
                                0x2fa (size before relaxing)
 .debug_str     0x0000e49a      0x66f build/app_app.a(uart.o)
                                0x7ad (size before relaxing)
 .debug_str     0x0000eb09     0x781e build/app_app.a(DataSourceStream.o)
                               0x8f22 (size before relaxing)
 .debug_str     0x00016327      0x5d8 build/app_app.a(FileSystem.o)
                               0x1d00 (size before relaxing)
 .debug_str     0x000168ff      0x177 build/app_app.a(SystemClock.o)
                               0x1e6f (size before relaxing)
 .debug_str     0x00016a76       0x7f build/app_app.a(stringconversion.o)
                                0x291 (size before relaxing)
 .debug_str     0x00016af5      0x187 build/app_app.a(SplitString.o)
                               0x1748 (size before relaxing)
 .debug_str     0x00016c7c       0xbe build/app_app.a(RTC.o)
                                0x50c (size before relaxing)
 .debug_str     0x00016d3a      0x34c build/app_app.a(HttpRequest.o)
                               0x23f3 (size before relaxing)
 .debug_str     0x00017086       0x62 build/app_app.a(NetUtils.o)
                               0x16dc (size before relaxing)
 .debug_str     0x000170e8     0x1e8c build/app_app.a(ArduinoJson.o)
                               0x9e40 (size before relaxing)
 .debug_str     0x00018f74       0xdb build/app_app.a(CommandDelegate.o)
                               0x1ed6 (size before relaxing)
 .debug_str     0x0001904f       0xa8 build/app_app.a(DateTime.o)
                               0x1858 (size before relaxing)
 .debug_str     0x000190f7      0x584 build/app_app.a(spiffs_hydrogen.o)
                                0xbdb (size before relaxing)
 .debug_str     0x0001967b      0x487 build/app_app.a(spiffs_nucleus.o)
                                0xcb7 (size before relaxing)
 .debug_str     0x00019b02      0x1ec build/app_app.a(spiffs_sming.o)
                                0x77a (size before relaxing)
 .debug_str     0x00019cee       0xa3 build/app_app.a(escape.o)
                                0x26a (size before relaxing)
 .debug_str     0x00019d91      0x256 build/app_app.a(flashmem.o)
                                0x489 (size before relaxing)
 .debug_str     0x00019fe7       0xd7 build/app_app.a(spiffs_cache.o)
                                0x6d9 (size before relaxing)
 .debug_str     0x0001a0be      0x256 build/app_app.a(spiffs_check.o)
                                0x943 (size before relaxing)
 .debug_str     0x0001a314      0x1e5 build/app_app.a(spiffs_gc.o)
                                0x956 (size before relaxing)
 .debug_str     0x0001a4f9       0x48 c:/Espressif/ESP8266_RTOS_SDK/lib\libmicroc.a(isprint.o)
                                 0xef (size before relaxing)
 .debug_str     0x0001a541       0x10 c:/Espressif/ESP8266_RTOS_SDK/lib\libmicroc.a(isspace.o)
                                 0xef (size before relaxing)
 .debug_str     0x0001a551       0x10 c:/Espressif/ESP8266_RTOS_SDK/lib\libmicroc.a(tolower.o)
                                 0xef (size before relaxing)
 .debug_str     0x0001a561       0x10 c:/Espressif/ESP8266_RTOS_SDK/lib\libmicroc.a(toupper.o)
                                 0xef (size before relaxing)
 .debug_str     0x0001a571       0x11 c:/Espressif/ESP8266_RTOS_SDK/lib\libmicroc.a(isxdigit.o)
                                 0xf1 (size before relaxing)
 .debug_str     0x0001a582        0xe c:/Espressif/ESP8266_RTOS_SDK/lib\libmicroc.a(atof.o)
                                 0xe8 (size before relaxing)
 .debug_str     0x0001a590       0xdc c:/Espressif/ESP8266_RTOS_SDK/lib\libmicroc.a(strtod.o)
                                0x20a (size before relaxing)
 .debug_str     0x0001a66c       0x21 c:/Espressif/ESP8266_RTOS_SDK/lib\libmicroc.a(__fpclassify.o)
                                0x101 (size before relaxing)
 .debug_str     0x0001a68d       0x10 c:/Espressif/ESP8266_RTOS_SDK/lib\libmicroc.a(memchr.o)
                                 0xf0 (size before relaxing)
 .debug_str     0x0001a69d       0x20 c:/Espressif/ESP8266_RTOS_SDK/lib\libmicroc.a(__errno_location.o)
                                 0x69 (size before relaxing)
 .debug_str     0x0001a6bd       0xac c:/Espressif/ESP8266_RTOS_SDK/lib\libmicroc.a(floatscan.o)
                                0x2aa (size before relaxing)
 .debug_str     0x0001a769       0x1a c:/Espressif/ESP8266_RTOS_SDK/lib\libmicroc.a(shgetc.o)
                                0x1dc (size before relaxing)
 .debug_str     0x0001a783       0x19 c:/Espressif/ESP8266_RTOS_SDK/lib\libmicroc.a(__uflow.o)
                                0x1d2 (size before relaxing)
 .debug_str     0x0001a79c       0x3f c:/Espressif/ESP8266_RTOS_SDK/lib\libmicroc.a(__toread.o)
                                0x1f9 (size before relaxing)
 .debug_str     0x0001a7db       0x2d c:/Espressif/ESP8266_RTOS_SDK/lib\libmicroc.a(__stdio_exit.o)
                                0x1de (size before relaxing)
 .debug_str     0x0001a808       0x12 c:/Espressif/ESP8266_RTOS_SDK/lib\libmicroc.a(fmodl.o)
                                 0xed (size before relaxing)
 .debug_str     0x0001a81a        0xe c:/Espressif/ESP8266_RTOS_SDK/lib\libmicroc.a(scalbn.o)
                                 0xe7 (size before relaxing)
 .debug_str     0x0001a828        0xf c:/Espressif/ESP8266_RTOS_SDK/lib\libmicroc.a(scalbnl.o)
                                 0xf3 (size before relaxing)
 .debug_str     0x0001a837       0x1a c:/Espressif/ESP8266_RTOS_SDK/lib\libmicroc.a(fmod.o)
                                 0xf1 (size before relaxing)
